
target/x86_64-unknown-none/debug/qos:	file format elf64-x86-64

Disassembly of section .text:

ffffffff80003890 <_ZN4core3cmp5impls69_$LT$impl$u20$core..cmp..PartialEq$LT$$RF$B$GT$$u20$for$u20$$RF$A$GT$2eq17ha22205eecf64a943E>:
ffffffff80003890: 55                   	push	rbp
ffffffff80003891: 48 89 e5             	mov	rbp, rsp
ffffffff80003894: 48 83 ec 10          	sub	rsp, 16
ffffffff80003898: 48 89 f0             	mov	rax, rsi
ffffffff8000389b: 48 89 f9             	mov	rcx, rdi
ffffffff8000389e: 48 89 4d f0          	mov	qword ptr [rbp - 16], rcx
ffffffff800038a2: 48 89 45 f8          	mov	qword ptr [rbp - 8], rax
ffffffff800038a6: 48 8b 39             	mov	rdi, qword ptr [rcx]
ffffffff800038a9: 48 8b 71 08          	mov	rsi, qword ptr [rcx + 8]
ffffffff800038ad: 48 8b 10             	mov	rdx, qword ptr [rax]
ffffffff800038b0: 48 8b 48 08          	mov	rcx, qword ptr [rax + 8]
ffffffff800038b4: e8 37 24 00 00       	call	0xffffffff80005cf0 <_ZN4core3str6traits54_$LT$impl$u20$core..cmp..PartialEq$u20$for$u20$str$GT$2eq17hcfa91bef0fadbffaE>
ffffffff800038b9: 24 01                	and	al, 1
ffffffff800038bb: 0f b6 c0             	movzx	eax, al
ffffffff800038be: 48 83 c4 10          	add	rsp, 16
ffffffff800038c2: 5d                   	pop	rbp
ffffffff800038c3: c3                   	ret
ffffffff800038c4: cc                   	int3
ffffffff800038c5: cc                   	int3
ffffffff800038c6: cc                   	int3
ffffffff800038c7: cc                   	int3
ffffffff800038c8: cc                   	int3
ffffffff800038c9: cc                   	int3
ffffffff800038ca: cc                   	int3
ffffffff800038cb: cc                   	int3
ffffffff800038cc: cc                   	int3
ffffffff800038cd: cc                   	int3
ffffffff800038ce: cc                   	int3
ffffffff800038cf: cc                   	int3

ffffffff800038d0 <_ZN75_$LT$usize$u20$as$u20$core..slice..index..SliceIndex$LT$$u5b$T$u5d$$GT$$GT$17get_unchecked_mut17h98c20814769ee4a8E>:
ffffffff800038d0: 55                   	push	rbp
ffffffff800038d1: 48 89 e5             	mov	rbp, rsp
ffffffff800038d4: 48 83 ec 50          	sub	rsp, 80
ffffffff800038d8: 48 89 7d b0          	mov	qword ptr [rbp - 80], rdi
ffffffff800038dc: 48 89 75 b8          	mov	qword ptr [rbp - 72], rsi
ffffffff800038e0: 48 89 55 c0          	mov	qword ptr [rbp - 64], rdx
ffffffff800038e4: 48 89 75 c8          	mov	qword ptr [rbp - 56], rsi
ffffffff800038e8: 48 89 55 d0          	mov	qword ptr [rbp - 48], rdx
ffffffff800038ec: 48 89 75 d8          	mov	qword ptr [rbp - 40], rsi
ffffffff800038f0: 48 89 7d e0          	mov	qword ptr [rbp - 32], rdi
ffffffff800038f4: 48 89 75 e8          	mov	qword ptr [rbp - 24], rsi
ffffffff800038f8: 48 89 7d f0          	mov	qword ptr [rbp - 16], rdi
ffffffff800038fc: 48 c1 e7 03          	shl	rdi, 3
ffffffff80003900: 48 01 fe             	add	rsi, rdi
ffffffff80003903: 48 89 75 f8          	mov	qword ptr [rbp - 8], rsi
ffffffff80003907: 48 8b 45 f8          	mov	rax, qword ptr [rbp - 8]
ffffffff8000390b: 48 83 c4 50          	add	rsp, 80
ffffffff8000390f: 5d                   	pop	rbp
ffffffff80003910: c3                   	ret
ffffffff80003911: cc                   	int3
ffffffff80003912: cc                   	int3
ffffffff80003913: cc                   	int3
ffffffff80003914: cc                   	int3
ffffffff80003915: cc                   	int3
ffffffff80003916: cc                   	int3
ffffffff80003917: cc                   	int3
ffffffff80003918: cc                   	int3
ffffffff80003919: cc                   	int3
ffffffff8000391a: cc                   	int3
ffffffff8000391b: cc                   	int3
ffffffff8000391c: cc                   	int3
ffffffff8000391d: cc                   	int3
ffffffff8000391e: cc                   	int3
ffffffff8000391f: cc                   	int3

ffffffff80003920 <_ZN5alloc5alloc15exchange_malloc17hd31e2f2b892716b6E>:
ffffffff80003920: 55                   	push	rbp
ffffffff80003921: 48 89 e5             	mov	rbp, rsp
ffffffff80003924: 48 81 ec d0 00 00 00 	sub	rsp, 208
ffffffff8000392b: 48 89 bd 60 ff ff ff 	mov	qword ptr [rbp - 160], rdi
ffffffff80003932: 48 89 b5 68 ff ff ff 	mov	qword ptr [rbp - 152], rsi
ffffffff80003939: 48 89 bd 70 ff ff ff 	mov	qword ptr [rbp - 144], rdi
ffffffff80003940: 48 89 b5 78 ff ff ff 	mov	qword ptr [rbp - 136], rsi
ffffffff80003947: 48 89 75 80          	mov	qword ptr [rbp - 128], rsi
ffffffff8000394b: 48 89 75 88          	mov	qword ptr [rbp - 120], rsi
ffffffff8000394f: 48 8b 45 88          	mov	rax, qword ptr [rbp - 120]
ffffffff80003953: 48 89 bd 38 ff ff ff 	mov	qword ptr [rbp - 200], rdi
ffffffff8000395a: 48 89 85 40 ff ff ff 	mov	qword ptr [rbp - 192], rax
ffffffff80003961: 48 8d 3d 28 df ff ff 	lea	rdi, [rip - 8408]       # 0xffffffff80001890 <xr6aouzjkjmurg0+0xffffffff80001890>
ffffffff80003968: 48 89 7d 90          	mov	qword ptr [rbp - 112], rdi
ffffffff8000396c: 48 8b b5 38 ff ff ff 	mov	rsi, qword ptr [rbp - 200]
ffffffff80003973: 48 8b 95 40 ff ff ff 	mov	rdx, qword ptr [rbp - 192]
ffffffff8000397a: 48 89 75 98          	mov	qword ptr [rbp - 104], rsi
ffffffff8000397e: 48 89 55 a0          	mov	qword ptr [rbp - 96], rdx
ffffffff80003982: 31 c9                	xor	ecx, ecx
ffffffff80003984: e8 97 00 00 00       	call	0xffffffff80003a20 <_ZN5alloc5alloc6Global10alloc_impl17he6b0bc97df4ed6a2E>
ffffffff80003989: 48 89 95 50 ff ff ff 	mov	qword ptr [rbp - 176], rdx
ffffffff80003990: 48 89 85 48 ff ff ff 	mov	qword ptr [rbp - 184], rax
ffffffff80003997: 48 8b 95 48 ff ff ff 	mov	rdx, qword ptr [rbp - 184]
ffffffff8000399e: 31 c0                	xor	eax, eax
ffffffff800039a0: b9 01 00 00 00       	mov	ecx, 1
ffffffff800039a5: 48 83 fa 00          	cmp	rdx, 0
ffffffff800039a9: 48 0f 44 c1          	cmove	rax, rcx
ffffffff800039ad: 48 83 f8 00          	cmp	rax, 0
ffffffff800039b1: 75 51                	jne	0xffffffff80003a04 <_ZN5alloc5alloc15exchange_malloc17hd31e2f2b892716b6E+0xe4>
ffffffff800039b3: 48 8b 85 48 ff ff ff 	mov	rax, qword ptr [rbp - 184]
ffffffff800039ba: 48 8b 8d 50 ff ff ff 	mov	rcx, qword ptr [rbp - 176]
ffffffff800039c1: 48 89 45 a8          	mov	qword ptr [rbp - 88], rax
ffffffff800039c5: 48 89 4d b0          	mov	qword ptr [rbp - 80], rcx
ffffffff800039c9: 48 89 45 b8          	mov	qword ptr [rbp - 72], rax
ffffffff800039cd: 48 89 4d c0          	mov	qword ptr [rbp - 64], rcx
ffffffff800039d1: 48 89 45 c8          	mov	qword ptr [rbp - 56], rax
ffffffff800039d5: 48 89 4d d0          	mov	qword ptr [rbp - 48], rcx
ffffffff800039d9: 48 89 45 d8          	mov	qword ptr [rbp - 40], rax
ffffffff800039dd: 48 89 4d e0          	mov	qword ptr [rbp - 32], rcx
ffffffff800039e1: 48 89 45 e8          	mov	qword ptr [rbp - 24], rax
ffffffff800039e5: 48 89 4d f0          	mov	qword ptr [rbp - 16], rcx
ffffffff800039e9: 48 89 45 f8          	mov	qword ptr [rbp - 8], rax
ffffffff800039ed: 48 89 85 58 ff ff ff 	mov	qword ptr [rbp - 168], rax
ffffffff800039f4: 48 8b 85 58 ff ff ff 	mov	rax, qword ptr [rbp - 168]
ffffffff800039fb: 48 81 c4 d0 00 00 00 	add	rsp, 208
ffffffff80003a02: 5d                   	pop	rbp
ffffffff80003a03: c3                   	ret
ffffffff80003a04: 48 8b bd 38 ff ff ff 	mov	rdi, qword ptr [rbp - 200]
ffffffff80003a0b: 48 8b b5 40 ff ff ff 	mov	rsi, qword ptr [rbp - 192]
ffffffff80003a12: 48 8b 05 af e6 00 00 	mov	rax, qword ptr [rip + 59055] # 0xffffffff800120c8 <xr6aouzjkjmurg0+0xffffffff800120c8>
ffffffff80003a19: ff d0                	call	rax
ffffffff80003a1b: 0f 0b                	ud2
ffffffff80003a1d: cc                   	int3
ffffffff80003a1e: cc                   	int3
ffffffff80003a1f: cc                   	int3

ffffffff80003a20 <_ZN5alloc5alloc6Global10alloc_impl17he6b0bc97df4ed6a2E>:
ffffffff80003a20: 55                   	push	rbp
ffffffff80003a21: 48 89 e5             	mov	rbp, rsp
ffffffff80003a24: 48 81 ec 40 02 00 00 	sub	rsp, 576
ffffffff80003a2b: 88 c8                	mov	al, cl
ffffffff80003a2d: 88 85 cf fd ff ff    	mov	byte ptr [rbp - 561], al
ffffffff80003a33: 48 89 b5 d8 fd ff ff 	mov	qword ptr [rbp - 552], rsi
ffffffff80003a3a: 48 89 95 e0 fd ff ff 	mov	qword ptr [rbp - 544], rdx
ffffffff80003a41: 48 89 bd b8 fe ff ff 	mov	qword ptr [rbp - 328], rdi
ffffffff80003a48: 24 01                	and	al, 1
ffffffff80003a4a: 88 85 c7 fe ff ff    	mov	byte ptr [rbp - 313], al
ffffffff80003a50: 48 8d 85 d8 fd ff ff 	lea	rax, [rbp - 552]
ffffffff80003a57: 48 89 85 f0 fe ff ff 	mov	qword ptr [rbp - 272], rax
ffffffff80003a5e: 48 8b 85 d8 fd ff ff 	mov	rax, qword ptr [rbp - 552]
ffffffff80003a65: 48 89 85 d0 fd ff ff 	mov	qword ptr [rbp - 560], rax
ffffffff80003a6c: 48 83 f8 00          	cmp	rax, 0
ffffffff80003a70: 0f 85 d0 00 00 00    	jne	0xffffffff80003b46 <_ZN5alloc5alloc6Global10alloc_impl17he6b0bc97df4ed6a2E+0x126>
ffffffff80003a76: 48 8d 85 d8 fd ff ff 	lea	rax, [rbp - 552]
ffffffff80003a7d: 48 89 45 a0          	mov	qword ptr [rbp - 96], rax
ffffffff80003a81: 48 8d 85 d8 fd ff ff 	lea	rax, [rbp - 552]
ffffffff80003a88: 48 89 45 a8          	mov	qword ptr [rbp - 88], rax
ffffffff80003a8c: 48 8b 85 e0 fd ff ff 	mov	rax, qword ptr [rbp - 544]
ffffffff80003a93: 48 89 45 b0          	mov	qword ptr [rbp - 80], rax
ffffffff80003a97: 48 89 85 60 fe ff ff 	mov	qword ptr [rbp - 416], rax
ffffffff80003a9e: 48 8b 85 60 fe ff ff 	mov	rax, qword ptr [rbp - 416]
ffffffff80003aa5: 48 89 45 b8          	mov	qword ptr [rbp - 72], rax
ffffffff80003aa9: 48 89 45 c0          	mov	qword ptr [rbp - 64], rax
ffffffff80003aad: 48 8b 45 c0          	mov	rax, qword ptr [rbp - 64]
ffffffff80003ab1: 48 89 45 c8          	mov	qword ptr [rbp - 56], rax
ffffffff80003ab5: 48 89 85 08 fe ff ff 	mov	qword ptr [rbp - 504], rax
ffffffff80003abc: 48 8b 85 08 fe ff ff 	mov	rax, qword ptr [rbp - 504]
ffffffff80003ac3: 48 89 45 d0          	mov	qword ptr [rbp - 48], rax
ffffffff80003ac7: 48 89 45 d8          	mov	qword ptr [rbp - 40], rax
ffffffff80003acb: 48 89 45 e0          	mov	qword ptr [rbp - 32], rax
ffffffff80003acf: 48 89 45 e8          	mov	qword ptr [rbp - 24], rax
ffffffff80003ad3: 48 89 85 78 fe ff ff 	mov	qword ptr [rbp - 392], rax
ffffffff80003ada: 48 c7 85 80 fe ff ff 00 00 00 00     	mov	qword ptr [rbp - 384], 0
ffffffff80003ae5: 48 8b 8d 78 fe ff ff 	mov	rcx, qword ptr [rbp - 392]
ffffffff80003aec: 48 8b 85 80 fe ff ff 	mov	rax, qword ptr [rbp - 384]
ffffffff80003af3: 48 89 8d 68 fe ff ff 	mov	qword ptr [rbp - 408], rcx
ffffffff80003afa: 48 89 85 70 fe ff ff 	mov	qword ptr [rbp - 400], rax
ffffffff80003b01: 48 8b 8d 68 fe ff ff 	mov	rcx, qword ptr [rbp - 408]
ffffffff80003b08: 48 8b 85 70 fe ff ff 	mov	rax, qword ptr [rbp - 400]
ffffffff80003b0f: 48 89 4d f0          	mov	qword ptr [rbp - 16], rcx
ffffffff80003b13: 48 89 45 f8          	mov	qword ptr [rbp - 8], rax
ffffffff80003b17: 48 89 8d f8 fd ff ff 	mov	qword ptr [rbp - 520], rcx
ffffffff80003b1e: 48 89 85 00 fe ff ff 	mov	qword ptr [rbp - 512], rax
ffffffff80003b25: 48 8b 8d f8 fd ff ff 	mov	rcx, qword ptr [rbp - 520]
ffffffff80003b2c: 48 8b 85 00 fe ff ff 	mov	rax, qword ptr [rbp - 512]
ffffffff80003b33: 48 89 8d e8 fd ff ff 	mov	qword ptr [rbp - 536], rcx
ffffffff80003b3a: 48 89 85 f0 fd ff ff 	mov	qword ptr [rbp - 528], rax
ffffffff80003b41: e9 82 02 00 00       	jmp	0xffffffff80003dc8 <_ZN5alloc5alloc6Global10alloc_impl17he6b0bc97df4ed6a2E+0x3a8>
ffffffff80003b46: 8a 85 cf fd ff ff    	mov	al, byte ptr [rbp - 561]
ffffffff80003b4c: 48 8b 8d d0 fd ff ff 	mov	rcx, qword ptr [rbp - 560]
ffffffff80003b53: 48 89 8d f8 fe ff ff 	mov	qword ptr [rbp - 264], rcx
ffffffff80003b5a: a8 01                	test	al, 1
ffffffff80003b5c: 75 6d                	jne	0xffffffff80003bcb <_ZN5alloc5alloc6Global10alloc_impl17he6b0bc97df4ed6a2E+0x1ab>
ffffffff80003b5e: 48 8b 8d d8 fd ff ff 	mov	rcx, qword ptr [rbp - 552]
ffffffff80003b65: 48 8b 85 e0 fd ff ff 	mov	rax, qword ptr [rbp - 544]
ffffffff80003b6c: 48 89 8d 28 fe ff ff 	mov	qword ptr [rbp - 472], rcx
ffffffff80003b73: 48 89 85 30 fe ff ff 	mov	qword ptr [rbp - 464], rax
ffffffff80003b7a: 48 8d 85 28 fe ff ff 	lea	rax, [rbp - 472]
ffffffff80003b81: 48 89 85 18 ff ff ff 	mov	qword ptr [rbp - 232], rax
ffffffff80003b88: 48 8b bd 28 fe ff ff 	mov	rdi, qword ptr [rbp - 472]
ffffffff80003b8f: 48 8d 85 28 fe ff ff 	lea	rax, [rbp - 472]
ffffffff80003b96: 48 89 85 20 ff ff ff 	mov	qword ptr [rbp - 224], rax
ffffffff80003b9d: 48 8b 85 30 fe ff ff 	mov	rax, qword ptr [rbp - 464]
ffffffff80003ba4: 48 89 85 28 ff ff ff 	mov	qword ptr [rbp - 216], rax
ffffffff80003bab: 48 89 85 90 fe ff ff 	mov	qword ptr [rbp - 368], rax
ffffffff80003bb2: 48 8b b5 90 fe ff ff 	mov	rsi, qword ptr [rbp - 368]
ffffffff80003bb9: 48 8b 05 10 e5 00 00 	mov	rax, qword ptr [rip + 58640] # 0xffffffff800120d0 <xr6aouzjkjmurg0+0xffffffff800120d0>
ffffffff80003bc0: ff d0                	call	rax
ffffffff80003bc2: 48 89 85 10 fe ff ff 	mov	qword ptr [rbp - 496], rax
ffffffff80003bc9: eb 6b                	jmp	0xffffffff80003c36 <_ZN5alloc5alloc6Global10alloc_impl17he6b0bc97df4ed6a2E+0x216>
ffffffff80003bcb: 48 8b 8d d8 fd ff ff 	mov	rcx, qword ptr [rbp - 552]
ffffffff80003bd2: 48 8b 85 e0 fd ff ff 	mov	rax, qword ptr [rbp - 544]
ffffffff80003bd9: 48 89 8d 18 fe ff ff 	mov	qword ptr [rbp - 488], rcx
ffffffff80003be0: 48 89 85 20 fe ff ff 	mov	qword ptr [rbp - 480], rax
ffffffff80003be7: 48 8d 85 18 fe ff ff 	lea	rax, [rbp - 488]
ffffffff80003bee: 48 89 85 00 ff ff ff 	mov	qword ptr [rbp - 256], rax
ffffffff80003bf5: 48 8b bd 18 fe ff ff 	mov	rdi, qword ptr [rbp - 488]
ffffffff80003bfc: 48 8d 85 18 fe ff ff 	lea	rax, [rbp - 488]
ffffffff80003c03: 48 89 85 08 ff ff ff 	mov	qword ptr [rbp - 248], rax
ffffffff80003c0a: 48 8b 85 20 fe ff ff 	mov	rax, qword ptr [rbp - 480]
ffffffff80003c11: 48 89 85 10 ff ff ff 	mov	qword ptr [rbp - 240], rax
ffffffff80003c18: 48 89 85 88 fe ff ff 	mov	qword ptr [rbp - 376], rax
ffffffff80003c1f: 48 8b b5 88 fe ff ff 	mov	rsi, qword ptr [rbp - 376]
ffffffff80003c26: 48 8b 05 ab e4 00 00 	mov	rax, qword ptr [rip + 58539] # 0xffffffff800120d8 <xr6aouzjkjmurg0+0xffffffff800120d8>
ffffffff80003c2d: ff d0                	call	rax
ffffffff80003c2f: 48 89 85 10 fe ff ff 	mov	qword ptr [rbp - 496], rax
ffffffff80003c36: 48 8b bd 10 fe ff ff 	mov	rdi, qword ptr [rbp - 496]
ffffffff80003c3d: e8 fe 66 00 00       	call	0xffffffff8000a340 <_ZN4core3ptr8non_null16NonNull$LT$T$GT$3new17hfdc3b13f3d156bdaE>
ffffffff80003c42: 48 89 85 48 fe ff ff 	mov	qword ptr [rbp - 440], rax
ffffffff80003c49: 48 8b 95 48 fe ff ff 	mov	rdx, qword ptr [rbp - 440]
ffffffff80003c50: b8 01 00 00 00       	mov	eax, 1
ffffffff80003c55: 31 c9                	xor	ecx, ecx
ffffffff80003c57: 48 83 fa 00          	cmp	rdx, 0
ffffffff80003c5b: 48 0f 44 c1          	cmove	rax, rcx
ffffffff80003c5f: 48 83 f8 00          	cmp	rax, 0
ffffffff80003c63: 75 0d                	jne	0xffffffff80003c72 <_ZN5alloc5alloc6Global10alloc_impl17he6b0bc97df4ed6a2E+0x252>
ffffffff80003c65: 48 c7 85 40 fe ff ff 00 00 00 00     	mov	qword ptr [rbp - 448], 0
ffffffff80003c70: eb 15                	jmp	0xffffffff80003c87 <_ZN5alloc5alloc6Global10alloc_impl17he6b0bc97df4ed6a2E+0x267>
ffffffff80003c72: 48 8b 85 48 fe ff ff 	mov	rax, qword ptr [rbp - 440]
ffffffff80003c79: 48 89 85 30 ff ff ff 	mov	qword ptr [rbp - 208], rax
ffffffff80003c80: 48 89 85 40 fe ff ff 	mov	qword ptr [rbp - 448], rax
ffffffff80003c87: 48 8b 95 40 fe ff ff 	mov	rdx, qword ptr [rbp - 448]
ffffffff80003c8e: 31 c0                	xor	eax, eax
ffffffff80003c90: b9 01 00 00 00       	mov	ecx, 1
ffffffff80003c95: 48 83 fa 00          	cmp	rdx, 0
ffffffff80003c99: 48 0f 44 c1          	cmove	rax, rcx
ffffffff80003c9d: 48 83 f8 00          	cmp	rax, 0
ffffffff80003ca1: 75 17                	jne	0xffffffff80003cba <_ZN5alloc5alloc6Global10alloc_impl17he6b0bc97df4ed6a2E+0x29a>
ffffffff80003ca3: 48 8b 85 40 fe ff ff 	mov	rax, qword ptr [rbp - 448]
ffffffff80003caa: 48 89 85 38 ff ff ff 	mov	qword ptr [rbp - 200], rax
ffffffff80003cb1: 48 89 85 38 fe ff ff 	mov	qword ptr [rbp - 456], rax
ffffffff80003cb8: eb 0b                	jmp	0xffffffff80003cc5 <_ZN5alloc5alloc6Global10alloc_impl17he6b0bc97df4ed6a2E+0x2a5>
ffffffff80003cba: 48 c7 85 38 fe ff ff 00 00 00 00     	mov	qword ptr [rbp - 456], 0
ffffffff80003cc5: 48 8b 95 38 fe ff ff 	mov	rdx, qword ptr [rbp - 456]
ffffffff80003ccc: 31 c0                	xor	eax, eax
ffffffff80003cce: b9 01 00 00 00       	mov	ecx, 1
ffffffff80003cd3: 48 83 fa 00          	cmp	rdx, 0
ffffffff80003cd7: 48 0f 44 c1          	cmove	rax, rcx
ffffffff80003cdb: 48 83 f8 00          	cmp	rax, 0
ffffffff80003cdf: 0f 85 c1 00 00 00    	jne	0xffffffff80003da6 <_ZN5alloc5alloc6Global10alloc_impl17he6b0bc97df4ed6a2E+0x386>
ffffffff80003ce5: 48 8b 85 d0 fd ff ff 	mov	rax, qword ptr [rbp - 560]
ffffffff80003cec: 48 8b 8d 38 fe ff ff 	mov	rcx, qword ptr [rbp - 456]
ffffffff80003cf3: 48 89 8d c0 fd ff ff 	mov	qword ptr [rbp - 576], rcx
ffffffff80003cfa: 48 89 8d 40 ff ff ff 	mov	qword ptr [rbp - 192], rcx
ffffffff80003d01: 48 89 8d 48 ff ff ff 	mov	qword ptr [rbp - 184], rcx
ffffffff80003d08: 48 89 8d 50 ff ff ff 	mov	qword ptr [rbp - 176], rcx
ffffffff80003d0f: 48 89 85 58 ff ff ff 	mov	qword ptr [rbp - 168], rax
ffffffff80003d16: 48 89 8d 60 ff ff ff 	mov	qword ptr [rbp - 160], rcx
ffffffff80003d1d: 48 89 8d 68 ff ff ff 	mov	qword ptr [rbp - 152], rcx
ffffffff80003d24: 48 89 85 70 ff ff ff 	mov	qword ptr [rbp - 144], rax
ffffffff80003d2b: 48 89 8d 78 ff ff ff 	mov	qword ptr [rbp - 136], rcx
ffffffff80003d32: 48 89 4d 80          	mov	qword ptr [rbp - 128], rcx
ffffffff80003d36: 48 89 45 88          	mov	qword ptr [rbp - 120], rax
ffffffff80003d3a: 48 89 8d a8 fe ff ff 	mov	qword ptr [rbp - 344], rcx
ffffffff80003d41: 48 89 85 b0 fe ff ff 	mov	qword ptr [rbp - 336], rax
ffffffff80003d48: 48 8b 8d a8 fe ff ff 	mov	rcx, qword ptr [rbp - 344]
ffffffff80003d4f: 48 8b 85 b0 fe ff ff 	mov	rax, qword ptr [rbp - 336]
ffffffff80003d56: 48 89 8d 98 fe ff ff 	mov	qword ptr [rbp - 360], rcx
ffffffff80003d5d: 48 89 85 a0 fe ff ff 	mov	qword ptr [rbp - 352], rax
ffffffff80003d64: 48 8b 8d 98 fe ff ff 	mov	rcx, qword ptr [rbp - 360]
ffffffff80003d6b: 48 8b 85 a0 fe ff ff 	mov	rax, qword ptr [rbp - 352]
ffffffff80003d72: 48 89 4d 90          	mov	qword ptr [rbp - 112], rcx
ffffffff80003d76: 48 89 45 98          	mov	qword ptr [rbp - 104], rax
ffffffff80003d7a: 48 89 8d 50 fe ff ff 	mov	qword ptr [rbp - 432], rcx
ffffffff80003d81: 48 89 85 58 fe ff ff 	mov	qword ptr [rbp - 424], rax
ffffffff80003d88: 48 8b 8d 50 fe ff ff 	mov	rcx, qword ptr [rbp - 432]
ffffffff80003d8f: 48 8b 85 58 fe ff ff 	mov	rax, qword ptr [rbp - 424]
ffffffff80003d96: 48 89 8d e8 fd ff ff 	mov	qword ptr [rbp - 536], rcx
ffffffff80003d9d: 48 89 85 f0 fd ff ff 	mov	qword ptr [rbp - 528], rax
ffffffff80003da4: eb 22                	jmp	0xffffffff80003dc8 <_ZN5alloc5alloc6Global10alloc_impl17he6b0bc97df4ed6a2E+0x3a8>
ffffffff80003da6: 48 c7 85 e8 fd ff ff 00 00 00 00     	mov	qword ptr [rbp - 536], 0
ffffffff80003db1: 48 8b 85 e8 fd ff ff 	mov	rax, qword ptr [rbp - 536]
ffffffff80003db8: 48 8b 95 f0 fd ff ff 	mov	rdx, qword ptr [rbp - 528]
ffffffff80003dbf: 48 81 c4 40 02 00 00 	add	rsp, 576
ffffffff80003dc6: 5d                   	pop	rbp
ffffffff80003dc7: c3                   	ret
ffffffff80003dc8: eb e7                	jmp	0xffffffff80003db1 <_ZN5alloc5alloc6Global10alloc_impl17he6b0bc97df4ed6a2E+0x391>
ffffffff80003dca: cc                   	int3
ffffffff80003dcb: cc                   	int3
ffffffff80003dcc: cc                   	int3
ffffffff80003dcd: cc                   	int3
ffffffff80003dce: cc                   	int3
ffffffff80003dcf: cc                   	int3

ffffffff80003dd0 <_ZN4core3ptr24slice_from_raw_parts_mut17hf1b859d83de895cfE>:
ffffffff80003dd0: 55                   	push	rbp
ffffffff80003dd1: 48 89 e5             	mov	rbp, rsp
ffffffff80003dd4: 48 83 ec 48          	sub	rsp, 72
ffffffff80003dd8: 48 89 7d d8          	mov	qword ptr [rbp - 40], rdi
ffffffff80003ddc: 48 89 75 e0          	mov	qword ptr [rbp - 32], rsi
ffffffff80003de0: 48 89 7d e8          	mov	qword ptr [rbp - 24], rdi
ffffffff80003de4: 48 89 7d f0          	mov	qword ptr [rbp - 16], rdi
ffffffff80003de8: 48 89 75 f8          	mov	qword ptr [rbp - 8], rsi
ffffffff80003dec: 48 89 7d c8          	mov	qword ptr [rbp - 56], rdi
ffffffff80003df0: 48 89 75 d0          	mov	qword ptr [rbp - 48], rsi
ffffffff80003df4: 48 8b 4d c8          	mov	rcx, qword ptr [rbp - 56]
ffffffff80003df8: 48 8b 45 d0          	mov	rax, qword ptr [rbp - 48]
ffffffff80003dfc: 48 89 4d b8          	mov	qword ptr [rbp - 72], rcx
ffffffff80003e00: 48 89 45 c0          	mov	qword ptr [rbp - 64], rax
ffffffff80003e04: 48 8b 45 b8          	mov	rax, qword ptr [rbp - 72]
ffffffff80003e08: 48 8b 55 c0          	mov	rdx, qword ptr [rbp - 64]
ffffffff80003e0c: 48 83 c4 48          	add	rsp, 72
ffffffff80003e10: 5d                   	pop	rbp
ffffffff80003e11: c3                   	ret
ffffffff80003e12: cc                   	int3
ffffffff80003e13: cc                   	int3
ffffffff80003e14: cc                   	int3
ffffffff80003e15: cc                   	int3
ffffffff80003e16: cc                   	int3
ffffffff80003e17: cc                   	int3
ffffffff80003e18: cc                   	int3
ffffffff80003e19: cc                   	int3
ffffffff80003e1a: cc                   	int3
ffffffff80003e1b: cc                   	int3
ffffffff80003e1c: cc                   	int3
ffffffff80003e1d: cc                   	int3
ffffffff80003e1e: cc                   	int3
ffffffff80003e1f: cc                   	int3

ffffffff80003e20 <_ZN4core5alloc6layout6Layout12pad_to_align17he04b7c4a8ce697f5E>:
ffffffff80003e20: 55                   	push	rbp
ffffffff80003e21: 48 89 e5             	mov	rbp, rsp
ffffffff80003e24: 48 81 ec 90 00 00 00 	sub	rsp, 144
ffffffff80003e2b: 48 89 bd 78 ff ff ff 	mov	qword ptr [rbp - 136], rdi
ffffffff80003e32: 48 89 7d a0          	mov	qword ptr [rbp - 96], rdi
ffffffff80003e36: 48 89 7d a8          	mov	qword ptr [rbp - 88], rdi
ffffffff80003e3a: 48 8b 47 08          	mov	rax, qword ptr [rdi + 8]
ffffffff80003e3e: 48 89 45 b0          	mov	qword ptr [rbp - 80], rax
ffffffff80003e42: 48 89 45 90          	mov	qword ptr [rbp - 112], rax
ffffffff80003e46: 48 8b 75 90          	mov	rsi, qword ptr [rbp - 112]
ffffffff80003e4a: e8 61 00 00 00       	call	0xffffffff80003eb0 <_ZN4core5alloc6layout6Layout18padding_needed_for17h71a9f01f7cdc01afE>
ffffffff80003e4f: 48 8b bd 78 ff ff ff 	mov	rdi, qword ptr [rbp - 136]
ffffffff80003e56: 48 89 45 b8          	mov	qword ptr [rbp - 72], rax
ffffffff80003e5a: 48 89 7d c0          	mov	qword ptr [rbp - 64], rdi
ffffffff80003e5e: 48 8b 0f             	mov	rcx, qword ptr [rdi]
ffffffff80003e61: 48 01 c1             	add	rcx, rax
ffffffff80003e64: 48 89 4d c8          	mov	qword ptr [rbp - 56], rcx
ffffffff80003e68: 48 89 4d d0          	mov	qword ptr [rbp - 48], rcx
ffffffff80003e6c: 48 89 7d d8          	mov	qword ptr [rbp - 40], rdi
ffffffff80003e70: 48 8b 47 08          	mov	rax, qword ptr [rdi + 8]
ffffffff80003e74: 48 89 45 e0          	mov	qword ptr [rbp - 32], rax
ffffffff80003e78: 48 89 45 98          	mov	qword ptr [rbp - 104], rax
ffffffff80003e7c: 48 8b 45 98          	mov	rax, qword ptr [rbp - 104]
ffffffff80003e80: 48 89 45 e8          	mov	qword ptr [rbp - 24], rax
ffffffff80003e84: 48 89 45 f0          	mov	qword ptr [rbp - 16], rax
ffffffff80003e88: 48 89 45 f8          	mov	qword ptr [rbp - 8], rax
ffffffff80003e8c: 48 8b 45 f8          	mov	rax, qword ptr [rbp - 8]
ffffffff80003e90: 48 89 4d 80          	mov	qword ptr [rbp - 128], rcx
ffffffff80003e94: 48 89 45 88          	mov	qword ptr [rbp - 120], rax
ffffffff80003e98: 48 8b 45 80          	mov	rax, qword ptr [rbp - 128]
ffffffff80003e9c: 48 8b 55 88          	mov	rdx, qword ptr [rbp - 120]
ffffffff80003ea0: 48 81 c4 90 00 00 00 	add	rsp, 144
ffffffff80003ea7: 5d                   	pop	rbp
ffffffff80003ea8: c3                   	ret
ffffffff80003ea9: cc                   	int3
ffffffff80003eaa: cc                   	int3
ffffffff80003eab: cc                   	int3
ffffffff80003eac: cc                   	int3
ffffffff80003ead: cc                   	int3
ffffffff80003eae: cc                   	int3
ffffffff80003eaf: cc                   	int3

ffffffff80003eb0 <_ZN4core5alloc6layout6Layout18padding_needed_for17h71a9f01f7cdc01afE>:
ffffffff80003eb0: 55                   	push	rbp
ffffffff80003eb1: 48 89 e5             	mov	rbp, rsp
ffffffff80003eb4: 48 83 ec 58          	sub	rsp, 88
ffffffff80003eb8: 48 89 f2             	mov	rdx, rsi
ffffffff80003ebb: 48 89 7d a8          	mov	qword ptr [rbp - 88], rdi
ffffffff80003ebf: 48 89 55 b0          	mov	qword ptr [rbp - 80], rdx
ffffffff80003ec3: 48 89 7d b8          	mov	qword ptr [rbp - 72], rdi
ffffffff80003ec7: 48 8b 0f             	mov	rcx, qword ptr [rdi]
ffffffff80003eca: 48 89 4d c0          	mov	qword ptr [rbp - 64], rcx
ffffffff80003ece: 48 89 4d c8          	mov	qword ptr [rbp - 56], rcx
ffffffff80003ed2: 48 89 55 d0          	mov	qword ptr [rbp - 48], rdx
ffffffff80003ed6: 48 89 c8             	mov	rax, rcx
ffffffff80003ed9: 48 01 d0             	add	rax, rdx
ffffffff80003edc: 48 89 45 d8          	mov	qword ptr [rbp - 40], rax
ffffffff80003ee0: 48 83 e8 01          	sub	rax, 1
ffffffff80003ee4: 48 89 55 e0          	mov	qword ptr [rbp - 32], rdx
ffffffff80003ee8: 48 83 ea 01          	sub	rdx, 1
ffffffff80003eec: 48 83 f2 ff          	xor	rdx, -1
ffffffff80003ef0: 48 21 d0             	and	rax, rdx
ffffffff80003ef3: 48 89 45 e8          	mov	qword ptr [rbp - 24], rax
ffffffff80003ef7: 48 89 45 f0          	mov	qword ptr [rbp - 16], rax
ffffffff80003efb: 48 89 4d f8          	mov	qword ptr [rbp - 8], rcx
ffffffff80003eff: 48 29 c8             	sub	rax, rcx
ffffffff80003f02: 48 83 c4 58          	add	rsp, 88
ffffffff80003f06: 5d                   	pop	rbp
ffffffff80003f07: c3                   	ret
ffffffff80003f08: cc                   	int3
ffffffff80003f09: cc                   	int3
ffffffff80003f0a: cc                   	int3
ffffffff80003f0b: cc                   	int3
ffffffff80003f0c: cc                   	int3
ffffffff80003f0d: cc                   	int3
ffffffff80003f0e: cc                   	int3
ffffffff80003f0f: cc                   	int3

ffffffff80003f10 <_ZN4core5alloc6layout6Layout25from_size_align_unchecked17ha14245e69605ebd1E>:
ffffffff80003f10: 55                   	push	rbp
ffffffff80003f11: 48 89 e5             	mov	rbp, rsp
ffffffff80003f14: 48 83 ec 30          	sub	rsp, 48
ffffffff80003f18: 48 89 7d e0          	mov	qword ptr [rbp - 32], rdi
ffffffff80003f1c: 48 89 75 e8          	mov	qword ptr [rbp - 24], rsi
ffffffff80003f20: 48 89 75 f0          	mov	qword ptr [rbp - 16], rsi
ffffffff80003f24: 48 89 75 f8          	mov	qword ptr [rbp - 8], rsi
ffffffff80003f28: 48 8b 45 f8          	mov	rax, qword ptr [rbp - 8]
ffffffff80003f2c: 48 89 7d d0          	mov	qword ptr [rbp - 48], rdi
ffffffff80003f30: 48 89 45 d8          	mov	qword ptr [rbp - 40], rax
ffffffff80003f34: 48 8b 45 d0          	mov	rax, qword ptr [rbp - 48]
ffffffff80003f38: 48 8b 55 d8          	mov	rdx, qword ptr [rbp - 40]
ffffffff80003f3c: 48 83 c4 30          	add	rsp, 48
ffffffff80003f40: 5d                   	pop	rbp
ffffffff80003f41: c3                   	ret
ffffffff80003f42: cc                   	int3
ffffffff80003f43: cc                   	int3
ffffffff80003f44: cc                   	int3
ffffffff80003f45: cc                   	int3
ffffffff80003f46: cc                   	int3
ffffffff80003f47: cc                   	int3
ffffffff80003f48: cc                   	int3
ffffffff80003f49: cc                   	int3
ffffffff80003f4a: cc                   	int3
ffffffff80003f4b: cc                   	int3
ffffffff80003f4c: cc                   	int3
ffffffff80003f4d: cc                   	int3
ffffffff80003f4e: cc                   	int3
ffffffff80003f4f: cc                   	int3

ffffffff80003f50 <_ZN4core5alloc6layout6Layout4size17h5cb2578191dc0d3bE>:
ffffffff80003f50: 55                   	push	rbp
ffffffff80003f51: 48 89 e5             	mov	rbp, rsp
ffffffff80003f54: 50                   	push	rax
ffffffff80003f55: 48 89 7d f8          	mov	qword ptr [rbp - 8], rdi
ffffffff80003f59: 48 8b 07             	mov	rax, qword ptr [rdi]
ffffffff80003f5c: 48 83 c4 08          	add	rsp, 8
ffffffff80003f60: 5d                   	pop	rbp
ffffffff80003f61: c3                   	ret
ffffffff80003f62: cc                   	int3
ffffffff80003f63: cc                   	int3
ffffffff80003f64: cc                   	int3
ffffffff80003f65: cc                   	int3
ffffffff80003f66: cc                   	int3
ffffffff80003f67: cc                   	int3
ffffffff80003f68: cc                   	int3
ffffffff80003f69: cc                   	int3
ffffffff80003f6a: cc                   	int3
ffffffff80003f6b: cc                   	int3
ffffffff80003f6c: cc                   	int3
ffffffff80003f6d: cc                   	int3
ffffffff80003f6e: cc                   	int3
ffffffff80003f6f: cc                   	int3

ffffffff80003f70 <_ZN3qos2fb11Framebuffer3new17hadb6acbc25742f64E>:
ffffffff80003f70: 55                   	push	rbp
ffffffff80003f71: 48 89 e5             	mov	rbp, rsp
ffffffff80003f74: 48 83 ec 28          	sub	rsp, 40
ffffffff80003f78: 48 89 f8             	mov	rax, rdi
ffffffff80003f7b: 48 89 75 d8          	mov	qword ptr [rbp - 40], rsi
ffffffff80003f7f: 48 89 55 e0          	mov	qword ptr [rbp - 32], rdx
ffffffff80003f83: 48 89 4d e8          	mov	qword ptr [rbp - 24], rcx
ffffffff80003f87: 4c 89 45 f0          	mov	qword ptr [rbp - 16], r8
ffffffff80003f8b: 4c 89 4d f8          	mov	qword ptr [rbp - 8], r9
ffffffff80003f8f: 48 89 37             	mov	qword ptr [rdi], rsi
ffffffff80003f92: 48 89 57 08          	mov	qword ptr [rdi + 8], rdx
ffffffff80003f96: 48 89 4f 10          	mov	qword ptr [rdi + 16], rcx
ffffffff80003f9a: 4c 89 47 18          	mov	qword ptr [rdi + 24], r8
ffffffff80003f9e: 4c 89 4f 20          	mov	qword ptr [rdi + 32], r9
ffffffff80003fa2: 48 83 c4 28          	add	rsp, 40
ffffffff80003fa6: 5d                   	pop	rbp
ffffffff80003fa7: c3                   	ret
ffffffff80003fa8: cc                   	int3
ffffffff80003fa9: cc                   	int3
ffffffff80003faa: cc                   	int3
ffffffff80003fab: cc                   	int3
ffffffff80003fac: cc                   	int3
ffffffff80003fad: cc                   	int3
ffffffff80003fae: cc                   	int3
ffffffff80003faf: cc                   	int3

ffffffff80003fb0 <_ZN3qos2fb11Framebuffer5write17h9bcb3f37b37f2078E>:
ffffffff80003fb0: 55                   	push	rbp
ffffffff80003fb1: 48 89 e5             	mov	rbp, rsp
ffffffff80003fb4: 48 81 ec d0 00 00 00 	sub	rsp, 208
ffffffff80003fbb: 89 8d 5c ff ff ff    	mov	dword ptr [rbp - 164], ecx
ffffffff80003fc1: 48 89 95 60 ff ff ff 	mov	qword ptr [rbp - 160], rdx
ffffffff80003fc8: 48 89 b5 68 ff ff ff 	mov	qword ptr [rbp - 152], rsi
ffffffff80003fcf: 48 89 bd 70 ff ff ff 	mov	qword ptr [rbp - 144], rdi
ffffffff80003fd6: 48 89 7d 80          	mov	qword ptr [rbp - 128], rdi
ffffffff80003fda: 48 89 75 88          	mov	qword ptr [rbp - 120], rsi
ffffffff80003fde: 48 89 55 90          	mov	qword ptr [rbp - 112], rdx
ffffffff80003fe2: 89 4d 9c             	mov	dword ptr [rbp - 100], ecx
ffffffff80003fe5: 48 3b 37             	cmp	rsi, qword ptr [rdi]
ffffffff80003fe8: 72 09                	jb	0xffffffff80003ff3 <_ZN3qos2fb11Framebuffer5write17h9bcb3f37b37f2078E+0x43>
ffffffff80003fea: c6 85 7f ff ff ff 00 	mov	byte ptr [rbp - 129], 0
ffffffff80003ff1: eb 1d                	jmp	0xffffffff80004010 <_ZN3qos2fb11Framebuffer5write17h9bcb3f37b37f2078E+0x60>
ffffffff80003ff3: 48 8b 85 60 ff ff ff 	mov	rax, qword ptr [rbp - 160]
ffffffff80003ffa: 48 8b 8d 70 ff ff ff 	mov	rcx, qword ptr [rbp - 144]
ffffffff80004001: 48 3b 41 08          	cmp	rax, qword ptr [rcx + 8]
ffffffff80004005: 0f 92 c0             	setb	al
ffffffff80004008: 24 01                	and	al, 1
ffffffff8000400a: 88 85 7f ff ff ff    	mov	byte ptr [rbp - 129], al
ffffffff80004010: 8a 85 7f ff ff ff    	mov	al, byte ptr [rbp - 129]
ffffffff80004016: 34 ff                	xor	al, -1
ffffffff80004018: a8 01                	test	al, 1
ffffffff8000401a: 75 2d                	jne	0xffffffff80004049 <_ZN3qos2fb11Framebuffer5write17h9bcb3f37b37f2078E+0x99>
ffffffff8000401c: 48 8b 8d 70 ff ff ff 	mov	rcx, qword ptr [rbp - 144]
ffffffff80004023: 48 8b 85 60 ff ff ff 	mov	rax, qword ptr [rbp - 160]
ffffffff8000402a: 48 8b 51 20          	mov	rdx, qword ptr [rcx + 32]
ffffffff8000402e: 48 89 95 48 ff ff ff 	mov	qword ptr [rbp - 184], rdx
ffffffff80004035: 48 f7 61 18          	mul	qword ptr [rcx + 24]
ffffffff80004039: 48 89 85 50 ff ff ff 	mov	qword ptr [rbp - 176], rax
ffffffff80004040: 0f 90 c0             	seto	al
ffffffff80004043: a8 01                	test	al, 1
ffffffff80004045: 75 42                	jne	0xffffffff80004089 <_ZN3qos2fb11Framebuffer5write17h9bcb3f37b37f2078E+0xd9>
ffffffff80004047: eb 1e                	jmp	0xffffffff80004067 <_ZN3qos2fb11Framebuffer5write17h9bcb3f37b37f2078E+0xb7>
ffffffff80004049: 48 8d 3d 40 d8 ff ff 	lea	rdi, [rip - 10176]      # 0xffffffff80001890 <xr6aouzjkjmurg0+0xffffffff80001890>
ffffffff80004050: 48 8d 15 51 d2 00 00 	lea	rdx, [rip + 53841]      # 0xffffffff800112a8 <xr6aouzjkjmurg0+0xffffffff800112a8>
ffffffff80004057: 48 8b 05 82 e0 00 00 	mov	rax, qword ptr [rip + 57474] # 0xffffffff800120e0 <xr6aouzjkjmurg0+0xffffffff800120e0>
ffffffff8000405e: be 33 00 00 00       	mov	esi, 51
ffffffff80004063: ff d0                	call	rax
ffffffff80004065: 0f 0b                	ud2
ffffffff80004067: 48 8b 8d 70 ff ff ff 	mov	rcx, qword ptr [rbp - 144]
ffffffff8000406e: 48 8b 85 68 ff ff ff 	mov	rax, qword ptr [rbp - 152]
ffffffff80004075: 48 f7 61 10          	mul	qword ptr [rcx + 16]
ffffffff80004079: 48 89 85 40 ff ff ff 	mov	qword ptr [rbp - 192], rax
ffffffff80004080: 0f 90 c0             	seto	al
ffffffff80004083: a8 01                	test	al, 1
ffffffff80004085: 75 41                	jne	0xffffffff800040c8 <_ZN3qos2fb11Framebuffer5write17h9bcb3f37b37f2078E+0x118>
ffffffff80004087: eb 1e                	jmp	0xffffffff800040a7 <_ZN3qos2fb11Framebuffer5write17h9bcb3f37b37f2078E+0xf7>
ffffffff80004089: 48 8d 3d 40 d8 ff ff 	lea	rdi, [rip - 10176]      # 0xffffffff800018d0 <str.0>
ffffffff80004090: 48 8d 15 29 d2 00 00 	lea	rdx, [rip + 53801]      # 0xffffffff800112c0 <xr6aouzjkjmurg0+0xffffffff800112c0>
ffffffff80004097: 48 8b 05 42 e0 00 00 	mov	rax, qword ptr [rip + 57410] # 0xffffffff800120e0 <xr6aouzjkjmurg0+0xffffffff800120e0>
ffffffff8000409e: be 21 00 00 00       	mov	esi, 33
ffffffff800040a3: ff d0                	call	rax
ffffffff800040a5: 0f 0b                	ud2
ffffffff800040a7: 48 8b 8d 40 ff ff ff 	mov	rcx, qword ptr [rbp - 192]
ffffffff800040ae: 48 8b 85 50 ff ff ff 	mov	rax, qword ptr [rbp - 176]
ffffffff800040b5: 48 01 c8             	add	rax, rcx
ffffffff800040b8: 48 89 85 38 ff ff ff 	mov	qword ptr [rbp - 200], rax
ffffffff800040bf: 0f 92 c0             	setb	al
ffffffff800040c2: a8 01                	test	al, 1
ffffffff800040c4: 75 7c                	jne	0xffffffff80004142 <_ZN3qos2fb11Framebuffer5write17h9bcb3f37b37f2078E+0x192>
ffffffff800040c6: eb 1e                	jmp	0xffffffff800040e6 <_ZN3qos2fb11Framebuffer5write17h9bcb3f37b37f2078E+0x136>
ffffffff800040c8: 48 8d 3d 01 d8 ff ff 	lea	rdi, [rip - 10239]      # 0xffffffff800018d0 <str.0>
ffffffff800040cf: 48 8d 15 02 d2 00 00 	lea	rdx, [rip + 53762]      # 0xffffffff800112d8 <xr6aouzjkjmurg0+0xffffffff800112d8>
ffffffff800040d6: 48 8b 05 03 e0 00 00 	mov	rax, qword ptr [rip + 57347] # 0xffffffff800120e0 <xr6aouzjkjmurg0+0xffffffff800120e0>
ffffffff800040dd: be 21 00 00 00       	mov	esi, 33
ffffffff800040e2: ff d0                	call	rax
ffffffff800040e4: 0f 0b                	ud2
ffffffff800040e6: 48 8b b5 48 ff ff ff 	mov	rsi, qword ptr [rbp - 184]
ffffffff800040ed: 48 8b 8d 38 ff ff ff 	mov	rcx, qword ptr [rbp - 200]
ffffffff800040f4: 48 89 75 c0          	mov	qword ptr [rbp - 64], rsi
ffffffff800040f8: 48 89 4d c8          	mov	qword ptr [rbp - 56], rcx
ffffffff800040fc: 48 89 75 d0          	mov	qword ptr [rbp - 48], rsi
ffffffff80004100: 48 89 75 d8          	mov	qword ptr [rbp - 40], rsi
ffffffff80004104: 48 89 4d e0          	mov	qword ptr [rbp - 32], rcx
ffffffff80004108: 48 89 75 e8          	mov	qword ptr [rbp - 24], rsi
ffffffff8000410c: 48 89 4d f0          	mov	qword ptr [rbp - 16], rcx
ffffffff80004110: 48 89 f0             	mov	rax, rsi
ffffffff80004113: 48 01 c8             	add	rax, rcx
ffffffff80004116: 48 89 45 f8          	mov	qword ptr [rbp - 8], rax
ffffffff8000411a: 48 8b 7d f8          	mov	rdi, qword ptr [rbp - 8]
ffffffff8000411e: e8 5d 56 00 00       	call	0xffffffff80009780 <_ZN4core3ptr7mut_ptr31_$LT$impl$u20$$BP$mut$u20$T$GT$16with_metadata_of17h6a119271fff58cf2E>
ffffffff80004123: 8b 8d 5c ff ff ff    	mov	ecx, dword ptr [rbp - 164]
ffffffff80004129: 48 89 45 a0          	mov	qword ptr [rbp - 96], rax
ffffffff8000412d: 89 4d ac             	mov	dword ptr [rbp - 84], ecx
ffffffff80004130: 48 89 45 b0          	mov	qword ptr [rbp - 80], rax
ffffffff80004134: 89 4d bc             	mov	dword ptr [rbp - 68], ecx
ffffffff80004137: 89 08                	mov	dword ptr [rax], ecx
ffffffff80004139: 48 81 c4 d0 00 00 00 	add	rsp, 208
ffffffff80004140: 5d                   	pop	rbp
ffffffff80004141: c3                   	ret
ffffffff80004142: 48 8d 3d b7 d7 ff ff 	lea	rdi, [rip - 10313]      # 0xffffffff80001900 <str.1>
ffffffff80004149: 48 8d 15 70 d1 00 00 	lea	rdx, [rip + 53616]      # 0xffffffff800112c0 <xr6aouzjkjmurg0+0xffffffff800112c0>
ffffffff80004150: 48 8b 05 89 df 00 00 	mov	rax, qword ptr [rip + 57225] # 0xffffffff800120e0 <xr6aouzjkjmurg0+0xffffffff800120e0>
ffffffff80004157: be 1c 00 00 00       	mov	esi, 28
ffffffff8000415c: ff d0                	call	rax
ffffffff8000415e: 0f 0b                	ud2

ffffffff80004160 <_ZN3qos2fb6Writer3new17h94960ffdc90487c4E>:
ffffffff80004160: 55                   	push	rbp
ffffffff80004161: 48 89 e5             	mov	rbp, rsp
ffffffff80004164: 48 83 ec 48          	sub	rsp, 72
ffffffff80004168: 48 89 f8             	mov	rax, rdi
ffffffff8000416b: 48 8b 4e 20          	mov	rcx, qword ptr [rsi + 32]
ffffffff8000416f: 48 89 4d d8          	mov	qword ptr [rbp - 40], rcx
ffffffff80004173: 48 8b 4e 18          	mov	rcx, qword ptr [rsi + 24]
ffffffff80004177: 48 89 4d d0          	mov	qword ptr [rbp - 48], rcx
ffffffff8000417b: 48 8b 4e 10          	mov	rcx, qword ptr [rsi + 16]
ffffffff8000417f: 48 89 4d c8          	mov	qword ptr [rbp - 56], rcx
ffffffff80004183: 48 8b 0e             	mov	rcx, qword ptr [rsi]
ffffffff80004186: 48 8b 76 08          	mov	rsi, qword ptr [rsi + 8]
ffffffff8000418a: 48 89 75 c0          	mov	qword ptr [rbp - 64], rsi
ffffffff8000418e: 48 89 4d b8          	mov	qword ptr [rbp - 72], rcx
ffffffff80004192: 48 8b 0a             	mov	rcx, qword ptr [rdx]
ffffffff80004195: 48 89 4d e0          	mov	qword ptr [rbp - 32], rcx
ffffffff80004199: 48 8b 4a 08          	mov	rcx, qword ptr [rdx + 8]
ffffffff8000419d: 48 89 4d e8          	mov	qword ptr [rbp - 24], rcx
ffffffff800041a1: 48 8b 4a 10          	mov	rcx, qword ptr [rdx + 16]
ffffffff800041a5: 48 89 4d f0          	mov	qword ptr [rbp - 16], rcx
ffffffff800041a9: 48 8b 4a 18          	mov	rcx, qword ptr [rdx + 24]
ffffffff800041ad: 48 89 4d f8          	mov	qword ptr [rbp - 8], rcx
ffffffff800041b1: 48 89 f9             	mov	rcx, rdi
ffffffff800041b4: 48 83 c1 20          	add	rcx, 32
ffffffff800041b8: 48 8b 55 d8          	mov	rdx, qword ptr [rbp - 40]
ffffffff800041bc: 48 89 51 20          	mov	qword ptr [rcx + 32], rdx
ffffffff800041c0: 48 8b 55 d0          	mov	rdx, qword ptr [rbp - 48]
ffffffff800041c4: 48 89 51 18          	mov	qword ptr [rcx + 24], rdx
ffffffff800041c8: 48 8b 55 c8          	mov	rdx, qword ptr [rbp - 56]
ffffffff800041cc: 48 89 51 10          	mov	qword ptr [rcx + 16], rdx
ffffffff800041d0: 48 8b 55 b8          	mov	rdx, qword ptr [rbp - 72]
ffffffff800041d4: 48 8b 75 c0          	mov	rsi, qword ptr [rbp - 64]
ffffffff800041d8: 48 89 71 08          	mov	qword ptr [rcx + 8], rsi
ffffffff800041dc: 48 89 11             	mov	qword ptr [rcx], rdx
ffffffff800041df: 48 8b 4d e0          	mov	rcx, qword ptr [rbp - 32]
ffffffff800041e3: 48 89 0f             	mov	qword ptr [rdi], rcx
ffffffff800041e6: 48 8b 4d e8          	mov	rcx, qword ptr [rbp - 24]
ffffffff800041ea: 48 89 4f 08          	mov	qword ptr [rdi + 8], rcx
ffffffff800041ee: 48 8b 4d f0          	mov	rcx, qword ptr [rbp - 16]
ffffffff800041f2: 48 89 4f 10          	mov	qword ptr [rdi + 16], rcx
ffffffff800041f6: 48 8b 4d f8          	mov	rcx, qword ptr [rbp - 8]
ffffffff800041fa: 48 89 4f 18          	mov	qword ptr [rdi + 24], rcx
ffffffff800041fe: 48 c7 47 48 00 00 00 00      	mov	qword ptr [rdi + 72], 0
ffffffff80004206: 48 c7 47 50 00 00 00 00      	mov	qword ptr [rdi + 80], 0
ffffffff8000420e: c7 47 58 00 ff 00 00 	mov	dword ptr [rdi + 88], 65280
ffffffff80004215: c7 47 5c 00 00 00 00 	mov	dword ptr [rdi + 92], 0
ffffffff8000421c: 48 83 c4 48          	add	rsp, 72
ffffffff80004220: 5d                   	pop	rbp
ffffffff80004221: c3                   	ret
ffffffff80004222: cc                   	int3
ffffffff80004223: cc                   	int3
ffffffff80004224: cc                   	int3
ffffffff80004225: cc                   	int3
ffffffff80004226: cc                   	int3
ffffffff80004227: cc                   	int3
ffffffff80004228: cc                   	int3
ffffffff80004229: cc                   	int3
ffffffff8000422a: cc                   	int3
ffffffff8000422b: cc                   	int3
ffffffff8000422c: cc                   	int3
ffffffff8000422d: cc                   	int3
ffffffff8000422e: cc                   	int3
ffffffff8000422f: cc                   	int3

ffffffff80004230 <_ZN52_$LT$qos..fb..Writer$u20$as$u20$core..fmt..Write$GT$9write_str17h8d801ecc03643facE>:
ffffffff80004230: 55                   	push	rbp
ffffffff80004231: 48 89 e5             	mov	rbp, rsp
ffffffff80004234: 48 81 ec 60 02 00 00 	sub	rsp, 608
ffffffff8000423b: 48 89 95 50 fe ff ff 	mov	qword ptr [rbp - 432], rdx
ffffffff80004242: 48 89 b5 58 fe ff ff 	mov	qword ptr [rbp - 424], rsi
ffffffff80004249: 48 89 bd 60 fe ff ff 	mov	qword ptr [rbp - 416], rdi
ffffffff80004250: 48 89 bd 30 ff ff ff 	mov	qword ptr [rbp - 208], rdi
ffffffff80004257: 48 89 b5 38 ff ff ff 	mov	qword ptr [rbp - 200], rsi
ffffffff8000425e: 48 89 95 40 ff ff ff 	mov	qword ptr [rbp - 192], rdx
ffffffff80004265: 48 8b 47 50          	mov	rax, qword ptr [rdi + 80]
ffffffff80004269: 8b 4f 18             	mov	ecx, dword ptr [rdi + 24]
ffffffff8000426c: 48 f7 e1             	mul	rcx
ffffffff8000426f: 48 89 85 68 fe ff ff 	mov	qword ptr [rbp - 408], rax
ffffffff80004276: 0f 90 c0             	seto	al
ffffffff80004279: a8 01                	test	al, 1
ffffffff8000427b: 75 16                	jne	0xffffffff80004293 <_ZN52_$LT$qos..fb..Writer$u20$as$u20$core..fmt..Write$GT$9write_str17h8d801ecc03643facE+0x63>
ffffffff8000427d: 48 8b 85 68 fe ff ff 	mov	rax, qword ptr [rbp - 408]
ffffffff80004284: 48 8b 8d 60 fe ff ff 	mov	rcx, qword ptr [rbp - 416]
ffffffff8000428b: 48 3b 41 20          	cmp	rax, qword ptr [rcx + 32]
ffffffff8000428f: 73 41                	jae	0xffffffff800042d2 <_ZN52_$LT$qos..fb..Writer$u20$as$u20$core..fmt..Write$GT$9write_str17h8d801ecc03643facE+0xa2>
ffffffff80004291: eb 1e                	jmp	0xffffffff800042b1 <_ZN52_$LT$qos..fb..Writer$u20$as$u20$core..fmt..Write$GT$9write_str17h8d801ecc03643facE+0x81>
ffffffff80004293: 48 8d 3d 36 d6 ff ff 	lea	rdi, [rip - 10698]      # 0xffffffff800018d0 <str.0>
ffffffff8000429a: 48 8d 15 4f d0 00 00 	lea	rdx, [rip + 53327]      # 0xffffffff800112f0 <xr6aouzjkjmurg0+0xffffffff800112f0>
ffffffff800042a1: 48 8b 05 38 de 00 00 	mov	rax, qword ptr [rip + 56888] # 0xffffffff800120e0 <xr6aouzjkjmurg0+0xffffffff800120e0>
ffffffff800042a8: be 21 00 00 00       	mov	esi, 33
ffffffff800042ad: ff d0                	call	rax
ffffffff800042af: 0f 0b                	ud2
ffffffff800042b1: 48 8b 8d 60 fe ff ff 	mov	rcx, qword ptr [rbp - 416]
ffffffff800042b8: 48 8b 41 48          	mov	rax, qword ptr [rcx + 72]
ffffffff800042bc: 8b 49 1c             	mov	ecx, dword ptr [rcx + 28]
ffffffff800042bf: 48 f7 e1             	mul	rcx
ffffffff800042c2: 48 89 85 48 fe ff ff 	mov	qword ptr [rbp - 440], rax
ffffffff800042c9: 0f 90 c0             	seto	al
ffffffff800042cc: a8 01                	test	al, 1
ffffffff800042ce: 75 73                	jne	0xffffffff80004343 <_ZN52_$LT$qos..fb..Writer$u20$as$u20$core..fmt..Write$GT$9write_str17h8d801ecc03643facE+0x113>
ffffffff800042d0: eb 57                	jmp	0xffffffff80004329 <_ZN52_$LT$qos..fb..Writer$u20$as$u20$core..fmt..Write$GT$9write_str17h8d801ecc03643facE+0xf9>
ffffffff800042d2: 48 8b 85 60 fe ff ff 	mov	rax, qword ptr [rbp - 416]
ffffffff800042d9: 48 8b 40 48          	mov	rax, qword ptr [rax + 72]
ffffffff800042dd: 48 83 c0 01          	add	rax, 1
ffffffff800042e1: 48 89 85 40 fe ff ff 	mov	qword ptr [rbp - 448], rax
ffffffff800042e8: 0f 92 c0             	setb	al
ffffffff800042eb: a8 01                	test	al, 1
ffffffff800042ed: 75 1c                	jne	0xffffffff8000430b <_ZN52_$LT$qos..fb..Writer$u20$as$u20$core..fmt..Write$GT$9write_str17h8d801ecc03643facE+0xdb>
ffffffff800042ef: 48 8b 85 60 fe ff ff 	mov	rax, qword ptr [rbp - 416]
ffffffff800042f6: 48 8b 8d 40 fe ff ff 	mov	rcx, qword ptr [rbp - 448]
ffffffff800042fd: 48 89 48 48          	mov	qword ptr [rax + 72], rcx
ffffffff80004301: 48 c7 40 50 00 00 00 00      	mov	qword ptr [rax + 80], 0
ffffffff80004309: eb a6                	jmp	0xffffffff800042b1 <_ZN52_$LT$qos..fb..Writer$u20$as$u20$core..fmt..Write$GT$9write_str17h8d801ecc03643facE+0x81>
ffffffff8000430b: 48 8d 3d ee d5 ff ff 	lea	rdi, [rip - 10770]      # 0xffffffff80001900 <str.1>
ffffffff80004312: 48 8d 15 ef cf 00 00 	lea	rdx, [rip + 53231]      # 0xffffffff80011308 <xr6aouzjkjmurg0+0xffffffff80011308>
ffffffff80004319: 48 8b 05 c0 dd 00 00 	mov	rax, qword ptr [rip + 56768] # 0xffffffff800120e0 <xr6aouzjkjmurg0+0xffffffff800120e0>
ffffffff80004320: be 1c 00 00 00       	mov	esi, 28
ffffffff80004325: ff d0                	call	rax
ffffffff80004327: 0f 0b                	ud2
ffffffff80004329: 48 8b 85 48 fe ff ff 	mov	rax, qword ptr [rbp - 440]
ffffffff80004330: 48 8b 8d 60 fe ff ff 	mov	rcx, qword ptr [rbp - 416]
ffffffff80004337: 48 3b 41 28          	cmp	rax, qword ptr [rcx + 40]
ffffffff8000433b: 0f 83 84 00 00 00    	jae	0xffffffff800043c5 <_ZN52_$LT$qos..fb..Writer$u20$as$u20$core..fmt..Write$GT$9write_str17h8d801ecc03643facE+0x195>
ffffffff80004341: eb 1e                	jmp	0xffffffff80004361 <_ZN52_$LT$qos..fb..Writer$u20$as$u20$core..fmt..Write$GT$9write_str17h8d801ecc03643facE+0x131>
ffffffff80004343: 48 8d 3d 86 d5 ff ff 	lea	rdi, [rip - 10874]      # 0xffffffff800018d0 <str.0>
ffffffff8000434a: 48 8d 15 cf cf 00 00 	lea	rdx, [rip + 53199]      # 0xffffffff80011320 <xr6aouzjkjmurg0+0xffffffff80011320>
ffffffff80004351: 48 8b 05 88 dd 00 00 	mov	rax, qword ptr [rip + 56712] # 0xffffffff800120e0 <xr6aouzjkjmurg0+0xffffffff800120e0>
ffffffff80004358: be 21 00 00 00       	mov	esi, 33
ffffffff8000435d: ff d0                	call	rax
ffffffff8000435f: 0f 0b                	ud2
ffffffff80004361: 48 8b b5 50 fe ff ff 	mov	rsi, qword ptr [rbp - 432]
ffffffff80004368: 48 8b bd 58 fe ff ff 	mov	rdi, qword ptr [rbp - 424]
ffffffff8000436f: 48 8b 8d 60 fe ff ff 	mov	rcx, qword ptr [rbp - 416]
ffffffff80004376: 48 8b 01             	mov	rax, qword ptr [rcx]
ffffffff80004379: 8b 49 08             	mov	ecx, dword ptr [rcx + 8]
ffffffff8000437c: 48 89 45 d8          	mov	qword ptr [rbp - 40], rax
ffffffff80004380: 48 89 4d e0          	mov	qword ptr [rbp - 32], rcx
ffffffff80004384: 48 89 45 e8          	mov	qword ptr [rbp - 24], rax
ffffffff80004388: 48 89 4d f0          	mov	qword ptr [rbp - 16], rcx
ffffffff8000438c: 48 01 c8             	add	rax, rcx
ffffffff8000438f: 48 89 45 f8          	mov	qword ptr [rbp - 8], rax
ffffffff80004393: 48 8b 45 f8          	mov	rax, qword ptr [rbp - 8]
ffffffff80004397: 48 89 85 38 fe ff ff 	mov	qword ptr [rbp - 456], rax
ffffffff8000439e: 48 89 85 58 ff ff ff 	mov	qword ptr [rbp - 168], rax
ffffffff800043a5: e8 46 2d 00 00       	call	0xffffffff800070f0 <_ZN4core3str21_$LT$impl$u20$str$GT$5chars17h45b963cf2db5ea1fE>
ffffffff800043aa: 48 89 c7             	mov	rdi, rax
ffffffff800043ad: 48 89 d6             	mov	rsi, rdx
ffffffff800043b0: e8 cb 0a 00 00       	call	0xffffffff80004e80 <_ZN63_$LT$I$u20$as$u20$core..iter..traits..collect..IntoIterator$GT$9into_iter17h934548e9cd758791E>
ffffffff800043b5: 48 89 85 78 fe ff ff 	mov	qword ptr [rbp - 392], rax
ffffffff800043bc: 48 89 95 80 fe ff ff 	mov	qword ptr [rbp - 384], rdx
ffffffff800043c3: eb 1b                	jmp	0xffffffff800043e0 <_ZN52_$LT$qos..fb..Writer$u20$as$u20$core..fmt..Write$GT$9write_str17h8d801ecc03643facE+0x1b0>
ffffffff800043c5: c6 85 77 fe ff ff 01 	mov	byte ptr [rbp - 393], 1
ffffffff800043cc: 8a 85 77 fe ff ff    	mov	al, byte ptr [rbp - 393]
ffffffff800043d2: 24 01                	and	al, 1
ffffffff800043d4: 0f b6 c0             	movzx	eax, al
ffffffff800043d7: 48 81 c4 60 02 00 00 	add	rsp, 608
ffffffff800043de: 5d                   	pop	rbp
ffffffff800043df: c3                   	ret
ffffffff800043e0: 48 8d bd 78 fe ff ff 	lea	rdi, [rbp - 392]
ffffffff800043e7: e8 14 63 00 00       	call	0xffffffff8000a700 <_ZN81_$LT$core..str..iter..Chars$u20$as$u20$core..iter..traits..iterator..Iterator$GT$4next17hcab79c1030c3d7feE>
ffffffff800043ec: 89 85 8c fe ff ff    	mov	dword ptr [rbp - 372], eax
ffffffff800043f2: b8 01 00 00 00       	mov	eax, 1
ffffffff800043f7: 31 c9                	xor	ecx, ecx
ffffffff800043f9: 81 bd 8c fe ff ff 00 00 11 00	cmp	dword ptr [rbp - 372], 1114112
ffffffff80004403: 48 0f 44 c1          	cmove	rax, rcx
ffffffff80004407: 48 83 f8 00          	cmp	rax, 0
ffffffff8000440b: 75 09                	jne	0xffffffff80004416 <_ZN52_$LT$qos..fb..Writer$u20$as$u20$core..fmt..Write$GT$9write_str17h8d801ecc03643facE+0x1e6>
ffffffff8000440d: c6 85 77 fe ff ff 00 	mov	byte ptr [rbp - 393], 0
ffffffff80004414: eb b6                	jmp	0xffffffff800043cc <_ZN52_$LT$qos..fb..Writer$u20$as$u20$core..fmt..Write$GT$9write_str17h8d801ecc03643facE+0x19c>
ffffffff80004416: 8b 85 8c fe ff ff    	mov	eax, dword ptr [rbp - 372]
ffffffff8000441c: 89 85 34 fe ff ff    	mov	dword ptr [rbp - 460], eax
ffffffff80004422: 89 85 64 ff ff ff    	mov	dword ptr [rbp - 156], eax
ffffffff80004428: 83 f8 0a             	cmp	eax, 10
ffffffff8000442b: 75 26                	jne	0xffffffff80004453 <_ZN52_$LT$qos..fb..Writer$u20$as$u20$core..fmt..Write$GT$9write_str17h8d801ecc03643facE+0x223>
ffffffff8000442d: 48 8b 85 60 fe ff ff 	mov	rax, qword ptr [rbp - 416]
ffffffff80004434: 48 8b 40 48          	mov	rax, qword ptr [rax + 72]
ffffffff80004438: 48 83 c0 01          	add	rax, 1
ffffffff8000443c: 48 89 85 28 fe ff ff 	mov	qword ptr [rbp - 472], rax
ffffffff80004443: 0f 92 c0             	setb	al
ffffffff80004446: a8 01                	test	al, 1
ffffffff80004448: 0f 85 25 06 00 00    	jne	0xffffffff80004a73 <_ZN52_$LT$qos..fb..Writer$u20$as$u20$core..fmt..Write$GT$9write_str17h8d801ecc03643facE+0x843>
ffffffff8000444e: e9 01 06 00 00       	jmp	0xffffffff80004a54 <_ZN52_$LT$qos..fb..Writer$u20$as$u20$core..fmt..Write$GT$9write_str17h8d801ecc03643facE+0x824>
ffffffff80004453: 8b 85 34 fe ff ff    	mov	eax, dword ptr [rbp - 460]
ffffffff80004459: 83 f8 09             	cmp	eax, 9
ffffffff8000445c: 75 36                	jne	0xffffffff80004494 <_ZN52_$LT$qos..fb..Writer$u20$as$u20$core..fmt..Write$GT$9write_str17h8d801ecc03643facE+0x264>
ffffffff8000445e: 48 8b 85 60 fe ff ff 	mov	rax, qword ptr [rbp - 416]
ffffffff80004465: 48 8b 48 50          	mov	rcx, qword ptr [rax + 80]
ffffffff80004469: 48 83 e1 03          	and	rcx, 3
ffffffff8000446d: b8 04 00 00 00       	mov	eax, 4
ffffffff80004472: 48 29 c8             	sub	rax, rcx
ffffffff80004475: 48 89 85 20 fe ff ff 	mov	qword ptr [rbp - 480], rax
ffffffff8000447c: b8 04 00 00 00       	mov	eax, 4
ffffffff80004481: 48 39 c8             	cmp	rax, rcx
ffffffff80004484: 0f 92 c0             	setb	al
ffffffff80004487: a8 01                	test	al, 1
ffffffff80004489: 0f 85 29 05 00 00    	jne	0xffffffff800049b8 <_ZN52_$LT$qos..fb..Writer$u20$as$u20$core..fmt..Write$GT$9write_str17h8d801ecc03643facE+0x788>
ffffffff8000448f: e9 e8 04 00 00       	jmp	0xffffffff8000497c <_ZN52_$LT$qos..fb..Writer$u20$as$u20$core..fmt..Write$GT$9write_str17h8d801ecc03643facE+0x74c>
ffffffff80004494: 48 8b 8d 60 fe ff ff 	mov	rcx, qword ptr [rbp - 416]
ffffffff8000449b: 48 8b 41 50          	mov	rax, qword ptr [rcx + 80]
ffffffff8000449f: 8b 49 18             	mov	ecx, dword ptr [rcx + 24]
ffffffff800044a2: 48 f7 e1             	mul	rcx
ffffffff800044a5: 48 89 85 18 fe ff ff 	mov	qword ptr [rbp - 488], rax
ffffffff800044ac: 0f 90 c0             	seto	al
ffffffff800044af: a8 01                	test	al, 1
ffffffff800044b1: 75 16                	jne	0xffffffff800044c9 <_ZN52_$LT$qos..fb..Writer$u20$as$u20$core..fmt..Write$GT$9write_str17h8d801ecc03643facE+0x299>
ffffffff800044b3: 48 8b 85 18 fe ff ff 	mov	rax, qword ptr [rbp - 488]
ffffffff800044ba: 48 8b 8d 60 fe ff ff 	mov	rcx, qword ptr [rbp - 416]
ffffffff800044c1: 48 3b 41 20          	cmp	rax, qword ptr [rcx + 32]
ffffffff800044c5: 73 41                	jae	0xffffffff80004508 <_ZN52_$LT$qos..fb..Writer$u20$as$u20$core..fmt..Write$GT$9write_str17h8d801ecc03643facE+0x2d8>
ffffffff800044c7: eb 1e                	jmp	0xffffffff800044e7 <_ZN52_$LT$qos..fb..Writer$u20$as$u20$core..fmt..Write$GT$9write_str17h8d801ecc03643facE+0x2b7>
ffffffff800044c9: 48 8d 3d 00 d4 ff ff 	lea	rdi, [rip - 11264]      # 0xffffffff800018d0 <str.0>
ffffffff800044d0: 48 8d 15 61 ce 00 00 	lea	rdx, [rip + 52833]      # 0xffffffff80011338 <xr6aouzjkjmurg0+0xffffffff80011338>
ffffffff800044d7: 48 8b 05 02 dc 00 00 	mov	rax, qword ptr [rip + 56322] # 0xffffffff800120e0 <xr6aouzjkjmurg0+0xffffffff800120e0>
ffffffff800044de: be 21 00 00 00       	mov	esi, 33
ffffffff800044e3: ff d0                	call	rax
ffffffff800044e5: 0f 0b                	ud2
ffffffff800044e7: 48 8b 8d 60 fe ff ff 	mov	rcx, qword ptr [rbp - 416]
ffffffff800044ee: 48 8b 41 48          	mov	rax, qword ptr [rcx + 72]
ffffffff800044f2: 8b 49 1c             	mov	ecx, dword ptr [rcx + 28]
ffffffff800044f5: 48 f7 e1             	mul	rcx
ffffffff800044f8: 48 89 85 10 fe ff ff 	mov	qword ptr [rbp - 496], rax
ffffffff800044ff: 0f 90 c0             	seto	al
ffffffff80004502: a8 01                	test	al, 1
ffffffff80004504: 75 6f                	jne	0xffffffff80004575 <_ZN52_$LT$qos..fb..Writer$u20$as$u20$core..fmt..Write$GT$9write_str17h8d801ecc03643facE+0x345>
ffffffff80004506: eb 57                	jmp	0xffffffff8000455f <_ZN52_$LT$qos..fb..Writer$u20$as$u20$core..fmt..Write$GT$9write_str17h8d801ecc03643facE+0x32f>
ffffffff80004508: 48 8b 85 60 fe ff ff 	mov	rax, qword ptr [rbp - 416]
ffffffff8000450f: 48 8b 40 48          	mov	rax, qword ptr [rax + 72]
ffffffff80004513: 48 83 c0 01          	add	rax, 1
ffffffff80004517: 48 89 85 08 fe ff ff 	mov	qword ptr [rbp - 504], rax
ffffffff8000451e: 0f 92 c0             	setb	al
ffffffff80004521: a8 01                	test	al, 1
ffffffff80004523: 75 1c                	jne	0xffffffff80004541 <_ZN52_$LT$qos..fb..Writer$u20$as$u20$core..fmt..Write$GT$9write_str17h8d801ecc03643facE+0x311>
ffffffff80004525: 48 8b 85 60 fe ff ff 	mov	rax, qword ptr [rbp - 416]
ffffffff8000452c: 48 8b 8d 08 fe ff ff 	mov	rcx, qword ptr [rbp - 504]
ffffffff80004533: 48 89 48 48          	mov	qword ptr [rax + 72], rcx
ffffffff80004537: 48 c7 40 50 00 00 00 00      	mov	qword ptr [rax + 80], 0
ffffffff8000453f: eb a6                	jmp	0xffffffff800044e7 <_ZN52_$LT$qos..fb..Writer$u20$as$u20$core..fmt..Write$GT$9write_str17h8d801ecc03643facE+0x2b7>
ffffffff80004541: 48 8d 3d b8 d3 ff ff 	lea	rdi, [rip - 11336]      # 0xffffffff80001900 <str.1>
ffffffff80004548: 48 8d 15 01 ce 00 00 	lea	rdx, [rip + 52737]      # 0xffffffff80011350 <xr6aouzjkjmurg0+0xffffffff80011350>
ffffffff8000454f: 48 8b 05 8a db 00 00 	mov	rax, qword ptr [rip + 56202] # 0xffffffff800120e0 <xr6aouzjkjmurg0+0xffffffff800120e0>
ffffffff80004556: be 1c 00 00 00       	mov	esi, 28
ffffffff8000455b: ff d0                	call	rax
ffffffff8000455d: 0f 0b                	ud2
ffffffff8000455f: 48 8b 85 10 fe ff ff 	mov	rax, qword ptr [rbp - 496]
ffffffff80004566: 48 8b 8d 60 fe ff ff 	mov	rcx, qword ptr [rbp - 416]
ffffffff8000456d: 48 3b 41 28          	cmp	rax, qword ptr [rcx + 40]
ffffffff80004571: 73 49                	jae	0xffffffff800045bc <_ZN52_$LT$qos..fb..Writer$u20$as$u20$core..fmt..Write$GT$9write_str17h8d801ecc03643facE+0x38c>
ffffffff80004573: eb 1e                	jmp	0xffffffff80004593 <_ZN52_$LT$qos..fb..Writer$u20$as$u20$core..fmt..Write$GT$9write_str17h8d801ecc03643facE+0x363>
ffffffff80004575: 48 8d 3d 54 d3 ff ff 	lea	rdi, [rip - 11436]      # 0xffffffff800018d0 <str.0>
ffffffff8000457c: 48 8d 15 e5 cd 00 00 	lea	rdx, [rip + 52709]      # 0xffffffff80011368 <xr6aouzjkjmurg0+0xffffffff80011368>
ffffffff80004583: 48 8b 05 56 db 00 00 	mov	rax, qword ptr [rip + 56150] # 0xffffffff800120e0 <xr6aouzjkjmurg0+0xffffffff800120e0>
ffffffff8000458a: be 21 00 00 00       	mov	esi, 33
ffffffff8000458f: ff d0                	call	rax
ffffffff80004591: 0f 0b                	ud2
ffffffff80004593: 48 8b 8d 60 fe ff ff 	mov	rcx, qword ptr [rbp - 416]
ffffffff8000459a: 8b 85 34 fe ff ff    	mov	eax, dword ptr [rbp - 460]
ffffffff800045a0: 89 c0                	mov	eax, eax
ffffffff800045a2: 8b 49 14             	mov	ecx, dword ptr [rcx + 20]
ffffffff800045a5: 48 f7 e1             	mul	rcx
ffffffff800045a8: 48 89 85 00 fe ff ff 	mov	qword ptr [rbp - 512], rax
ffffffff800045af: 0f 90 c0             	seto	al
ffffffff800045b2: a8 01                	test	al, 1
ffffffff800045b4: 0f 85 84 00 00 00    	jne	0xffffffff8000463e <_ZN52_$LT$qos..fb..Writer$u20$as$u20$core..fmt..Write$GT$9write_str17h8d801ecc03643facE+0x40e>
ffffffff800045ba: eb 0c                	jmp	0xffffffff800045c8 <_ZN52_$LT$qos..fb..Writer$u20$as$u20$core..fmt..Write$GT$9write_str17h8d801ecc03643facE+0x398>
ffffffff800045bc: c6 85 77 fe ff ff 01 	mov	byte ptr [rbp - 393], 1
ffffffff800045c3: e9 04 fe ff ff       	jmp	0xffffffff800043cc <_ZN52_$LT$qos..fb..Writer$u20$as$u20$core..fmt..Write$GT$9write_str17h8d801ecc03643facE+0x19c>
ffffffff800045c8: 48 8b 85 60 fe ff ff 	mov	rax, qword ptr [rbp - 416]
ffffffff800045cf: 48 8b 95 00 fe ff ff 	mov	rdx, qword ptr [rbp - 512]
ffffffff800045d6: 48 8b 8d 38 fe ff ff 	mov	rcx, qword ptr [rbp - 456]
ffffffff800045dd: 48 89 4d b0          	mov	qword ptr [rbp - 80], rcx
ffffffff800045e1: 48 89 55 b8          	mov	qword ptr [rbp - 72], rdx
ffffffff800045e5: 48 89 4d c0          	mov	qword ptr [rbp - 64], rcx
ffffffff800045e9: 48 89 55 c8          	mov	qword ptr [rbp - 56], rdx
ffffffff800045ed: 48 01 d1             	add	rcx, rdx
ffffffff800045f0: 48 89 4d d0          	mov	qword ptr [rbp - 48], rcx
ffffffff800045f4: 48 8b 4d d0          	mov	rcx, qword ptr [rbp - 48]
ffffffff800045f8: 48 89 8d f8 fd ff ff 	mov	qword ptr [rbp - 520], rcx
ffffffff800045ff: 48 89 8d 68 ff ff ff 	mov	qword ptr [rbp - 152], rcx
ffffffff80004606: 8b 40 1c             	mov	eax, dword ptr [rax + 28]
ffffffff80004609: 48 c7 85 c8 fe ff ff 00 00 00 00     	mov	qword ptr [rbp - 312], 0
ffffffff80004614: 48 89 85 d0 fe ff ff 	mov	qword ptr [rbp - 304], rax
ffffffff8000461b: 48 8b bd c8 fe ff ff 	mov	rdi, qword ptr [rbp - 312]
ffffffff80004622: 48 8b b5 d0 fe ff ff 	mov	rsi, qword ptr [rbp - 304]
ffffffff80004629: e8 52 5f 00 00       	call	0xffffffff8000a580 <_ZN63_$LT$I$u20$as$u20$core..iter..traits..collect..IntoIterator$GT$9into_iter17h1a92386f5c2a06d2E>
ffffffff8000462e: 48 89 85 d8 fe ff ff 	mov	qword ptr [rbp - 296], rax
ffffffff80004635: 48 89 95 e0 fe ff ff 	mov	qword ptr [rbp - 288], rdx
ffffffff8000463c: eb 1e                	jmp	0xffffffff8000465c <_ZN52_$LT$qos..fb..Writer$u20$as$u20$core..fmt..Write$GT$9write_str17h8d801ecc03643facE+0x42c>
ffffffff8000463e: 48 8d 3d 8b d2 ff ff 	lea	rdi, [rip - 11637]      # 0xffffffff800018d0 <str.0>
ffffffff80004645: 48 8d 15 34 cd 00 00 	lea	rdx, [rip + 52532]      # 0xffffffff80011380 <xr6aouzjkjmurg0+0xffffffff80011380>
ffffffff8000464c: 48 8b 05 8d da 00 00 	mov	rax, qword ptr [rip + 55949] # 0xffffffff800120e0 <xr6aouzjkjmurg0+0xffffffff800120e0>
ffffffff80004653: be 21 00 00 00       	mov	esi, 33
ffffffff80004658: ff d0                	call	rax
ffffffff8000465a: 0f 0b                	ud2
ffffffff8000465c: 48 8d bd d8 fe ff ff 	lea	rdi, [rbp - 296]
ffffffff80004663: e8 f8 5e 00 00       	call	0xffffffff8000a560 <_ZN4core4iter5range101_$LT$impl$u20$core..iter..traits..iterator..Iterator$u20$for$u20$core..ops..range..Range$LT$A$GT$$GT$4next17ha48bff387f27bd7eE>
ffffffff80004668: 48 89 95 f0 fe ff ff 	mov	qword ptr [rbp - 272], rdx
ffffffff8000466f: 48 89 85 e8 fe ff ff 	mov	qword ptr [rbp - 280], rax
ffffffff80004676: 48 83 bd e8 fe ff ff 00      	cmp	qword ptr [rbp - 280], 0
ffffffff8000467e: 75 26                	jne	0xffffffff800046a6 <_ZN52_$LT$qos..fb..Writer$u20$as$u20$core..fmt..Write$GT$9write_str17h8d801ecc03643facE+0x476>
ffffffff80004680: 48 8b 85 60 fe ff ff 	mov	rax, qword ptr [rbp - 416]
ffffffff80004687: 48 8b 40 50          	mov	rax, qword ptr [rax + 80]
ffffffff8000468b: 48 83 c0 01          	add	rax, 1
ffffffff8000468f: 48 89 85 f0 fd ff ff 	mov	qword ptr [rbp - 528], rax
ffffffff80004696: 0f 92 c0             	setb	al
ffffffff80004699: a8 01                	test	al, 1
ffffffff8000469b: 0f 85 bd 02 00 00    	jne	0xffffffff8000495e <_ZN52_$LT$qos..fb..Writer$u20$as$u20$core..fmt..Write$GT$9write_str17h8d801ecc03643facE+0x72e>
ffffffff800046a1: e9 a1 02 00 00       	jmp	0xffffffff80004947 <_ZN52_$LT$qos..fb..Writer$u20$as$u20$core..fmt..Write$GT$9write_str17h8d801ecc03643facE+0x717>
ffffffff800046a6: 48 8b 85 60 fe ff ff 	mov	rax, qword ptr [rbp - 416]
ffffffff800046ad: 48 8b 8d f8 fd ff ff 	mov	rcx, qword ptr [rbp - 520]
ffffffff800046b4: 48 8b 95 f0 fe ff ff 	mov	rdx, qword ptr [rbp - 272]
ffffffff800046bb: 48 89 95 e0 fd ff ff 	mov	qword ptr [rbp - 544], rdx
ffffffff800046c2: 48 89 95 70 ff ff ff 	mov	qword ptr [rbp - 144], rdx
ffffffff800046c9: 48 89 4d 88          	mov	qword ptr [rbp - 120], rcx
ffffffff800046cd: 48 89 55 90          	mov	qword ptr [rbp - 112], rdx
ffffffff800046d1: 48 89 4d 98          	mov	qword ptr [rbp - 104], rcx
ffffffff800046d5: 48 89 55 a0          	mov	qword ptr [rbp - 96], rdx
ffffffff800046d9: 48 01 d1             	add	rcx, rdx
ffffffff800046dc: 48 89 4d a8          	mov	qword ptr [rbp - 88], rcx
ffffffff800046e0: 48 8b 4d a8          	mov	rcx, qword ptr [rbp - 88]
ffffffff800046e4: 8a 09                	mov	cl, byte ptr [rcx]
ffffffff800046e6: 88 8d ef fd ff ff    	mov	byte ptr [rbp - 529], cl
ffffffff800046ec: 88 8d 7f ff ff ff    	mov	byte ptr [rbp - 129], cl
ffffffff800046f2: 8b 40 18             	mov	eax, dword ptr [rax + 24]
ffffffff800046f5: 48 c7 85 f8 fe ff ff 00 00 00 00     	mov	qword ptr [rbp - 264], 0
ffffffff80004700: 48 89 85 00 ff ff ff 	mov	qword ptr [rbp - 256], rax
ffffffff80004707: 48 8b bd f8 fe ff ff 	mov	rdi, qword ptr [rbp - 264]
ffffffff8000470e: 48 8b b5 00 ff ff ff 	mov	rsi, qword ptr [rbp - 256]
ffffffff80004715: e8 66 5e 00 00       	call	0xffffffff8000a580 <_ZN63_$LT$I$u20$as$u20$core..iter..traits..collect..IntoIterator$GT$9into_iter17h1a92386f5c2a06d2E>
ffffffff8000471a: 48 89 85 08 ff ff ff 	mov	qword ptr [rbp - 248], rax
ffffffff80004721: 48 89 95 10 ff ff ff 	mov	qword ptr [rbp - 240], rdx
ffffffff80004728: 48 8d bd 08 ff ff ff 	lea	rdi, [rbp - 248]
ffffffff8000472f: e8 2c 5e 00 00       	call	0xffffffff8000a560 <_ZN4core4iter5range101_$LT$impl$u20$core..iter..traits..iterator..Iterator$u20$for$u20$core..ops..range..Range$LT$A$GT$$GT$4next17ha48bff387f27bd7eE>
ffffffff80004734: 48 89 95 20 ff ff ff 	mov	qword ptr [rbp - 224], rdx
ffffffff8000473b: 48 89 85 18 ff ff ff 	mov	qword ptr [rbp - 232], rax
ffffffff80004742: 48 83 bd 18 ff ff ff 00      	cmp	qword ptr [rbp - 232], 0
ffffffff8000474a: 0f 84 0c ff ff ff    	je	0xffffffff8000465c <_ZN52_$LT$qos..fb..Writer$u20$as$u20$core..fmt..Write$GT$9write_str17h8d801ecc03643facE+0x42c>
ffffffff80004750: 48 8b 8d 20 ff ff ff 	mov	rcx, qword ptr [rbp - 224]
ffffffff80004757: 48 89 8d d0 fd ff ff 	mov	qword ptr [rbp - 560], rcx
ffffffff8000475e: 48 89 4d 80          	mov	qword ptr [rbp - 128], rcx
ffffffff80004762: b8 07 00 00 00       	mov	eax, 7
ffffffff80004767: 48 29 c8             	sub	rax, rcx
ffffffff8000476a: 48 89 85 d8 fd ff ff 	mov	qword ptr [rbp - 552], rax
ffffffff80004771: b8 07 00 00 00       	mov	eax, 7
ffffffff80004776: 48 39 c8             	cmp	rax, rcx
ffffffff80004779: 0f 92 c0             	setb	al
ffffffff8000477c: a8 01                	test	al, 1
ffffffff8000477e: 75 28                	jne	0xffffffff800047a8 <_ZN52_$LT$qos..fb..Writer$u20$as$u20$core..fmt..Write$GT$9write_str17h8d801ecc03643facE+0x578>
ffffffff80004780: 48 8b 8d d8 fd ff ff 	mov	rcx, qword ptr [rbp - 552]
ffffffff80004787: 48 89 c8             	mov	rax, rcx
ffffffff8000478a: 48 83 e0 f8          	and	rax, -8
ffffffff8000478e: 48 83 f8 00          	cmp	rax, 0
ffffffff80004792: 0f 95 c0             	setne	al
ffffffff80004795: 80 e1 07             	and	cl, 7
ffffffff80004798: b2 01                	mov	dl, 1
ffffffff8000479a: d2 e2                	shl	dl, cl
ffffffff8000479c: 88 95 cf fd ff ff    	mov	byte ptr [rbp - 561], dl
ffffffff800047a2: a8 01                	test	al, 1
ffffffff800047a4: 75 34                	jne	0xffffffff800047da <_ZN52_$LT$qos..fb..Writer$u20$as$u20$core..fmt..Write$GT$9write_str17h8d801ecc03643facE+0x5aa>
ffffffff800047a6: eb 1e                	jmp	0xffffffff800047c6 <_ZN52_$LT$qos..fb..Writer$u20$as$u20$core..fmt..Write$GT$9write_str17h8d801ecc03643facE+0x596>
ffffffff800047a8: 48 8d 3d 71 d1 ff ff 	lea	rdi, [rip - 11919]      # 0xffffffff80001920 <str.2>
ffffffff800047af: 48 8d 15 e2 cb 00 00 	lea	rdx, [rip + 52194]      # 0xffffffff80011398 <xr6aouzjkjmurg0+0xffffffff80011398>
ffffffff800047b6: 48 8b 05 23 d9 00 00 	mov	rax, qword ptr [rip + 55587] # 0xffffffff800120e0 <xr6aouzjkjmurg0+0xffffffff800120e0>
ffffffff800047bd: be 21 00 00 00       	mov	esi, 33
ffffffff800047c2: ff d0                	call	rax
ffffffff800047c4: 0f 0b                	ud2
ffffffff800047c6: 8a 8d cf fd ff ff    	mov	cl, byte ptr [rbp - 561]
ffffffff800047cc: 8a 85 ef fd ff ff    	mov	al, byte ptr [rbp - 529]
ffffffff800047d2: 20 c8                	and	al, cl
ffffffff800047d4: 3c 00                	cmp	al, 0
ffffffff800047d6: 77 32                	ja	0xffffffff8000480a <_ZN52_$LT$qos..fb..Writer$u20$as$u20$core..fmt..Write$GT$9write_str17h8d801ecc03643facE+0x5da>
ffffffff800047d8: eb 1e                	jmp	0xffffffff800047f8 <_ZN52_$LT$qos..fb..Writer$u20$as$u20$core..fmt..Write$GT$9write_str17h8d801ecc03643facE+0x5c8>
ffffffff800047da: 48 8d 3d 6f d1 ff ff 	lea	rdi, [rip - 11921]      # 0xffffffff80001950 <str.3>
ffffffff800047e1: 48 8d 15 c8 cb 00 00 	lea	rdx, [rip + 52168]      # 0xffffffff800113b0 <xr6aouzjkjmurg0+0xffffffff800113b0>
ffffffff800047e8: 48 8b 05 f1 d8 00 00 	mov	rax, qword ptr [rip + 55537] # 0xffffffff800120e0 <xr6aouzjkjmurg0+0xffffffff800120e0>
ffffffff800047ef: be 23 00 00 00       	mov	esi, 35
ffffffff800047f4: ff d0                	call	rax
ffffffff800047f6: 0f 0b                	ud2
ffffffff800047f8: 48 8b 85 60 fe ff ff 	mov	rax, qword ptr [rbp - 416]
ffffffff800047ff: 8b 40 5c             	mov	eax, dword ptr [rax + 92]
ffffffff80004802: 89 85 2c ff ff ff    	mov	dword ptr [rbp - 212], eax
ffffffff80004808: eb 10                	jmp	0xffffffff8000481a <_ZN52_$LT$qos..fb..Writer$u20$as$u20$core..fmt..Write$GT$9write_str17h8d801ecc03643facE+0x5ea>
ffffffff8000480a: 48 8b 85 60 fe ff ff 	mov	rax, qword ptr [rbp - 416]
ffffffff80004811: 8b 40 58             	mov	eax, dword ptr [rax + 88]
ffffffff80004814: 89 85 2c ff ff ff    	mov	dword ptr [rbp - 212], eax
ffffffff8000481a: 48 8b 8d 60 fe ff ff 	mov	rcx, qword ptr [rbp - 416]
ffffffff80004821: 48 89 c8             	mov	rax, rcx
ffffffff80004824: 48 83 c0 20          	add	rax, 32
ffffffff80004828: 48 89 85 b8 fd ff ff 	mov	qword ptr [rbp - 584], rax
ffffffff8000482f: 48 8b 41 50          	mov	rax, qword ptr [rcx + 80]
ffffffff80004833: 8b 49 18             	mov	ecx, dword ptr [rcx + 24]
ffffffff80004836: 48 f7 e1             	mul	rcx
ffffffff80004839: 48 89 85 c0 fd ff ff 	mov	qword ptr [rbp - 576], rax
ffffffff80004840: 0f 90 c0             	seto	al
ffffffff80004843: a8 01                	test	al, 1
ffffffff80004845: 75 21                	jne	0xffffffff80004868 <_ZN52_$LT$qos..fb..Writer$u20$as$u20$core..fmt..Write$GT$9write_str17h8d801ecc03643facE+0x638>
ffffffff80004847: 48 8b 8d d0 fd ff ff 	mov	rcx, qword ptr [rbp - 560]
ffffffff8000484e: 48 8b 85 c0 fd ff ff 	mov	rax, qword ptr [rbp - 576]
ffffffff80004855: 48 01 c8             	add	rax, rcx
ffffffff80004858: 48 89 85 b0 fd ff ff 	mov	qword ptr [rbp - 592], rax
ffffffff8000485f: 0f 92 c0             	setb	al
ffffffff80004862: a8 01                	test	al, 1
ffffffff80004864: 75 41                	jne	0xffffffff800048a7 <_ZN52_$LT$qos..fb..Writer$u20$as$u20$core..fmt..Write$GT$9write_str17h8d801ecc03643facE+0x677>
ffffffff80004866: eb 1e                	jmp	0xffffffff80004886 <_ZN52_$LT$qos..fb..Writer$u20$as$u20$core..fmt..Write$GT$9write_str17h8d801ecc03643facE+0x656>
ffffffff80004868: 48 8d 3d 61 d0 ff ff 	lea	rdi, [rip - 12191]      # 0xffffffff800018d0 <str.0>
ffffffff8000486f: 48 8d 15 52 cb 00 00 	lea	rdx, [rip + 52050]      # 0xffffffff800113c8 <xr6aouzjkjmurg0+0xffffffff800113c8>
ffffffff80004876: 48 8b 05 63 d8 00 00 	mov	rax, qword ptr [rip + 55395] # 0xffffffff800120e0 <xr6aouzjkjmurg0+0xffffffff800120e0>
ffffffff8000487d: be 21 00 00 00       	mov	esi, 33
ffffffff80004882: ff d0                	call	rax
ffffffff80004884: 0f 0b                	ud2
ffffffff80004886: 48 8b 8d 60 fe ff ff 	mov	rcx, qword ptr [rbp - 416]
ffffffff8000488d: 48 8b 41 48          	mov	rax, qword ptr [rcx + 72]
ffffffff80004891: 8b 49 1c             	mov	ecx, dword ptr [rcx + 28]
ffffffff80004894: 48 f7 e1             	mul	rcx
ffffffff80004897: 48 89 85 a8 fd ff ff 	mov	qword ptr [rbp - 600], rax
ffffffff8000489e: 0f 90 c0             	seto	al
ffffffff800048a1: a8 01                	test	al, 1
ffffffff800048a3: 75 41                	jne	0xffffffff800048e6 <_ZN52_$LT$qos..fb..Writer$u20$as$u20$core..fmt..Write$GT$9write_str17h8d801ecc03643facE+0x6b6>
ffffffff800048a5: eb 1e                	jmp	0xffffffff800048c5 <_ZN52_$LT$qos..fb..Writer$u20$as$u20$core..fmt..Write$GT$9write_str17h8d801ecc03643facE+0x695>
ffffffff800048a7: 48 8d 3d 52 d0 ff ff 	lea	rdi, [rip - 12206]      # 0xffffffff80001900 <str.1>
ffffffff800048ae: 48 8d 15 13 cb 00 00 	lea	rdx, [rip + 51987]      # 0xffffffff800113c8 <xr6aouzjkjmurg0+0xffffffff800113c8>
ffffffff800048b5: 48 8b 05 24 d8 00 00 	mov	rax, qword ptr [rip + 55332] # 0xffffffff800120e0 <xr6aouzjkjmurg0+0xffffffff800120e0>
ffffffff800048bc: be 1c 00 00 00       	mov	esi, 28
ffffffff800048c1: ff d0                	call	rax
ffffffff800048c3: 0f 0b                	ud2
ffffffff800048c5: 48 8b 8d e0 fd ff ff 	mov	rcx, qword ptr [rbp - 544]
ffffffff800048cc: 48 8b 85 a8 fd ff ff 	mov	rax, qword ptr [rbp - 600]
ffffffff800048d3: 48 01 c8             	add	rax, rcx
ffffffff800048d6: 48 89 85 a0 fd ff ff 	mov	qword ptr [rbp - 608], rax
ffffffff800048dd: 0f 92 c0             	setb	al
ffffffff800048e0: a8 01                	test	al, 1
ffffffff800048e2: 75 45                	jne	0xffffffff80004929 <_ZN52_$LT$qos..fb..Writer$u20$as$u20$core..fmt..Write$GT$9write_str17h8d801ecc03643facE+0x6f9>
ffffffff800048e4: eb 1e                	jmp	0xffffffff80004904 <_ZN52_$LT$qos..fb..Writer$u20$as$u20$core..fmt..Write$GT$9write_str17h8d801ecc03643facE+0x6d4>
ffffffff800048e6: 48 8d 3d e3 cf ff ff 	lea	rdi, [rip - 12317]      # 0xffffffff800018d0 <str.0>
ffffffff800048ed: 48 8d 15 ec ca 00 00 	lea	rdx, [rip + 51948]      # 0xffffffff800113e0 <xr6aouzjkjmurg0+0xffffffff800113e0>
ffffffff800048f4: 48 8b 05 e5 d7 00 00 	mov	rax, qword ptr [rip + 55269] # 0xffffffff800120e0 <xr6aouzjkjmurg0+0xffffffff800120e0>
ffffffff800048fb: be 21 00 00 00       	mov	esi, 33
ffffffff80004900: ff d0                	call	rax
ffffffff80004902: 0f 0b                	ud2
ffffffff80004904: 48 8b 95 a0 fd ff ff 	mov	rdx, qword ptr [rbp - 608]
ffffffff8000490b: 48 8b b5 b0 fd ff ff 	mov	rsi, qword ptr [rbp - 592]
ffffffff80004912: 48 8b bd b8 fd ff ff 	mov	rdi, qword ptr [rbp - 584]
ffffffff80004919: 8b 8d 2c ff ff ff    	mov	ecx, dword ptr [rbp - 212]
ffffffff8000491f: e8 8c f6 ff ff       	call	0xffffffff80003fb0 <_ZN3qos2fb11Framebuffer5write17h9bcb3f37b37f2078E>
ffffffff80004924: e9 ff fd ff ff       	jmp	0xffffffff80004728 <_ZN52_$LT$qos..fb..Writer$u20$as$u20$core..fmt..Write$GT$9write_str17h8d801ecc03643facE+0x4f8>
ffffffff80004929: 48 8d 3d d0 cf ff ff 	lea	rdi, [rip - 12336]      # 0xffffffff80001900 <str.1>
ffffffff80004930: 48 8d 15 a9 ca 00 00 	lea	rdx, [rip + 51881]      # 0xffffffff800113e0 <xr6aouzjkjmurg0+0xffffffff800113e0>
ffffffff80004937: 48 8b 05 a2 d7 00 00 	mov	rax, qword ptr [rip + 55202] # 0xffffffff800120e0 <xr6aouzjkjmurg0+0xffffffff800120e0>
ffffffff8000493e: be 1c 00 00 00       	mov	esi, 28
ffffffff80004943: ff d0                	call	rax
ffffffff80004945: 0f 0b                	ud2
ffffffff80004947: 48 8b 85 60 fe ff ff 	mov	rax, qword ptr [rbp - 416]
ffffffff8000494e: 48 8b 8d f0 fd ff ff 	mov	rcx, qword ptr [rbp - 528]
ffffffff80004955: 48 89 48 50          	mov	qword ptr [rax + 80], rcx
ffffffff80004959: e9 82 fa ff ff       	jmp	0xffffffff800043e0 <_ZN52_$LT$qos..fb..Writer$u20$as$u20$core..fmt..Write$GT$9write_str17h8d801ecc03643facE+0x1b0>
ffffffff8000495e: 48 8d 3d 9b cf ff ff 	lea	rdi, [rip - 12389]      # 0xffffffff80001900 <str.1>
ffffffff80004965: 48 8d 15 8c ca 00 00 	lea	rdx, [rip + 51852]      # 0xffffffff800113f8 <xr6aouzjkjmurg0+0xffffffff800113f8>
ffffffff8000496c: 48 8b 05 6d d7 00 00 	mov	rax, qword ptr [rip + 55149] # 0xffffffff800120e0 <xr6aouzjkjmurg0+0xffffffff800120e0>
ffffffff80004973: be 1c 00 00 00       	mov	esi, 28
ffffffff80004978: ff d0                	call	rax
ffffffff8000497a: 0f 0b                	ud2
ffffffff8000497c: 48 8b 85 20 fe ff ff 	mov	rax, qword ptr [rbp - 480]
ffffffff80004983: 48 c7 85 90 fe ff ff 00 00 00 00     	mov	qword ptr [rbp - 368], 0
ffffffff8000498e: 48 89 85 98 fe ff ff 	mov	qword ptr [rbp - 360], rax
ffffffff80004995: 48 8b bd 90 fe ff ff 	mov	rdi, qword ptr [rbp - 368]
ffffffff8000499c: 48 8b b5 98 fe ff ff 	mov	rsi, qword ptr [rbp - 360]
ffffffff800049a3: e8 d8 5b 00 00       	call	0xffffffff8000a580 <_ZN63_$LT$I$u20$as$u20$core..iter..traits..collect..IntoIterator$GT$9into_iter17h1a92386f5c2a06d2E>
ffffffff800049a8: 48 89 85 a0 fe ff ff 	mov	qword ptr [rbp - 352], rax
ffffffff800049af: 48 89 95 a8 fe ff ff 	mov	qword ptr [rbp - 344], rdx
ffffffff800049b6: eb 1e                	jmp	0xffffffff800049d6 <_ZN52_$LT$qos..fb..Writer$u20$as$u20$core..fmt..Write$GT$9write_str17h8d801ecc03643facE+0x7a6>
ffffffff800049b8: 48 8d 3d 61 cf ff ff 	lea	rdi, [rip - 12447]      # 0xffffffff80001920 <str.2>
ffffffff800049bf: 48 8d 15 4a ca 00 00 	lea	rdx, [rip + 51786]      # 0xffffffff80011410 <xr6aouzjkjmurg0+0xffffffff80011410>
ffffffff800049c6: 48 8b 05 13 d7 00 00 	mov	rax, qword ptr [rip + 55059] # 0xffffffff800120e0 <xr6aouzjkjmurg0+0xffffffff800120e0>
ffffffff800049cd: be 21 00 00 00       	mov	esi, 33
ffffffff800049d2: ff d0                	call	rax
ffffffff800049d4: 0f 0b                	ud2
ffffffff800049d6: 48 8d bd a0 fe ff ff 	lea	rdi, [rbp - 352]
ffffffff800049dd: e8 7e 5b 00 00       	call	0xffffffff8000a560 <_ZN4core4iter5range101_$LT$impl$u20$core..iter..traits..iterator..Iterator$u20$for$u20$core..ops..range..Range$LT$A$GT$$GT$4next17ha48bff387f27bd7eE>
ffffffff800049e2: 48 89 95 b8 fe ff ff 	mov	qword ptr [rbp - 328], rdx
ffffffff800049e9: 48 89 85 b0 fe ff ff 	mov	qword ptr [rbp - 336], rax
ffffffff800049f0: 48 83 bd b0 fe ff ff 00      	cmp	qword ptr [rbp - 336], 0
ffffffff800049f8: 0f 84 e2 f9 ff ff    	je	0xffffffff800043e0 <_ZN52_$LT$qos..fb..Writer$u20$as$u20$core..fmt..Write$GT$9write_str17h8d801ecc03643facE+0x1b0>
ffffffff800049fe: 48 8b bd 60 fe ff ff 	mov	rdi, qword ptr [rbp - 416]
ffffffff80004a05: be 20 00 00 00       	mov	esi, 32
ffffffff80004a0a: e8 11 0b 00 00       	call	0xffffffff80005520 <_ZN4core3fmt5Write10write_char17ha65e8796709111dfE>
ffffffff80004a0f: 0f b6 f8             	movzx	edi, al
ffffffff80004a12: 83 e7 01             	and	edi, 1
ffffffff80004a15: 48 8b 05 cc d6 00 00 	mov	rax, qword ptr [rip + 54988] # 0xffffffff800120e8 <xr6aouzjkjmurg0+0xffffffff800120e8>
ffffffff80004a1c: ff d0                	call	rax
ffffffff80004a1e: 24 01                	and	al, 1
ffffffff80004a20: 88 85 c7 fe ff ff    	mov	byte ptr [rbp - 313], al
ffffffff80004a26: 8a 85 c7 fe ff ff    	mov	al, byte ptr [rbp - 313]
ffffffff80004a2c: 24 01                	and	al, 1
ffffffff80004a2e: 0f b6 c0             	movzx	eax, al
ffffffff80004a31: 48 83 f8 00          	cmp	rax, 0
ffffffff80004a35: 74 9f                	je	0xffffffff800049d6 <_ZN52_$LT$qos..fb..Writer$u20$as$u20$core..fmt..Write$GT$9write_str17h8d801ecc03643facE+0x7a6>
ffffffff80004a37: 48 8d 3d ea c9 00 00 	lea	rdi, [rip + 51690]      # 0xffffffff80011428 <xr6aouzjkjmurg0+0xffffffff80011428>
ffffffff80004a3e: 48 8b 05 ab d6 00 00 	mov	rax, qword ptr [rip + 54955] # 0xffffffff800120f0 <xr6aouzjkjmurg0+0xffffffff800120f0>
ffffffff80004a45: ff d0                	call	rax
ffffffff80004a47: 24 01                	and	al, 1
ffffffff80004a49: 88 85 77 fe ff ff    	mov	byte ptr [rbp - 393], al
ffffffff80004a4f: e9 78 f9 ff ff       	jmp	0xffffffff800043cc <_ZN52_$LT$qos..fb..Writer$u20$as$u20$core..fmt..Write$GT$9write_str17h8d801ecc03643facE+0x19c>
ffffffff80004a54: 48 8b 85 60 fe ff ff 	mov	rax, qword ptr [rbp - 416]
ffffffff80004a5b: 48 8b 8d 28 fe ff ff 	mov	rcx, qword ptr [rbp - 472]
ffffffff80004a62: 48 89 48 48          	mov	qword ptr [rax + 72], rcx
ffffffff80004a66: 48 c7 40 50 00 00 00 00      	mov	qword ptr [rax + 80], 0
ffffffff80004a6e: e9 6d f9 ff ff       	jmp	0xffffffff800043e0 <_ZN52_$LT$qos..fb..Writer$u20$as$u20$core..fmt..Write$GT$9write_str17h8d801ecc03643facE+0x1b0>
ffffffff80004a73: 48 8d 3d 86 ce ff ff 	lea	rdi, [rip - 12666]      # 0xffffffff80001900 <str.1>
ffffffff80004a7a: 48 8d 15 bf c9 00 00 	lea	rdx, [rip + 51647]      # 0xffffffff80011440 <xr6aouzjkjmurg0+0xffffffff80011440>
ffffffff80004a81: 48 8b 05 58 d6 00 00 	mov	rax, qword ptr [rip + 54872] # 0xffffffff800120e0 <xr6aouzjkjmurg0+0xffffffff800120e0>
ffffffff80004a88: be 1c 00 00 00       	mov	esi, 28
ffffffff80004a8d: ff d0                	call	rax
ffffffff80004a8f: 0f 0b                	ud2
ffffffff80004a91: cc                   	int3
ffffffff80004a92: cc                   	int3
ffffffff80004a93: cc                   	int3
ffffffff80004a94: cc                   	int3
ffffffff80004a95: cc                   	int3
ffffffff80004a96: cc                   	int3
ffffffff80004a97: cc                   	int3
ffffffff80004a98: cc                   	int3
ffffffff80004a99: cc                   	int3
ffffffff80004a9a: cc                   	int3
ffffffff80004a9b: cc                   	int3
ffffffff80004a9c: cc                   	int3
ffffffff80004a9d: cc                   	int3
ffffffff80004a9e: cc                   	int3
ffffffff80004a9f: cc                   	int3

ffffffff80004aa0 <_ZN3qos2fb6_print17hc3fbb4c70bda1274E>:
ffffffff80004aa0: 55                   	push	rbp
ffffffff80004aa1: 48 89 e5             	mov	rbp, rsp
ffffffff80004aa4: 48 83 ec 40          	sub	rsp, 64
ffffffff80004aa8: 48 89 7d c0          	mov	qword ptr [rbp - 64], rdi
ffffffff80004aac: 48 8d 3d fd e7 00 00 	lea	rdi, [rip + 59389]      # 0xffffffff800132b0 <_ZN3qos2fb6WRITER17h78bbd4fa8ed2e707E>
ffffffff80004ab3: e8 e8 5f 00 00       	call	0xffffffff8000aaa0 <_ZN3qos4sync17Lazy$LT$T$C$F$GT$3get17h9b1b63a736980342E>
ffffffff80004ab8: 48 89 c7             	mov	rdi, rax
ffffffff80004abb: e8 10 5e 00 00       	call	0xffffffff8000a8d0 <_ZN3qos4sync14Mutex$LT$T$GT$4lock17h42aec9b08e5939aeE>
ffffffff80004ac0: 48 89 45 c8          	mov	qword ptr [rbp - 56], rax
ffffffff80004ac4: 48 8d 7d c8          	lea	rdi, [rbp - 56]
ffffffff80004ac8: e8 b3 5c 00 00       	call	0xffffffff8000a780 <_ZN77_$LT$qos..sync..MutexGuard$LT$T$GT$$u20$as$u20$core..ops..deref..DerefMut$GT$9deref_mut17h8c2af73d592be7c8E>
ffffffff80004acd: 48 8b 4d c0          	mov	rcx, qword ptr [rbp - 64]
ffffffff80004ad1: 48 89 c7             	mov	rdi, rax
ffffffff80004ad4: 48 8b 41 28          	mov	rax, qword ptr [rcx + 40]
ffffffff80004ad8: 48 89 45 f8          	mov	qword ptr [rbp - 8], rax
ffffffff80004adc: 48 8b 41 20          	mov	rax, qword ptr [rcx + 32]
ffffffff80004ae0: 48 89 45 f0          	mov	qword ptr [rbp - 16], rax
ffffffff80004ae4: 48 8b 41 18          	mov	rax, qword ptr [rcx + 24]
ffffffff80004ae8: 48 89 45 e8          	mov	qword ptr [rbp - 24], rax
ffffffff80004aec: 48 8b 41 10          	mov	rax, qword ptr [rcx + 16]
ffffffff80004af0: 48 89 45 e0          	mov	qword ptr [rbp - 32], rax
ffffffff80004af4: 48 8b 01             	mov	rax, qword ptr [rcx]
ffffffff80004af7: 48 8b 49 08          	mov	rcx, qword ptr [rcx + 8]
ffffffff80004afb: 48 89 4d d8          	mov	qword ptr [rbp - 40], rcx
ffffffff80004aff: 48 89 45 d0          	mov	qword ptr [rbp - 48], rax
ffffffff80004b03: 48 8d 75 d0          	lea	rsi, [rbp - 48]
ffffffff80004b07: e8 84 0a 00 00       	call	0xffffffff80005590 <_ZN4core3fmt5Write9write_fmt17h9d59cb372bdb625bE>
ffffffff80004b0c: 0f b6 f8             	movzx	edi, al
ffffffff80004b0f: 83 e7 01             	and	edi, 1
ffffffff80004b12: 48 8d 35 3f c9 00 00 	lea	rsi, [rip + 51519]      # 0xffffffff80011458 <xr6aouzjkjmurg0+0xffffffff80011458>
ffffffff80004b19: e8 52 35 00 00       	call	0xffffffff80008070 <_ZN4core6result19Result$LT$T$C$E$GT$6unwrap17h6e6d08db786c515dE>
ffffffff80004b1e: 48 8d 7d c8          	lea	rdi, [rbp - 56]
ffffffff80004b22: e8 59 7c 00 00       	call	0xffffffff8000c780 <_ZN4core3ptr65drop_in_place$LT$qos..sync..MutexGuard$LT$qos..fb..Writer$GT$$GT$17h9681f7fde08cec56E>
ffffffff80004b27: 48 83 c4 40          	add	rsp, 64
ffffffff80004b2b: 5d                   	pop	rbp
ffffffff80004b2c: c3                   	ret
ffffffff80004b2d: cc                   	int3
ffffffff80004b2e: cc                   	int3
ffffffff80004b2f: cc                   	int3

ffffffff80004b30 <_ZN4core4sync6atomic10AtomicBool16compare_exchange17hcc521d94ecb2d70aE>:
ffffffff80004b30: 55                   	push	rbp
ffffffff80004b31: 48 89 e5             	mov	rbp, rsp
ffffffff80004b34: 48 83 ec 30          	sub	rsp, 48
ffffffff80004b38: 89 d0                	mov	eax, edx
ffffffff80004b3a: 89 f2                	mov	edx, esi
ffffffff80004b3c: 44 88 c6             	mov	sil, r8b
ffffffff80004b3f: 48 89 7d e0          	mov	qword ptr [rbp - 32], rdi
ffffffff80004b43: 41 88 d0             	mov	r8b, dl
ffffffff80004b46: 41 80 e0 01          	and	r8b, 1
ffffffff80004b4a: 44 88 45 ec          	mov	byte ptr [rbp - 20], r8b
ffffffff80004b4e: 41 88 c0             	mov	r8b, al
ffffffff80004b51: 41 80 e0 01          	and	r8b, 1
ffffffff80004b55: 44 88 45 ed          	mov	byte ptr [rbp - 19], r8b
ffffffff80004b59: 88 4d ee             	mov	byte ptr [rbp - 18], cl
ffffffff80004b5c: 40 88 75 ef          	mov	byte ptr [rbp - 17], sil
ffffffff80004b60: 48 89 7d f0          	mov	qword ptr [rbp - 16], rdi
ffffffff80004b64: 0f b6 c9             	movzx	ecx, cl
ffffffff80004b67: 44 0f b6 c6          	movzx	r8d, sil
ffffffff80004b6b: 0f b6 f2             	movzx	esi, dl
ffffffff80004b6e: 83 e6 01             	and	esi, 1
ffffffff80004b71: 0f b6 d0             	movzx	edx, al
ffffffff80004b74: 83 e2 01             	and	edx, 1
ffffffff80004b77: e8 c4 27 00 00       	call	0xffffffff80007340 <_ZN4core4sync6atomic23atomic_compare_exchange17h8926a8d8ed8b70b4E>
ffffffff80004b7c: 88 55 d9             	mov	byte ptr [rbp - 39], dl
ffffffff80004b7f: 88 45 d8             	mov	byte ptr [rbp - 40], al
ffffffff80004b82: 8a 45 d8             	mov	al, byte ptr [rbp - 40]
ffffffff80004b85: 24 01                	and	al, 1
ffffffff80004b87: 0f b6 c0             	movzx	eax, al
ffffffff80004b8a: 48 83 f8 00          	cmp	rax, 0
ffffffff80004b8e: 75 16                	jne	0xffffffff80004ba6 <_ZN4core4sync6atomic10AtomicBool16compare_exchange17hcc521d94ecb2d70aE+0x76>
ffffffff80004b90: 8a 45 d9             	mov	al, byte ptr [rbp - 39]
ffffffff80004b93: 88 45 ff             	mov	byte ptr [rbp - 1], al
ffffffff80004b96: 3c 00                	cmp	al, 0
ffffffff80004b98: 0f 95 c0             	setne	al
ffffffff80004b9b: 24 01                	and	al, 1
ffffffff80004b9d: 88 45 d1             	mov	byte ptr [rbp - 47], al
ffffffff80004ba0: c6 45 d0 00          	mov	byte ptr [rbp - 48], 0
ffffffff80004ba4: eb 14                	jmp	0xffffffff80004bba <_ZN4core4sync6atomic10AtomicBool16compare_exchange17hcc521d94ecb2d70aE+0x8a>
ffffffff80004ba6: 8a 45 d9             	mov	al, byte ptr [rbp - 39]
ffffffff80004ba9: 88 45 fe             	mov	byte ptr [rbp - 2], al
ffffffff80004bac: 3c 00                	cmp	al, 0
ffffffff80004bae: 0f 95 c0             	setne	al
ffffffff80004bb1: 24 01                	and	al, 1
ffffffff80004bb3: 88 45 d1             	mov	byte ptr [rbp - 47], al
ffffffff80004bb6: c6 45 d0 01          	mov	byte ptr [rbp - 48], 1
ffffffff80004bba: 8a 45 d0             	mov	al, byte ptr [rbp - 48]
ffffffff80004bbd: 8a 55 d1             	mov	dl, byte ptr [rbp - 47]
ffffffff80004bc0: 48 83 c4 30          	add	rsp, 48
ffffffff80004bc4: 5d                   	pop	rbp
ffffffff80004bc5: c3                   	ret
ffffffff80004bc6: cc                   	int3
ffffffff80004bc7: cc                   	int3
ffffffff80004bc8: cc                   	int3
ffffffff80004bc9: cc                   	int3
ffffffff80004bca: cc                   	int3
ffffffff80004bcb: cc                   	int3
ffffffff80004bcc: cc                   	int3
ffffffff80004bcd: cc                   	int3
ffffffff80004bce: cc                   	int3
ffffffff80004bcf: cc                   	int3

ffffffff80004bd0 <_ZN4core4sync6atomic10AtomicBool3new17h16d1dd6082758aacE>:
ffffffff80004bd0: 55                   	push	rbp
ffffffff80004bd1: 48 89 e5             	mov	rbp, rsp
ffffffff80004bd4: 50                   	push	rax
ffffffff80004bd5: 40 88 f8             	mov	al, dil
ffffffff80004bd8: 88 c1                	mov	cl, al
ffffffff80004bda: 80 e1 01             	and	cl, 1
ffffffff80004bdd: 88 4d fe             	mov	byte ptr [rbp - 2], cl
ffffffff80004be0: 24 01                	and	al, 1
ffffffff80004be2: 88 45 ff             	mov	byte ptr [rbp - 1], al
ffffffff80004be5: 88 45 fd             	mov	byte ptr [rbp - 3], al
ffffffff80004be8: 8a 45 fd             	mov	al, byte ptr [rbp - 3]
ffffffff80004beb: 88 45 f8             	mov	byte ptr [rbp - 8], al
ffffffff80004bee: 8a 45 f8             	mov	al, byte ptr [rbp - 8]
ffffffff80004bf1: 48 83 c4 08          	add	rsp, 8
ffffffff80004bf5: 5d                   	pop	rbp
ffffffff80004bf6: c3                   	ret
ffffffff80004bf7: cc                   	int3
ffffffff80004bf8: cc                   	int3
ffffffff80004bf9: cc                   	int3
ffffffff80004bfa: cc                   	int3
ffffffff80004bfb: cc                   	int3
ffffffff80004bfc: cc                   	int3
ffffffff80004bfd: cc                   	int3
ffffffff80004bfe: cc                   	int3
ffffffff80004bff: cc                   	int3

ffffffff80004c00 <_ZN4core4sync6atomic10AtomicBool4load17h36e0d2a5eb6cad41E>:
ffffffff80004c00: 55                   	push	rbp
ffffffff80004c01: 48 89 e5             	mov	rbp, rsp
ffffffff80004c04: 48 83 ec 20          	sub	rsp, 32
ffffffff80004c08: 40 88 f0             	mov	al, sil
ffffffff80004c0b: 48 89 7d e8          	mov	qword ptr [rbp - 24], rdi
ffffffff80004c0f: 88 45 f7             	mov	byte ptr [rbp - 9], al
ffffffff80004c12: 48 89 7d f8          	mov	qword ptr [rbp - 8], rdi
ffffffff80004c16: 0f b6 f0             	movzx	esi, al
ffffffff80004c19: e8 22 25 00 00       	call	0xffffffff80007140 <_ZN4core4sync6atomic11atomic_load17h0006e89741405fb0E>
ffffffff80004c1e: 3c 00                	cmp	al, 0
ffffffff80004c20: 0f 95 c0             	setne	al
ffffffff80004c23: 24 01                	and	al, 1
ffffffff80004c25: 0f b6 c0             	movzx	eax, al
ffffffff80004c28: 48 83 c4 20          	add	rsp, 32
ffffffff80004c2c: 5d                   	pop	rbp
ffffffff80004c2d: c3                   	ret
ffffffff80004c2e: cc                   	int3
ffffffff80004c2f: cc                   	int3

ffffffff80004c30 <_ZN4core4sync6atomic10AtomicBool5store17h6b15ae4f4b929367E>:
ffffffff80004c30: 55                   	push	rbp
ffffffff80004c31: 48 89 e5             	mov	rbp, rsp
ffffffff80004c34: 48 83 ec 20          	sub	rsp, 32
ffffffff80004c38: 88 d0                	mov	al, dl
ffffffff80004c3a: 40 88 f1             	mov	cl, sil
ffffffff80004c3d: 48 89 7d e8          	mov	qword ptr [rbp - 24], rdi
ffffffff80004c41: 88 ca                	mov	dl, cl
ffffffff80004c43: 80 e2 01             	and	dl, 1
ffffffff80004c46: 88 55 f6             	mov	byte ptr [rbp - 10], dl
ffffffff80004c49: 88 45 f7             	mov	byte ptr [rbp - 9], al
ffffffff80004c4c: 48 89 7d f8          	mov	qword ptr [rbp - 8], rdi
ffffffff80004c50: 80 e1 01             	and	cl, 1
ffffffff80004c53: 0f b6 f1             	movzx	esi, cl
ffffffff80004c56: 0f b6 d0             	movzx	edx, al
ffffffff80004c59: e8 d2 25 00 00       	call	0xffffffff80007230 <_ZN4core4sync6atomic12atomic_store17h724a2d8a83bef95fE>
ffffffff80004c5e: 48 83 c4 20          	add	rsp, 32
ffffffff80004c62: 5d                   	pop	rbp
ffffffff80004c63: c3                   	ret
ffffffff80004c64: cc                   	int3
ffffffff80004c65: cc                   	int3
ffffffff80004c66: cc                   	int3
ffffffff80004c67: cc                   	int3
ffffffff80004c68: cc                   	int3
ffffffff80004c69: cc                   	int3
ffffffff80004c6a: cc                   	int3
ffffffff80004c6b: cc                   	int3
ffffffff80004c6c: cc                   	int3
ffffffff80004c6d: cc                   	int3
ffffffff80004c6e: cc                   	int3
ffffffff80004c6f: cc                   	int3

ffffffff80004c70 <_ZN43_$LT$u16$u20$as$u20$bit_field..BitField$GT$7set_bit17h2570f78dba7cb5baE>:
ffffffff80004c70: 55                   	push	rbp
ffffffff80004c71: 48 89 e5             	mov	rbp, rsp
ffffffff80004c74: 48 83 ec 40          	sub	rsp, 64
ffffffff80004c78: 48 89 75 d0          	mov	qword ptr [rbp - 48], rsi
ffffffff80004c7c: 48 89 7d d8          	mov	qword ptr [rbp - 40], rdi
ffffffff80004c80: 88 d0                	mov	al, dl
ffffffff80004c82: 88 45 e7             	mov	byte ptr [rbp - 25], al
ffffffff80004c85: 48 89 7d e8          	mov	qword ptr [rbp - 24], rdi
ffffffff80004c89: 48 89 75 f0          	mov	qword ptr [rbp - 16], rsi
ffffffff80004c8d: 24 01                	and	al, 1
ffffffff80004c8f: 88 45 ff             	mov	byte ptr [rbp - 1], al
ffffffff80004c92: 48 83 fe 10          	cmp	rsi, 16
ffffffff80004c96: 0f 92 c0             	setb	al
ffffffff80004c99: 34 ff                	xor	al, -1
ffffffff80004c9b: a8 01                	test	al, 1
ffffffff80004c9d: 75 09                	jne	0xffffffff80004ca8 <_ZN43_$LT$u16$u20$as$u20$bit_field..BitField$GT$7set_bit17h2570f78dba7cb5baE+0x38>
ffffffff80004c9f: 8a 45 e7             	mov	al, byte ptr [rbp - 25]
ffffffff80004ca2: a8 01                	test	al, 1
ffffffff80004ca4: 75 47                	jne	0xffffffff80004ced <_ZN43_$LT$u16$u20$as$u20$bit_field..BitField$GT$7set_bit17h2570f78dba7cb5baE+0x7d>
ffffffff80004ca6: eb 1e                	jmp	0xffffffff80004cc6 <_ZN43_$LT$u16$u20$as$u20$bit_field..BitField$GT$7set_bit17h2570f78dba7cb5baE+0x56>
ffffffff80004ca8: 48 8d 3d c4 cc ff ff 	lea	rdi, [rip - 13116]      # 0xffffffff80001973 <str.3+0x23>
ffffffff80004caf: 48 8d 15 ba c7 00 00 	lea	rdx, [rip + 51130]      # 0xffffffff80011470 <xr6aouzjkjmurg0+0xffffffff80011470>
ffffffff80004cb6: 48 8b 05 23 d4 00 00 	mov	rax, qword ptr [rip + 54307] # 0xffffffff800120e0 <xr6aouzjkjmurg0+0xffffffff800120e0>
ffffffff80004cbd: be 28 00 00 00       	mov	esi, 40
ffffffff80004cc2: ff d0                	call	rax
ffffffff80004cc4: 0f 0b                	ud2
ffffffff80004cc6: 48 8b 4d d0          	mov	rcx, qword ptr [rbp - 48]
ffffffff80004cca: 48 89 c8             	mov	rax, rcx
ffffffff80004ccd: 48 83 e0 f0          	and	rax, -16
ffffffff80004cd1: 48 83 f8 00          	cmp	rax, 0
ffffffff80004cd5: 0f 95 c0             	setne	al
ffffffff80004cd8: 66 83 e1 0f          	and	cx, 15
ffffffff80004cdc: 66 ba 01 00          	mov	dx, 1
ffffffff80004ce0: 66 d3 e2             	shl	dx, cl
ffffffff80004ce3: 66 89 55 ce          	mov	word ptr [rbp - 50], dx
ffffffff80004ce7: a8 01                	test	al, 1
ffffffff80004ce9: 75 73                	jne	0xffffffff80004d5e <_ZN43_$LT$u16$u20$as$u20$bit_field..BitField$GT$7set_bit17h2570f78dba7cb5baE+0xee>
ffffffff80004ceb: eb 5d                	jmp	0xffffffff80004d4a <_ZN43_$LT$u16$u20$as$u20$bit_field..BitField$GT$7set_bit17h2570f78dba7cb5baE+0xda>
ffffffff80004ced: 48 8b 4d d0          	mov	rcx, qword ptr [rbp - 48]
ffffffff80004cf1: 48 89 c8             	mov	rax, rcx
ffffffff80004cf4: 48 83 e0 f0          	and	rax, -16
ffffffff80004cf8: 48 83 f8 00          	cmp	rax, 0
ffffffff80004cfc: 0f 95 c0             	setne	al
ffffffff80004cff: 66 83 e1 0f          	and	cx, 15
ffffffff80004d03: 66 ba 01 00          	mov	dx, 1
ffffffff80004d07: 66 d3 e2             	shl	dx, cl
ffffffff80004d0a: 66 89 55 cc          	mov	word ptr [rbp - 52], dx
ffffffff80004d0e: a8 01                	test	al, 1
ffffffff80004d10: 75 10                	jne	0xffffffff80004d22 <_ZN43_$LT$u16$u20$as$u20$bit_field..BitField$GT$7set_bit17h2570f78dba7cb5baE+0xb2>
ffffffff80004d12: 48 8b 45 d8          	mov	rax, qword ptr [rbp - 40]
ffffffff80004d16: 66 8b 4d cc          	mov	cx, word ptr [rbp - 52]
ffffffff80004d1a: 66 0b 08             	or	cx, word ptr [rax]
ffffffff80004d1d: 66 89 08             	mov	word ptr [rax], cx
ffffffff80004d20: eb 1e                	jmp	0xffffffff80004d40 <_ZN43_$LT$u16$u20$as$u20$bit_field..BitField$GT$7set_bit17h2570f78dba7cb5baE+0xd0>
ffffffff80004d22: 48 8d 3d d7 cc ff ff 	lea	rdi, [rip - 13097]      # 0xffffffff80001a00 <str.0>
ffffffff80004d29: 48 8d 15 40 c7 00 00 	lea	rdx, [rip + 51008]      # 0xffffffff80011470 <xr6aouzjkjmurg0+0xffffffff80011470>
ffffffff80004d30: 48 8b 05 a9 d3 00 00 	mov	rax, qword ptr [rip + 54185] # 0xffffffff800120e0 <xr6aouzjkjmurg0+0xffffffff800120e0>
ffffffff80004d37: be 23 00 00 00       	mov	esi, 35
ffffffff80004d3c: ff d0                	call	rax
ffffffff80004d3e: 0f 0b                	ud2
ffffffff80004d40: 48 8b 45 d8          	mov	rax, qword ptr [rbp - 40]
ffffffff80004d44: 48 83 c4 40          	add	rsp, 64
ffffffff80004d48: 5d                   	pop	rbp
ffffffff80004d49: c3                   	ret
ffffffff80004d4a: 48 8b 45 d8          	mov	rax, qword ptr [rbp - 40]
ffffffff80004d4e: 66 8b 4d ce          	mov	cx, word ptr [rbp - 50]
ffffffff80004d52: 66 83 f1 ff          	xor	cx, -1
ffffffff80004d56: 66 23 08             	and	cx, word ptr [rax]
ffffffff80004d59: 66 89 08             	mov	word ptr [rax], cx
ffffffff80004d5c: eb e2                	jmp	0xffffffff80004d40 <_ZN43_$LT$u16$u20$as$u20$bit_field..BitField$GT$7set_bit17h2570f78dba7cb5baE+0xd0>
ffffffff80004d5e: 48 8d 3d 9b cc ff ff 	lea	rdi, [rip - 13157]      # 0xffffffff80001a00 <str.0>
ffffffff80004d65: 48 8d 15 04 c7 00 00 	lea	rdx, [rip + 50948]      # 0xffffffff80011470 <xr6aouzjkjmurg0+0xffffffff80011470>
ffffffff80004d6c: 48 8b 05 6d d3 00 00 	mov	rax, qword ptr [rip + 54125] # 0xffffffff800120e0 <xr6aouzjkjmurg0+0xffffffff800120e0>
ffffffff80004d73: be 23 00 00 00       	mov	esi, 35
ffffffff80004d78: ff d0                	call	rax
ffffffff80004d7a: 0f 0b                	ud2
ffffffff80004d7c: cc                   	int3
ffffffff80004d7d: cc                   	int3
ffffffff80004d7e: cc                   	int3
ffffffff80004d7f: cc                   	int3

ffffffff80004d80 <_ZN6x86_6410structures3idt14Entry$LT$F$GT$16set_handler_addr17h539db899c07251c2E>:
ffffffff80004d80: 55                   	push	rbp
ffffffff80004d81: 48 89 e5             	mov	rbp, rsp
ffffffff80004d84: 48 83 ec 30          	sub	rsp, 48
ffffffff80004d88: 48 89 75 d8          	mov	qword ptr [rbp - 40], rsi
ffffffff80004d8c: 48 89 f8             	mov	rax, rdi
ffffffff80004d8f: 48 8b 7d d8          	mov	rdi, qword ptr [rbp - 40]
ffffffff80004d93: 48 89 45 e0          	mov	qword ptr [rbp - 32], rax
ffffffff80004d97: 48 89 45 e8          	mov	qword ptr [rbp - 24], rax
ffffffff80004d9b: 48 89 7d f0          	mov	qword ptr [rbp - 16], rdi
ffffffff80004d9f: e8 0c 11 00 00       	call	0xffffffff80005eb0 <_ZN6x86_644addr8VirtAddr6as_u6417hc4b039afb5c117fdE>
ffffffff80004da4: 48 8b 7d e0          	mov	rdi, qword ptr [rbp - 32]
ffffffff80004da8: 48 89 45 f8          	mov	qword ptr [rbp - 8], rax
ffffffff80004dac: 66 89 c1             	mov	cx, ax
ffffffff80004daf: 66 89 0f             	mov	word ptr [rdi], cx
ffffffff80004db2: 48 89 c1             	mov	rcx, rax
ffffffff80004db5: 48 c1 e9 10          	shr	rcx, 16
ffffffff80004db9: 66 89 4f 06          	mov	word ptr [rdi + 6], cx
ffffffff80004dbd: 48 c1 e8 20          	shr	rax, 32
ffffffff80004dc1: 89 47 08             	mov	dword ptr [rdi + 8], eax
ffffffff80004dc4: 48 8b 05 2d d3 00 00 	mov	rax, qword ptr [rip + 54061] # 0xffffffff800120f8 <xr6aouzjkjmurg0+0xffffffff800120f8>
ffffffff80004dcb: ff d0                	call	rax
ffffffff80004dcd: 48 8b 7d e0          	mov	rdi, qword ptr [rbp - 32]
ffffffff80004dd1: 66 89 47 02          	mov	word ptr [rdi + 2], ax
ffffffff80004dd5: 48 83 c7 04          	add	rdi, 4
ffffffff80004dd9: be 01 00 00 00       	mov	esi, 1
ffffffff80004dde: e8 fd 77 00 00       	call	0xffffffff8000c5e0 <_ZN6x86_6410structures3idt12EntryOptions11set_present17hb8fe10ed6b8e9e5aE>
ffffffff80004de3: 48 8b 45 e0          	mov	rax, qword ptr [rbp - 32]
ffffffff80004de7: 48 83 c0 04          	add	rax, 4
ffffffff80004deb: 48 83 c4 30          	add	rsp, 48
ffffffff80004def: 5d                   	pop	rbp
ffffffff80004df0: c3                   	ret
ffffffff80004df1: cc                   	int3
ffffffff80004df2: cc                   	int3
ffffffff80004df3: cc                   	int3
ffffffff80004df4: cc                   	int3
ffffffff80004df5: cc                   	int3
ffffffff80004df6: cc                   	int3
ffffffff80004df7: cc                   	int3
ffffffff80004df8: cc                   	int3
ffffffff80004df9: cc                   	int3
ffffffff80004dfa: cc                   	int3
ffffffff80004dfb: cc                   	int3
ffffffff80004dfc: cc                   	int3
ffffffff80004dfd: cc                   	int3
ffffffff80004dfe: cc                   	int3
ffffffff80004dff: cc                   	int3

ffffffff80004e00 <_ZN6x86_6410structures3idt14Entry$LT$F$GT$16set_handler_addr17hc5a8c93ea91df3d7E>:
ffffffff80004e00: 55                   	push	rbp
ffffffff80004e01: 48 89 e5             	mov	rbp, rsp
ffffffff80004e04: 48 83 ec 30          	sub	rsp, 48
ffffffff80004e08: 48 89 75 d8          	mov	qword ptr [rbp - 40], rsi
ffffffff80004e0c: 48 89 f8             	mov	rax, rdi
ffffffff80004e0f: 48 8b 7d d8          	mov	rdi, qword ptr [rbp - 40]
ffffffff80004e13: 48 89 45 e0          	mov	qword ptr [rbp - 32], rax
ffffffff80004e17: 48 89 45 e8          	mov	qword ptr [rbp - 24], rax
ffffffff80004e1b: 48 89 7d f0          	mov	qword ptr [rbp - 16], rdi
ffffffff80004e1f: e8 8c 10 00 00       	call	0xffffffff80005eb0 <_ZN6x86_644addr8VirtAddr6as_u6417hc4b039afb5c117fdE>
ffffffff80004e24: 48 8b 7d e0          	mov	rdi, qword ptr [rbp - 32]
ffffffff80004e28: 48 89 45 f8          	mov	qword ptr [rbp - 8], rax
ffffffff80004e2c: 66 89 c1             	mov	cx, ax
ffffffff80004e2f: 66 89 0f             	mov	word ptr [rdi], cx
ffffffff80004e32: 48 89 c1             	mov	rcx, rax
ffffffff80004e35: 48 c1 e9 10          	shr	rcx, 16
ffffffff80004e39: 66 89 4f 06          	mov	word ptr [rdi + 6], cx
ffffffff80004e3d: 48 c1 e8 20          	shr	rax, 32
ffffffff80004e41: 89 47 08             	mov	dword ptr [rdi + 8], eax
ffffffff80004e44: 48 8b 05 ad d2 00 00 	mov	rax, qword ptr [rip + 53933] # 0xffffffff800120f8 <xr6aouzjkjmurg0+0xffffffff800120f8>
ffffffff80004e4b: ff d0                	call	rax
ffffffff80004e4d: 48 8b 7d e0          	mov	rdi, qword ptr [rbp - 32]
ffffffff80004e51: 66 89 47 02          	mov	word ptr [rdi + 2], ax
ffffffff80004e55: 48 83 c7 04          	add	rdi, 4
ffffffff80004e59: be 01 00 00 00       	mov	esi, 1
ffffffff80004e5e: e8 7d 77 00 00       	call	0xffffffff8000c5e0 <_ZN6x86_6410structures3idt12EntryOptions11set_present17hb8fe10ed6b8e9e5aE>
ffffffff80004e63: 48 8b 45 e0          	mov	rax, qword ptr [rbp - 32]
ffffffff80004e67: 48 83 c0 04          	add	rax, 4
ffffffff80004e6b: 48 83 c4 30          	add	rsp, 48
ffffffff80004e6f: 5d                   	pop	rbp
ffffffff80004e70: c3                   	ret
ffffffff80004e71: cc                   	int3
ffffffff80004e72: cc                   	int3
ffffffff80004e73: cc                   	int3
ffffffff80004e74: cc                   	int3
ffffffff80004e75: cc                   	int3
ffffffff80004e76: cc                   	int3
ffffffff80004e77: cc                   	int3
ffffffff80004e78: cc                   	int3
ffffffff80004e79: cc                   	int3
ffffffff80004e7a: cc                   	int3
ffffffff80004e7b: cc                   	int3
ffffffff80004e7c: cc                   	int3
ffffffff80004e7d: cc                   	int3
ffffffff80004e7e: cc                   	int3
ffffffff80004e7f: cc                   	int3

ffffffff80004e80 <_ZN63_$LT$I$u20$as$u20$core..iter..traits..collect..IntoIterator$GT$9into_iter17h934548e9cd758791E>:
ffffffff80004e80: 55                   	push	rbp
ffffffff80004e81: 48 89 e5             	mov	rbp, rsp
ffffffff80004e84: 48 83 ec 10          	sub	rsp, 16
ffffffff80004e88: 48 89 f2             	mov	rdx, rsi
ffffffff80004e8b: 48 89 f8             	mov	rax, rdi
ffffffff80004e8e: 48 89 45 f0          	mov	qword ptr [rbp - 16], rax
ffffffff80004e92: 48 89 55 f8          	mov	qword ptr [rbp - 8], rdx
ffffffff80004e96: 48 83 c4 10          	add	rsp, 16
ffffffff80004e9a: 5d                   	pop	rbp
ffffffff80004e9b: c3                   	ret
ffffffff80004e9c: cc                   	int3
ffffffff80004e9d: cc                   	int3
ffffffff80004e9e: cc                   	int3
ffffffff80004e9f: cc                   	int3

ffffffff80004ea0 <_ZN81_$LT$core..str..iter..Chars$u20$as$u20$core..iter..traits..iterator..Iterator$GT$4next28_$u7b$$u7b$closure$u7d$$u7d$17hd8f3cc2d55d9e452E>:
ffffffff80004ea0: 55                   	push	rbp
ffffffff80004ea1: 48 89 e5             	mov	rbp, rsp
ffffffff80004ea4: 48 83 ec 18          	sub	rsp, 24
ffffffff80004ea8: 89 7d f0             	mov	dword ptr [rbp - 16], edi
ffffffff80004eab: 89 7d f4             	mov	dword ptr [rbp - 12], edi
ffffffff80004eae: 89 7d f8             	mov	dword ptr [rbp - 8], edi
ffffffff80004eb1: 89 7d fc             	mov	dword ptr [rbp - 4], edi
ffffffff80004eb4: 8b 45 fc             	mov	eax, dword ptr [rbp - 4]
ffffffff80004eb7: 48 83 c4 18          	add	rsp, 24
ffffffff80004ebb: 5d                   	pop	rbp
ffffffff80004ebc: c3                   	ret
ffffffff80004ebd: cc                   	int3
ffffffff80004ebe: cc                   	int3
ffffffff80004ebf: cc                   	int3

ffffffff80004ec0 <_ZN3qos3x863reg3Cr35write17h7cf7cb960defb8e1E>:
ffffffff80004ec0: 55                   	push	rbp
ffffffff80004ec1: 48 89 e5             	mov	rbp, rsp
ffffffff80004ec4: 48 81 ec c0 00 00 00 	sub	rsp, 192
ffffffff80004ecb: 48 89 bd 50 ff ff ff 	mov	qword ptr [rbp - 176], rdi
ffffffff80004ed2: 48 89 7d f0          	mov	qword ptr [rbp - 16], rdi
ffffffff80004ed6: e8 05 34 00 00       	call	0xffffffff800082e0 <_ZN3qos6paging8VirtAddr3new17h2288e0c21e0de726E>
ffffffff80004edb: 48 8b bd 50 ff ff ff 	mov	rdi, qword ptr [rbp - 176]
ffffffff80004ee2: 48 89 45 f8          	mov	qword ptr [rbp - 8], rax
ffffffff80004ee6: e8 f5 33 00 00       	call	0xffffffff800082e0 <_ZN3qos6paging8VirtAddr3new17h2288e0c21e0de726E>
ffffffff80004eeb: 48 89 85 68 ff ff ff 	mov	qword ptr [rbp - 152], rax
ffffffff80004ef2: 48 8d bd 68 ff ff ff 	lea	rdi, [rbp - 152]
ffffffff80004ef9: e8 22 34 00 00       	call	0xffffffff80008320 <_ZN3qos6paging8VirtAddr7as_phys17h2ca0ecf7ad9c36e5E>
ffffffff80004efe: 48 89 85 60 ff ff ff 	mov	qword ptr [rbp - 160], rax
ffffffff80004f05: 48 8d bd 60 ff ff ff 	lea	rdi, [rbp - 160]
ffffffff80004f0c: e8 0f 35 00 00       	call	0xffffffff80008420 <_ZN3qos6paging8PhysAddr8as_usize17h6cd190c5d5db75baE>
ffffffff80004f11: 48 89 85 58 ff ff ff 	mov	qword ptr [rbp - 168], rax
ffffffff80004f18: 48 8d bd 58 ff ff ff 	lea	rdi, [rbp - 168]
ffffffff80004f1f: e8 dc 5c 00 00       	call	0xffffffff8000ac00 <_ZN4core3fmt10ArgumentV113new_upper_hex17h175853aa782ea5a2E>
ffffffff80004f24: 48 89 45 e0          	mov	qword ptr [rbp - 32], rax
ffffffff80004f28: 48 89 55 e8          	mov	qword ptr [rbp - 24], rdx
ffffffff80004f2c: 48 89 e0             	mov	rax, rsp
ffffffff80004f2f: 48 c7 00 01 00 00 00 	mov	qword ptr [rax], 1
ffffffff80004f36: 48 8d 35 6b c5 00 00 	lea	rsi, [rip + 50539]      # 0xffffffff800114a8 <xr6aouzjkjmurg0+0xffffffff800114a8>
ffffffff80004f3d: 4c 8d 0d ec ca ff ff 	lea	r9, [rip - 13588]       # 0xffffffff80001a30 <str.0+0x30>
ffffffff80004f44: 48 8d 7d b0          	lea	rdi, [rbp - 80]
ffffffff80004f48: 48 8d 4d e0          	lea	rcx, [rbp - 32]
ffffffff80004f4c: 41 b8 01 00 00 00    	mov	r8d, 1
ffffffff80004f52: 4c 89 c2             	mov	rdx, r8
ffffffff80004f55: e8 36 0c 00 00       	call	0xffffffff80005b90 <_ZN4core3fmt9Arguments16new_v1_formatted17h36254c4d34d32351E>
ffffffff80004f5a: 48 8d 7d b0          	lea	rdi, [rbp - 80]
ffffffff80004f5e: e8 fd 5b 00 00       	call	0xffffffff8000ab60 <_ZN4core3fmt10ArgumentV111new_display17h8d7c3b1ab4909b4bE>
ffffffff80004f63: 48 89 45 a0          	mov	qword ptr [rbp - 96], rax
ffffffff80004f67: 48 89 55 a8          	mov	qword ptr [rbp - 88], rdx
ffffffff80004f6b: 48 8d 35 16 c5 00 00 	lea	rsi, [rip + 50454]      # 0xffffffff80011488 <xr6aouzjkjmurg0+0xffffffff80011488>
ffffffff80004f72: 48 8d bd 70 ff ff ff 	lea	rdi, [rbp - 144]
ffffffff80004f79: ba 02 00 00 00       	mov	edx, 2
ffffffff80004f7e: 48 8d 4d a0          	lea	rcx, [rbp - 96]
ffffffff80004f82: 41 b8 01 00 00 00    	mov	r8d, 1
ffffffff80004f88: e8 63 0c 00 00       	call	0xffffffff80005bf0 <_ZN4core3fmt9Arguments6new_v117h4ece5d28621dbecaE>
ffffffff80004f8d: 48 8d bd 70 ff ff ff 	lea	rdi, [rbp - 144]
ffffffff80004f94: e8 07 fb ff ff       	call	0xffffffff80004aa0 <_ZN3qos2fb6_print17hc3fbb4c70bda1274E>
ffffffff80004f99: 48 8b 85 58 ff ff ff 	mov	rax, qword ptr [rbp - 168]
ffffffff80004fa0: 0f 22 d8             	mov	cr3, rax
ffffffff80004fa3: 48 81 c4 c0 00 00 00 	add	rsp, 192
ffffffff80004faa: 5d                   	pop	rbp
ffffffff80004fab: c3                   	ret
ffffffff80004fac: cc                   	int3
ffffffff80004fad: cc                   	int3
ffffffff80004fae: cc                   	int3
ffffffff80004faf: cc                   	int3

ffffffff80004fb0 <_ZN4core5alloc6layout10size_align17h6873a8c6de4e547fE>:
ffffffff80004fb0: 55                   	push	rbp
ffffffff80004fb1: 48 89 e5             	mov	rbp, rsp
ffffffff80004fb4: 48 83 ec 10          	sub	rsp, 16
ffffffff80004fb8: 48 c7 45 f0 00 10 00 00      	mov	qword ptr [rbp - 16], 4096
ffffffff80004fc0: 48 c7 45 f8 00 10 00 00      	mov	qword ptr [rbp - 8], 4096
ffffffff80004fc8: 48 8b 45 f0          	mov	rax, qword ptr [rbp - 16]
ffffffff80004fcc: 48 8b 55 f8          	mov	rdx, qword ptr [rbp - 8]
ffffffff80004fd0: 48 83 c4 10          	add	rsp, 16
ffffffff80004fd4: 5d                   	pop	rbp
ffffffff80004fd5: c3                   	ret
ffffffff80004fd6: cc                   	int3
ffffffff80004fd7: cc                   	int3
ffffffff80004fd8: cc                   	int3
ffffffff80004fd9: cc                   	int3
ffffffff80004fda: cc                   	int3
ffffffff80004fdb: cc                   	int3
ffffffff80004fdc: cc                   	int3
ffffffff80004fdd: cc                   	int3
ffffffff80004fde: cc                   	int3
ffffffff80004fdf: cc                   	int3

ffffffff80004fe0 <_ZN4core5slice3cmp81_$LT$impl$u20$core..cmp..PartialEq$LT$$u5b$B$u5d$$GT$$u20$for$u20$$u5b$A$u5d$$GT$2eq17h8efb272358d6bf93E>:
ffffffff80004fe0: 55                   	push	rbp
ffffffff80004fe1: 48 89 e5             	mov	rbp, rsp
ffffffff80004fe4: 48 83 ec 20          	sub	rsp, 32
ffffffff80004fe8: 48 89 7d e0          	mov	qword ptr [rbp - 32], rdi
ffffffff80004fec: 48 89 75 e8          	mov	qword ptr [rbp - 24], rsi
ffffffff80004ff0: 48 89 55 f0          	mov	qword ptr [rbp - 16], rdx
ffffffff80004ff4: 48 89 4d f8          	mov	qword ptr [rbp - 8], rcx
ffffffff80004ff8: e8 13 00 00 00       	call	0xffffffff80005010 <_ZN73_$LT$$u5b$A$u5d$$u20$as$u20$core..slice..cmp..SlicePartialEq$LT$B$GT$$GT$5equal17hb319b6e2e0036024E>
ffffffff80004ffd: 24 01                	and	al, 1
ffffffff80004fff: 0f b6 c0             	movzx	eax, al
ffffffff80005002: 48 83 c4 20          	add	rsp, 32
ffffffff80005006: 5d                   	pop	rbp
ffffffff80005007: c3                   	ret
ffffffff80005008: cc                   	int3
ffffffff80005009: cc                   	int3
ffffffff8000500a: cc                   	int3
ffffffff8000500b: cc                   	int3
ffffffff8000500c: cc                   	int3
ffffffff8000500d: cc                   	int3
ffffffff8000500e: cc                   	int3
ffffffff8000500f: cc                   	int3

ffffffff80005010 <_ZN73_$LT$$u5b$A$u5d$$u20$as$u20$core..slice..cmp..SlicePartialEq$LT$B$GT$$GT$5equal17hb319b6e2e0036024E>:
ffffffff80005010: 55                   	push	rbp
ffffffff80005011: 48 89 e5             	mov	rbp, rsp
ffffffff80005014: 48 81 ec 90 00 00 00 	sub	rsp, 144
ffffffff8000501b: 48 89 8d 78 ff ff ff 	mov	qword ptr [rbp - 136], rcx
ffffffff80005022: 48 89 55 80          	mov	qword ptr [rbp - 128], rdx
ffffffff80005026: 48 89 75 88          	mov	qword ptr [rbp - 120], rsi
ffffffff8000502a: 48 89 7d 90          	mov	qword ptr [rbp - 112], rdi
ffffffff8000502e: 48 89 7d a0          	mov	qword ptr [rbp - 96], rdi
ffffffff80005032: 48 89 75 a8          	mov	qword ptr [rbp - 88], rsi
ffffffff80005036: 48 89 55 b0          	mov	qword ptr [rbp - 80], rdx
ffffffff8000503a: 48 89 4d b8          	mov	qword ptr [rbp - 72], rcx
ffffffff8000503e: 48 39 ce             	cmp	rsi, rcx
ffffffff80005041: 75 54                	jne	0xffffffff80005097 <_ZN73_$LT$$u5b$A$u5d$$u20$as$u20$core..slice..cmp..SlicePartialEq$LT$B$GT$$GT$5equal17hb319b6e2e0036024E+0x87>
ffffffff80005043: 48 8b 75 80          	mov	rsi, qword ptr [rbp - 128]
ffffffff80005047: 48 8b 7d 90          	mov	rdi, qword ptr [rbp - 112]
ffffffff8000504b: 48 8b 85 78 ff ff ff 	mov	rax, qword ptr [rbp - 136]
ffffffff80005052: 48 8b 4d 88          	mov	rcx, qword ptr [rbp - 120]
ffffffff80005056: 48 89 7d c0          	mov	qword ptr [rbp - 64], rdi
ffffffff8000505a: 48 89 4d c8          	mov	qword ptr [rbp - 56], rcx
ffffffff8000505e: 48 89 ca             	mov	rdx, rcx
ffffffff80005061: 48 c1 e2 00          	shl	rdx, 0
ffffffff80005065: 48 89 55 d0          	mov	qword ptr [rbp - 48], rdx
ffffffff80005069: 48 8b 55 d0          	mov	rdx, qword ptr [rbp - 48]
ffffffff8000506d: 48 89 55 d8          	mov	qword ptr [rbp - 40], rdx
ffffffff80005071: 48 89 7d e0          	mov	qword ptr [rbp - 32], rdi
ffffffff80005075: 48 89 4d e8          	mov	qword ptr [rbp - 24], rcx
ffffffff80005079: 48 89 75 f0          	mov	qword ptr [rbp - 16], rsi
ffffffff8000507d: 48 89 45 f8          	mov	qword ptr [rbp - 8], rax
ffffffff80005081: 48 8b 05 78 d0 00 00 	mov	rax, qword ptr [rip + 53368] # 0xffffffff80012100 <xr6aouzjkjmurg0+0xffffffff80012100>
ffffffff80005088: ff d0                	call	rax
ffffffff8000508a: 83 f8 00             	cmp	eax, 0
ffffffff8000508d: 0f 94 c0             	sete	al
ffffffff80005090: 24 01                	and	al, 1
ffffffff80005092: 88 45 9f             	mov	byte ptr [rbp - 97], al
ffffffff80005095: eb 04                	jmp	0xffffffff8000509b <_ZN73_$LT$$u5b$A$u5d$$u20$as$u20$core..slice..cmp..SlicePartialEq$LT$B$GT$$GT$5equal17hb319b6e2e0036024E+0x8b>
ffffffff80005097: c6 45 9f 00          	mov	byte ptr [rbp - 97], 0
ffffffff8000509b: 8a 45 9f             	mov	al, byte ptr [rbp - 97]
ffffffff8000509e: 24 01                	and	al, 1
ffffffff800050a0: 0f b6 c0             	movzx	eax, al
ffffffff800050a3: 48 81 c4 90 00 00 00 	add	rsp, 144
ffffffff800050aa: 5d                   	pop	rbp
ffffffff800050ab: c3                   	ret

ffffffff800050ac <load_gdt_asm>:
ffffffff800050ac: 0f 01 17             	lgdt	[rdi]
ffffffff800050af: 66 b8 10 00          	mov	ax, 16
ffffffff800050b3: 66 8e d8             	mov	ds, ax
ffffffff800050b6: 66 8e c0             	mov	es, ax
ffffffff800050b9: 66 8e e0             	mov	fs, ax
ffffffff800050bc: 66 8e e8             	mov	gs, ax
ffffffff800050bf: 66 8e d0             	mov	ss, ax
ffffffff800050c2: 5f                   	pop	rdi
ffffffff800050c3: 48 c7 c0 08 00 00 00 	mov	rax, 8
ffffffff800050ca: 50                   	push	rax
ffffffff800050cb: 57                   	push	rdi
ffffffff800050cc: 48 cb                	retfq
ffffffff800050ce: cc                   	int3
ffffffff800050cf: cc                   	int3

ffffffff800050d0 <rust_begin_unwind>:
ffffffff800050d0: 55                   	push	rbp
ffffffff800050d1: 48 89 e5             	mov	rbp, rsp
ffffffff800050d4: 48 81 ec 90 00 00 00 	sub	rsp, 144
ffffffff800050db: 48 89 bd 78 ff ff ff 	mov	qword ptr [rbp - 136], rdi
ffffffff800050e2: 48 8d bd 78 ff ff ff 	lea	rdi, [rbp - 136]
ffffffff800050e9: e8 22 5a 00 00       	call	0xffffffff8000ab10 <_ZN4core3fmt10ArgumentV111new_display17h68c8cdcf133c2727E>
ffffffff800050ee: 48 89 45 f0          	mov	qword ptr [rbp - 16], rax
ffffffff800050f2: 48 89 55 f8          	mov	qword ptr [rbp - 8], rdx
ffffffff800050f6: 48 8d 35 db c3 00 00 	lea	rsi, [rip + 50139]      # 0xffffffff800114d8 <xr6aouzjkjmurg0+0xffffffff800114d8>
ffffffff800050fd: 48 8d 7d c0          	lea	rdi, [rbp - 64]
ffffffff80005101: 48 8d 4d f0          	lea	rcx, [rbp - 16]
ffffffff80005105: 41 b8 01 00 00 00    	mov	r8d, 1
ffffffff8000510b: 4c 89 c2             	mov	rdx, r8
ffffffff8000510e: e8 dd 0a 00 00       	call	0xffffffff80005bf0 <_ZN4core3fmt9Arguments6new_v117h4ece5d28621dbecaE>
ffffffff80005113: 48 8d 7d c0          	lea	rdi, [rbp - 64]
ffffffff80005117: e8 44 5a 00 00       	call	0xffffffff8000ab60 <_ZN4core3fmt10ArgumentV111new_display17h8d7c3b1ab4909b4bE>
ffffffff8000511c: 48 89 45 b0          	mov	qword ptr [rbp - 80], rax
ffffffff80005120: 48 89 55 b8          	mov	qword ptr [rbp - 72], rdx
ffffffff80005124: 48 8d 35 8d c3 00 00 	lea	rsi, [rip + 50061]      # 0xffffffff800114b8 <xr6aouzjkjmurg0+0xffffffff800114b8>
ffffffff8000512b: 48 8d 7d 80          	lea	rdi, [rbp - 128]
ffffffff8000512f: ba 02 00 00 00       	mov	edx, 2
ffffffff80005134: 48 8d 4d b0          	lea	rcx, [rbp - 80]
ffffffff80005138: 41 b8 01 00 00 00    	mov	r8d, 1
ffffffff8000513e: e8 ad 0a 00 00       	call	0xffffffff80005bf0 <_ZN4core3fmt9Arguments6new_v117h4ece5d28621dbecaE>
ffffffff80005143: 48 8d 7d 80          	lea	rdi, [rbp - 128]
ffffffff80005147: e8 54 f9 ff ff       	call	0xffffffff80004aa0 <_ZN3qos2fb6_print17hc3fbb4c70bda1274E>
ffffffff8000514c: eb fe                	jmp	0xffffffff8000514c <rust_begin_unwind+0x7c>
ffffffff8000514e: cc                   	int3
ffffffff8000514f: cc                   	int3

ffffffff80005150 <_ZN3qos5start18page_fault_handler17hbc18a852951386e8E>:
ffffffff80005150: 50                   	push	rax
ffffffff80005151: 55                   	push	rbp
ffffffff80005152: 48 89 e5             	mov	rbp, rsp
ffffffff80005155: 41 53                	push	r11
ffffffff80005157: 41 52                	push	r10
ffffffff80005159: 41 51                	push	r9
ffffffff8000515b: 41 50                	push	r8
ffffffff8000515d: 57                   	push	rdi
ffffffff8000515e: 56                   	push	rsi
ffffffff8000515f: 52                   	push	rdx
ffffffff80005160: 51                   	push	rcx
ffffffff80005161: 50                   	push	rax
ffffffff80005162: 48 81 ec 80 00 00 00 	sub	rsp, 128
ffffffff80005169: fc                   	cld
ffffffff8000516a: 48 8b 45 10          	mov	rax, qword ptr [rbp + 16]
ffffffff8000516e: 48 8d 35 73 c3 00 00 	lea	rsi, [rip + 50035]      # 0xffffffff800114e8 <xr6aouzjkjmurg0+0xffffffff800114e8>
ffffffff80005175: 48 8d 0d ec c8 ff ff 	lea	rcx, [rip - 14100]      # 0xffffffff80001a68 <str.0+0x68>
ffffffff8000517c: 31 c0                	xor	eax, eax
ffffffff8000517e: 41 89 c0             	mov	r8d, eax
ffffffff80005181: 48 8d 7d 88          	lea	rdi, [rbp - 120]
ffffffff80005185: ba 01 00 00 00       	mov	edx, 1
ffffffff8000518a: e8 61 0a 00 00       	call	0xffffffff80005bf0 <_ZN4core3fmt9Arguments6new_v117h4ece5d28621dbecaE>
ffffffff8000518f: 48 8d 7d 88          	lea	rdi, [rbp - 120]
ffffffff80005193: e8 c8 59 00 00       	call	0xffffffff8000ab60 <_ZN4core3fmt10ArgumentV111new_display17h8d7c3b1ab4909b4bE>
ffffffff80005198: 48 89 85 78 ff ff ff 	mov	qword ptr [rbp - 136], rax
ffffffff8000519f: 48 89 55 80          	mov	qword ptr [rbp - 128], rdx
ffffffff800051a3: 48 8d 35 0e c3 00 00 	lea	rsi, [rip + 49934]      # 0xffffffff800114b8 <xr6aouzjkjmurg0+0xffffffff800114b8>
ffffffff800051aa: 48 8d bd 48 ff ff ff 	lea	rdi, [rbp - 184]
ffffffff800051b1: ba 02 00 00 00       	mov	edx, 2
ffffffff800051b6: 48 8d 8d 78 ff ff ff 	lea	rcx, [rbp - 136]
ffffffff800051bd: 41 b8 01 00 00 00    	mov	r8d, 1
ffffffff800051c3: e8 28 0a 00 00       	call	0xffffffff80005bf0 <_ZN4core3fmt9Arguments6new_v117h4ece5d28621dbecaE>
ffffffff800051c8: 48 8d bd 48 ff ff ff 	lea	rdi, [rbp - 184]
ffffffff800051cf: e8 cc f8 ff ff       	call	0xffffffff80004aa0 <_ZN3qos2fb6_print17hc3fbb4c70bda1274E>
ffffffff800051d4: f4                   	hlt
ffffffff800051d5: eb fd                	jmp	0xffffffff800051d4 <_ZN3qos5start18page_fault_handler17hbc18a852951386e8E+0x84>
ffffffff800051d7: cc                   	int3
ffffffff800051d8: cc                   	int3
ffffffff800051d9: cc                   	int3
ffffffff800051da: cc                   	int3
ffffffff800051db: cc                   	int3
ffffffff800051dc: cc                   	int3
ffffffff800051dd: cc                   	int3
ffffffff800051de: cc                   	int3
ffffffff800051df: cc                   	int3

ffffffff800051e0 <_ZN3qos5start20double_fault_handler17h5edeb74110fcfc83E>:
ffffffff800051e0: 50                   	push	rax
ffffffff800051e1: 55                   	push	rbp
ffffffff800051e2: 48 89 e5             	mov	rbp, rsp
ffffffff800051e5: 41 53                	push	r11
ffffffff800051e7: 41 52                	push	r10
ffffffff800051e9: 41 51                	push	r9
ffffffff800051eb: 41 50                	push	r8
ffffffff800051ed: 57                   	push	rdi
ffffffff800051ee: 56                   	push	rsi
ffffffff800051ef: 52                   	push	rdx
ffffffff800051f0: 51                   	push	rcx
ffffffff800051f1: 50                   	push	rax
ffffffff800051f2: 48 81 ec 80 00 00 00 	sub	rsp, 128
ffffffff800051f9: fc                   	cld
ffffffff800051fa: 48 8b 45 10          	mov	rax, qword ptr [rbp + 16]
ffffffff800051fe: 48 8d 35 f3 c2 00 00 	lea	rsi, [rip + 49907]      # 0xffffffff800114f8 <xr6aouzjkjmurg0+0xffffffff800114f8>
ffffffff80005205: 48 8d 0d 5c c8 ff ff 	lea	rcx, [rip - 14244]      # 0xffffffff80001a68 <str.0+0x68>
ffffffff8000520c: 31 c0                	xor	eax, eax
ffffffff8000520e: 41 89 c0             	mov	r8d, eax
ffffffff80005211: 48 8d 7d 88          	lea	rdi, [rbp - 120]
ffffffff80005215: ba 01 00 00 00       	mov	edx, 1
ffffffff8000521a: e8 d1 09 00 00       	call	0xffffffff80005bf0 <_ZN4core3fmt9Arguments6new_v117h4ece5d28621dbecaE>
ffffffff8000521f: 48 8d 7d 88          	lea	rdi, [rbp - 120]
ffffffff80005223: e8 38 59 00 00       	call	0xffffffff8000ab60 <_ZN4core3fmt10ArgumentV111new_display17h8d7c3b1ab4909b4bE>
ffffffff80005228: 48 89 85 78 ff ff ff 	mov	qword ptr [rbp - 136], rax
ffffffff8000522f: 48 89 55 80          	mov	qword ptr [rbp - 128], rdx
ffffffff80005233: 48 8d 35 7e c2 00 00 	lea	rsi, [rip + 49790]      # 0xffffffff800114b8 <xr6aouzjkjmurg0+0xffffffff800114b8>
ffffffff8000523a: 48 8d bd 48 ff ff ff 	lea	rdi, [rbp - 184]
ffffffff80005241: ba 02 00 00 00       	mov	edx, 2
ffffffff80005246: 48 8d 8d 78 ff ff ff 	lea	rcx, [rbp - 136]
ffffffff8000524d: 41 b8 01 00 00 00    	mov	r8d, 1
ffffffff80005253: e8 98 09 00 00       	call	0xffffffff80005bf0 <_ZN4core3fmt9Arguments6new_v117h4ece5d28621dbecaE>
ffffffff80005258: 48 8d bd 48 ff ff ff 	lea	rdi, [rbp - 184]
ffffffff8000525f: e8 3c f8 ff ff       	call	0xffffffff80004aa0 <_ZN3qos2fb6_print17hc3fbb4c70bda1274E>
ffffffff80005264: f4                   	hlt
ffffffff80005265: eb fd                	jmp	0xffffffff80005264 <_ZN3qos5start20double_fault_handler17h5edeb74110fcfc83E+0x84>
ffffffff80005267: cc                   	int3
ffffffff80005268: cc                   	int3
ffffffff80005269: cc                   	int3
ffffffff8000526a: cc                   	int3
ffffffff8000526b: cc                   	int3
ffffffff8000526c: cc                   	int3
ffffffff8000526d: cc                   	int3
ffffffff8000526e: cc                   	int3
ffffffff8000526f: cc                   	int3

ffffffff80005270 <_ZN3qos5start8load_gdt17hc5a7e2a6d83dfb33E>:
ffffffff80005270: 55                   	push	rbp
ffffffff80005271: 48 89 e5             	mov	rbp, rsp
ffffffff80005274: 48 83 ec 30          	sub	rsp, 48
ffffffff80005278: 48 8d 3d 61 f1 00 00 	lea	rdi, [rip + 61793]      # 0xffffffff800143e0 <_ZN3qos5start3GDT17h8a5ca816030a50bcE>
ffffffff8000527f: e8 dc 0a 00 00       	call	0xffffffff80005d60 <_ZN4core3mem11size_of_val17h843e992b44118eb9E>
ffffffff80005284: 66 89 c1             	mov	cx, ax
ffffffff80005287: 66 83 e9 01          	sub	cx, 1
ffffffff8000528b: 66 89 4d de          	mov	word ptr [rbp - 34], cx
ffffffff8000528f: 66 83 f8 01          	cmp	ax, 1
ffffffff80005293: 0f 92 c0             	setb	al
ffffffff80005296: a8 01                	test	al, 1
ffffffff80005298: 75 32                	jne	0xffffffff800052cc <_ZN3qos5start8load_gdt17hc5a7e2a6d83dfb33E+0x5c>
ffffffff8000529a: 66 8b 4d de          	mov	cx, word ptr [rbp - 34]
ffffffff8000529e: 48 8d 05 3b f1 00 00 	lea	rax, [rip + 61755]      # 0xffffffff800143e0 <_ZN3qos5start3GDT17h8a5ca816030a50bcE>
ffffffff800052a5: 48 89 45 f0          	mov	qword ptr [rbp - 16], rax
ffffffff800052a9: 48 c7 45 f8 05 00 00 00      	mov	qword ptr [rbp - 8], 5
ffffffff800052b1: 66 89 4d e0          	mov	word ptr [rbp - 32], cx
ffffffff800052b5: 48 89 45 e2          	mov	qword ptr [rbp - 30], rax
ffffffff800052b9: 48 8b 05 48 ce 00 00 	mov	rax, qword ptr [rip + 52808] # 0xffffffff80012108 <xr6aouzjkjmurg0+0xffffffff80012108>
ffffffff800052c0: 48 8d 7d e0          	lea	rdi, [rbp - 32]
ffffffff800052c4: ff d0                	call	rax
ffffffff800052c6: 48 83 c4 30          	add	rsp, 48
ffffffff800052ca: 5d                   	pop	rbp
ffffffff800052cb: c3                   	ret
ffffffff800052cc: 48 8d 3d bd c7 ff ff 	lea	rdi, [rip - 14403]      # 0xffffffff80001a90 <str.0>
ffffffff800052d3: 48 8d 15 2e c2 00 00 	lea	rdx, [rip + 49710]      # 0xffffffff80011508 <xr6aouzjkjmurg0+0xffffffff80011508>
ffffffff800052da: 48 8b 05 ff cd 00 00 	mov	rax, qword ptr [rip + 52735] # 0xffffffff800120e0 <xr6aouzjkjmurg0+0xffffffff800120e0>
ffffffff800052e1: be 21 00 00 00       	mov	esi, 33
ffffffff800052e6: ff d0                	call	rax
ffffffff800052e8: 0f 0b                	ud2
ffffffff800052ea: cc                   	int3
ffffffff800052eb: cc                   	int3
ffffffff800052ec: cc                   	int3
ffffffff800052ed: cc                   	int3
ffffffff800052ee: cc                   	int3
ffffffff800052ef: cc                   	int3

ffffffff800052f0 <_start>:
ffffffff800052f0: 55                   	push	rbp
ffffffff800052f1: 48 89 e5             	mov	rbp, rsp
ffffffff800052f4: 48 81 ec d0 01 00 00 	sub	rsp, 464
ffffffff800052fb: 48 8d 3d c2 c7 ff ff 	lea	rdi, [rip - 14398]      # 0xffffffff80001ac4 <str.0+0x34>
ffffffff80005302: 48 89 bd 58 fe ff ff 	mov	qword ptr [rbp - 424], rdi
ffffffff80005309: e8 b2 57 00 00       	call	0xffffffff8000aac0 <_ZN4core3fmt10ArgumentV111new_display17h0a021d1230eb4007E>
ffffffff8000530e: 48 89 85 00 ff ff ff 	mov	qword ptr [rbp - 256], rax
ffffffff80005315: 48 89 95 08 ff ff ff 	mov	qword ptr [rbp - 248], rdx
ffffffff8000531c: 48 8d 35 fd c1 00 00 	lea	rsi, [rip + 49661]      # 0xffffffff80011520 <xr6aouzjkjmurg0+0xffffffff80011520>
ffffffff80005323: 48 89 b5 60 fe ff ff 	mov	qword ptr [rbp - 416], rsi
ffffffff8000532a: 48 8d bd d0 fe ff ff 	lea	rdi, [rbp - 304]
ffffffff80005331: 48 89 bd 30 fe ff ff 	mov	qword ptr [rbp - 464], rdi
ffffffff80005338: 48 8d 8d 00 ff ff ff 	lea	rcx, [rbp - 256]
ffffffff8000533f: 41 b8 01 00 00 00    	mov	r8d, 1
ffffffff80005345: 4c 89 85 78 fe ff ff 	mov	qword ptr [rbp - 392], r8
ffffffff8000534c: 4c 89 c2             	mov	rdx, r8
ffffffff8000534f: e8 9c 08 00 00       	call	0xffffffff80005bf0 <_ZN4core3fmt9Arguments6new_v117h4ece5d28621dbecaE>
ffffffff80005354: 48 8b bd 30 fe ff ff 	mov	rdi, qword ptr [rbp - 464]
ffffffff8000535b: e8 00 58 00 00       	call	0xffffffff8000ab60 <_ZN4core3fmt10ArgumentV111new_display17h8d7c3b1ab4909b4bE>
ffffffff80005360: 4c 8b 85 78 fe ff ff 	mov	r8, qword ptr [rbp - 392]
ffffffff80005367: 48 89 85 c0 fe ff ff 	mov	qword ptr [rbp - 320], rax
ffffffff8000536e: 48 89 95 c8 fe ff ff 	mov	qword ptr [rbp - 312], rdx
ffffffff80005375: 48 8d 35 3c c1 00 00 	lea	rsi, [rip + 49468]      # 0xffffffff800114b8 <xr6aouzjkjmurg0+0xffffffff800114b8>
ffffffff8000537c: 48 89 b5 70 fe ff ff 	mov	qword ptr [rbp - 400], rsi
ffffffff80005383: 48 8d bd 90 fe ff ff 	lea	rdi, [rbp - 368]
ffffffff8000538a: 48 89 bd 38 fe ff ff 	mov	qword ptr [rbp - 456], rdi
ffffffff80005391: ba 02 00 00 00       	mov	edx, 2
ffffffff80005396: 48 89 95 80 fe ff ff 	mov	qword ptr [rbp - 384], rdx
ffffffff8000539d: 48 8d 8d c0 fe ff ff 	lea	rcx, [rbp - 320]
ffffffff800053a4: e8 47 08 00 00       	call	0xffffffff80005bf0 <_ZN4core3fmt9Arguments6new_v117h4ece5d28621dbecaE>
ffffffff800053a9: 48 8b bd 38 fe ff ff 	mov	rdi, qword ptr [rbp - 456]
ffffffff800053b0: e8 eb f6 ff ff       	call	0xffffffff80004aa0 <_ZN3qos2fb6_print17hc3fbb4c70bda1274E>
ffffffff800053b5: fa                   	cli
ffffffff800053b6: e8 b5 fe ff ff       	call	0xffffffff80005270 <_ZN3qos5start8load_gdt17hc5a7e2a6d83dfb33E>
ffffffff800053bb: 48 8d 3d fe e0 00 00 	lea	rdi, [rip + 57598]      # 0xffffffff800134c0 <_ZN3qos5start3IDT17hf91423581deca066E+0xe0>
ffffffff800053c2: 48 8d 35 87 fd ff ff 	lea	rsi, [rip - 633]        # 0xffffffff80005150 <_ZN3qos5start18page_fault_handler17hbc18a852951386e8E>
ffffffff800053c9: e8 92 72 00 00       	call	0xffffffff8000c660 <_ZN6x86_6410structures3idt152Entry$LT$extern$u20$$u22$x86.interrupt$u22$$u20$fn$LP$x86_64..structures..idt..InterruptStackFrame$C$x86_64..structures..idt..PageFaultErrorCode$RP$$GT$14set_handler_fn17hae6567ad9a762b98E>
ffffffff800053ce: 48 8d 05 0b e0 00 00 	lea	rax, [rip + 57355]      # 0xffffffff800133e0 <_ZN3qos5start3IDT17hf91423581deca066E>
ffffffff800053d5: 48 89 85 40 fe ff ff 	mov	qword ptr [rbp - 448], rax
ffffffff800053dc: 48 8d 3d 7d e0 00 00 	lea	rdi, [rip + 57469]      # 0xffffffff80013460 <_ZN3qos5start3IDT17hf91423581deca066E+0x80>
ffffffff800053e3: 48 8d 35 f6 fd ff ff 	lea	rsi, [rip - 522]        # 0xffffffff800051e0 <_ZN3qos5start20double_fault_handler17h5edeb74110fcfc83E>
ffffffff800053ea: e8 31 72 00 00       	call	0xffffffff8000c620 <_ZN6x86_6410structures3idt132Entry$LT$extern$u20$$u22$x86.interrupt$u22$$u20$fn$LP$x86_64..structures..idt..InterruptStackFrame$C$u64$RP$$u20$.$GT$$u20$$u21$$GT$14set_handler_fn17h5a86998c3bfa37d4E>
ffffffff800053ef: 48 8b bd 40 fe ff ff 	mov	rdi, qword ptr [rbp - 448]
ffffffff800053f6: e8 d5 72 00 00       	call	0xffffffff8000c6d0 <_ZN6x86_6410structures3idt24InterruptDescriptorTable4load17h0a6cf700a83f5004E>
ffffffff800053fb: 48 8b 95 78 fe ff ff 	mov	rdx, qword ptr [rbp - 392]
ffffffff80005402: fb                   	sti
ffffffff80005403: 48 8d 35 26 c1 00 00 	lea	rsi, [rip + 49446]      # 0xffffffff80011530 <xr6aouzjkjmurg0+0xffffffff80011530>
ffffffff8000540a: 48 8d 0d 57 c6 ff ff 	lea	rcx, [rip - 14761]      # 0xffffffff80001a68 <str.0+0x68>
ffffffff80005411: 31 c0                	xor	eax, eax
ffffffff80005413: 41 89 c0             	mov	r8d, eax
ffffffff80005416: 48 8d bd 50 ff ff ff 	lea	rdi, [rbp - 176]
ffffffff8000541d: 48 89 bd 48 fe ff ff 	mov	qword ptr [rbp - 440], rdi
ffffffff80005424: e8 c7 07 00 00       	call	0xffffffff80005bf0 <_ZN4core3fmt9Arguments6new_v117h4ece5d28621dbecaE>
ffffffff80005429: 48 8b bd 48 fe ff ff 	mov	rdi, qword ptr [rbp - 440]
ffffffff80005430: e8 2b 57 00 00       	call	0xffffffff8000ab60 <_ZN4core3fmt10ArgumentV111new_display17h8d7c3b1ab4909b4bE>
ffffffff80005435: 48 8b b5 70 fe ff ff 	mov	rsi, qword ptr [rbp - 400]
ffffffff8000543c: 4c 8b 85 78 fe ff ff 	mov	r8, qword ptr [rbp - 392]
ffffffff80005443: 48 89 c1             	mov	rcx, rax
ffffffff80005446: 48 89 d0             	mov	rax, rdx
ffffffff80005449: 48 8b 95 80 fe ff ff 	mov	rdx, qword ptr [rbp - 384]
ffffffff80005450: 48 89 8d 40 ff ff ff 	mov	qword ptr [rbp - 192], rcx
ffffffff80005457: 48 89 85 48 ff ff ff 	mov	qword ptr [rbp - 184], rax
ffffffff8000545e: 48 8d bd 10 ff ff ff 	lea	rdi, [rbp - 240]
ffffffff80005465: 48 89 bd 50 fe ff ff 	mov	qword ptr [rbp - 432], rdi
ffffffff8000546c: 48 8d 8d 40 ff ff ff 	lea	rcx, [rbp - 192]
ffffffff80005473: e8 78 07 00 00       	call	0xffffffff80005bf0 <_ZN4core3fmt9Arguments6new_v117h4ece5d28621dbecaE>
ffffffff80005478: 48 8b bd 50 fe ff ff 	mov	rdi, qword ptr [rbp - 432]
ffffffff8000547f: e8 1c f6 ff ff       	call	0xffffffff80004aa0 <_ZN3qos2fb6_print17hc3fbb4c70bda1274E>
ffffffff80005484: e8 57 59 00 00       	call	0xffffffff8000ade0 <_ZN3qos9allocator11init_memory17hdae524878cc05e68E>
ffffffff80005489: 48 8b bd 58 fe ff ff 	mov	rdi, qword ptr [rbp - 424]
ffffffff80005490: e8 2b 56 00 00       	call	0xffffffff8000aac0 <_ZN4core3fmt10ArgumentV111new_display17h0a021d1230eb4007E>
ffffffff80005495: 48 8b b5 60 fe ff ff 	mov	rsi, qword ptr [rbp - 416]
ffffffff8000549c: 4c 8b 85 78 fe ff ff 	mov	r8, qword ptr [rbp - 392]
ffffffff800054a3: 48 89 45 f0          	mov	qword ptr [rbp - 16], rax
ffffffff800054a7: 48 89 55 f8          	mov	qword ptr [rbp - 8], rdx
ffffffff800054ab: 48 8d 7d c0          	lea	rdi, [rbp - 64]
ffffffff800054af: 48 89 bd 68 fe ff ff 	mov	qword ptr [rbp - 408], rdi
ffffffff800054b6: 48 8d 4d f0          	lea	rcx, [rbp - 16]
ffffffff800054ba: 4c 89 c2             	mov	rdx, r8
ffffffff800054bd: e8 2e 07 00 00       	call	0xffffffff80005bf0 <_ZN4core3fmt9Arguments6new_v117h4ece5d28621dbecaE>
ffffffff800054c2: 48 8b bd 68 fe ff ff 	mov	rdi, qword ptr [rbp - 408]
ffffffff800054c9: e8 92 56 00 00       	call	0xffffffff8000ab60 <_ZN4core3fmt10ArgumentV111new_display17h8d7c3b1ab4909b4bE>
ffffffff800054ce: 48 8b b5 70 fe ff ff 	mov	rsi, qword ptr [rbp - 400]
ffffffff800054d5: 4c 8b 85 78 fe ff ff 	mov	r8, qword ptr [rbp - 392]
ffffffff800054dc: 48 89 c1             	mov	rcx, rax
ffffffff800054df: 48 89 d0             	mov	rax, rdx
ffffffff800054e2: 48 8b 95 80 fe ff ff 	mov	rdx, qword ptr [rbp - 384]
ffffffff800054e9: 48 89 4d b0          	mov	qword ptr [rbp - 80], rcx
ffffffff800054ed: 48 89 45 b8          	mov	qword ptr [rbp - 72], rax
ffffffff800054f1: 48 8d 7d 80          	lea	rdi, [rbp - 128]
ffffffff800054f5: 48 89 bd 88 fe ff ff 	mov	qword ptr [rbp - 376], rdi
ffffffff800054fc: 48 8d 4d b0          	lea	rcx, [rbp - 80]
ffffffff80005500: e8 eb 06 00 00       	call	0xffffffff80005bf0 <_ZN4core3fmt9Arguments6new_v117h4ece5d28621dbecaE>
ffffffff80005505: 48 8b bd 88 fe ff ff 	mov	rdi, qword ptr [rbp - 376]
ffffffff8000550c: e8 8f f5 ff ff       	call	0xffffffff80004aa0 <_ZN3qos2fb6_print17hc3fbb4c70bda1274E>
ffffffff80005511: e8 aa 43 00 00       	call	0xffffffff800098c0 <_ZN3qos4main17h5f2d368ec6d50b56E>
ffffffff80005516: 0f 0b                	ud2
ffffffff80005518: cc                   	int3
ffffffff80005519: cc                   	int3
ffffffff8000551a: cc                   	int3
ffffffff8000551b: cc                   	int3
ffffffff8000551c: cc                   	int3
ffffffff8000551d: cc                   	int3
ffffffff8000551e: cc                   	int3
ffffffff8000551f: cc                   	int3

ffffffff80005520 <_ZN4core3fmt5Write10write_char17ha65e8796709111dfE>:
ffffffff80005520: 55                   	push	rbp
ffffffff80005521: 48 89 e5             	mov	rbp, rsp
ffffffff80005524: 48 83 ec 50          	sub	rsp, 80
ffffffff80005528: 89 75 bc             	mov	dword ptr [rbp - 68], esi
ffffffff8000552b: 48 89 f8             	mov	rax, rdi
ffffffff8000552e: 8b 7d bc             	mov	edi, dword ptr [rbp - 68]
ffffffff80005531: 48 89 45 c0          	mov	qword ptr [rbp - 64], rax
ffffffff80005535: 48 89 45 d0          	mov	qword ptr [rbp - 48], rax
ffffffff80005539: 89 7d d8             	mov	dword ptr [rbp - 40], edi
ffffffff8000553c: 89 7d dc             	mov	dword ptr [rbp - 36], edi
ffffffff8000553f: 48 8d 45 cc          	lea	rax, [rbp - 52]
ffffffff80005543: 31 c9                	xor	ecx, ecx
ffffffff80005545: c7 00 00 00 00 00    	mov	dword ptr [rax], 0
ffffffff8000554b: 48 8d 45 cc          	lea	rax, [rbp - 52]
ffffffff8000554f: 48 89 45 e0          	mov	qword ptr [rbp - 32], rax
ffffffff80005553: 48 c7 45 e8 04 00 00 00      	mov	qword ptr [rbp - 24], 4
ffffffff8000555b: 48 8d 75 cc          	lea	rsi, [rbp - 52]
ffffffff8000555f: ba 04 00 00 00       	mov	edx, 4
ffffffff80005564: e8 67 43 00 00       	call	0xffffffff800098d0 <_ZN4core4char7methods15encode_utf8_raw17h6ea87864e051bdf2E>
ffffffff80005569: 48 8b 7d c0          	mov	rdi, qword ptr [rbp - 64]
ffffffff8000556d: 48 89 c6             	mov	rsi, rax
ffffffff80005570: 48 89 75 f0          	mov	qword ptr [rbp - 16], rsi
ffffffff80005574: 48 89 55 f8          	mov	qword ptr [rbp - 8], rdx
ffffffff80005578: e8 b3 ec ff ff       	call	0xffffffff80004230 <_ZN52_$LT$qos..fb..Writer$u20$as$u20$core..fmt..Write$GT$9write_str17h8d801ecc03643facE>
ffffffff8000557d: 24 01                	and	al, 1
ffffffff8000557f: 0f b6 c0             	movzx	eax, al
ffffffff80005582: 48 83 c4 50          	add	rsp, 80
ffffffff80005586: 5d                   	pop	rbp
ffffffff80005587: c3                   	ret
ffffffff80005588: cc                   	int3
ffffffff80005589: cc                   	int3
ffffffff8000558a: cc                   	int3
ffffffff8000558b: cc                   	int3
ffffffff8000558c: cc                   	int3
ffffffff8000558d: cc                   	int3
ffffffff8000558e: cc                   	int3
ffffffff8000558f: cc                   	int3

ffffffff80005590 <_ZN4core3fmt5Write9write_fmt17h9d59cb372bdb625bE>:
ffffffff80005590: 55                   	push	rbp
ffffffff80005591: 48 89 e5             	mov	rbp, rsp
ffffffff80005594: 48 83 ec 40          	sub	rsp, 64
ffffffff80005598: 48 89 7d c8          	mov	qword ptr [rbp - 56], rdi
ffffffff8000559c: 48 8b 46 28          	mov	rax, qword ptr [rsi + 40]
ffffffff800055a0: 48 89 45 f8          	mov	qword ptr [rbp - 8], rax
ffffffff800055a4: 48 8b 46 20          	mov	rax, qword ptr [rsi + 32]
ffffffff800055a8: 48 89 45 f0          	mov	qword ptr [rbp - 16], rax
ffffffff800055ac: 48 8b 46 18          	mov	rax, qword ptr [rsi + 24]
ffffffff800055b0: 48 89 45 e8          	mov	qword ptr [rbp - 24], rax
ffffffff800055b4: 48 8b 46 10          	mov	rax, qword ptr [rsi + 16]
ffffffff800055b8: 48 89 45 e0          	mov	qword ptr [rbp - 32], rax
ffffffff800055bc: 48 8b 06             	mov	rax, qword ptr [rsi]
ffffffff800055bf: 48 8b 4e 08          	mov	rcx, qword ptr [rsi + 8]
ffffffff800055c3: 48 89 4d d8          	mov	qword ptr [rbp - 40], rcx
ffffffff800055c7: 48 89 45 d0          	mov	qword ptr [rbp - 48], rax
ffffffff800055cb: 48 8d 35 6e bf 00 00 	lea	rsi, [rip + 49006]      # 0xffffffff80011540 <xr6aouzjkjmurg0+0xffffffff80011540>
ffffffff800055d2: 48 8b 05 37 cb 00 00 	mov	rax, qword ptr [rip + 52023] # 0xffffffff80012110 <xr6aouzjkjmurg0+0xffffffff80012110>
ffffffff800055d9: 48 8d 7d c8          	lea	rdi, [rbp - 56]
ffffffff800055dd: 48 8d 55 d0          	lea	rdx, [rbp - 48]
ffffffff800055e1: ff d0                	call	rax
ffffffff800055e3: 24 01                	and	al, 1
ffffffff800055e5: 0f b6 c0             	movzx	eax, al
ffffffff800055e8: 48 83 c4 40          	add	rsp, 64
ffffffff800055ec: 5d                   	pop	rbp
ffffffff800055ed: c3                   	ret
ffffffff800055ee: cc                   	int3
ffffffff800055ef: cc                   	int3

ffffffff800055f0 <_ZN50_$LT$$RF$mut$u20$W$u20$as$u20$core..fmt..Write$GT$10write_char17h23ef68404eaacc1dE>:
ffffffff800055f0: 55                   	push	rbp
ffffffff800055f1: 48 89 e5             	mov	rbp, rsp
ffffffff800055f4: 48 83 ec 10          	sub	rsp, 16
ffffffff800055f8: 48 89 7d f0          	mov	qword ptr [rbp - 16], rdi
ffffffff800055fc: 89 75 fc             	mov	dword ptr [rbp - 4], esi
ffffffff800055ff: 48 8b 3f             	mov	rdi, qword ptr [rdi]
ffffffff80005602: e8 19 ff ff ff       	call	0xffffffff80005520 <_ZN4core3fmt5Write10write_char17ha65e8796709111dfE>
ffffffff80005607: 24 01                	and	al, 1
ffffffff80005609: 0f b6 c0             	movzx	eax, al
ffffffff8000560c: 48 83 c4 10          	add	rsp, 16
ffffffff80005610: 5d                   	pop	rbp
ffffffff80005611: c3                   	ret
ffffffff80005612: cc                   	int3
ffffffff80005613: cc                   	int3
ffffffff80005614: cc                   	int3
ffffffff80005615: cc                   	int3
ffffffff80005616: cc                   	int3
ffffffff80005617: cc                   	int3
ffffffff80005618: cc                   	int3
ffffffff80005619: cc                   	int3
ffffffff8000561a: cc                   	int3
ffffffff8000561b: cc                   	int3
ffffffff8000561c: cc                   	int3
ffffffff8000561d: cc                   	int3
ffffffff8000561e: cc                   	int3
ffffffff8000561f: cc                   	int3

ffffffff80005620 <_ZN50_$LT$$RF$mut$u20$W$u20$as$u20$core..fmt..Write$GT$9write_fmt17ha3eae4d536299e2dE>:
ffffffff80005620: 55                   	push	rbp
ffffffff80005621: 48 89 e5             	mov	rbp, rsp
ffffffff80005624: 48 83 ec 40          	sub	rsp, 64
ffffffff80005628: 48 89 7d f8          	mov	qword ptr [rbp - 8], rdi
ffffffff8000562c: 48 8b 3f             	mov	rdi, qword ptr [rdi]
ffffffff8000562f: 48 8b 46 28          	mov	rax, qword ptr [rsi + 40]
ffffffff80005633: 48 89 45 f0          	mov	qword ptr [rbp - 16], rax
ffffffff80005637: 48 8b 46 20          	mov	rax, qword ptr [rsi + 32]
ffffffff8000563b: 48 89 45 e8          	mov	qword ptr [rbp - 24], rax
ffffffff8000563f: 48 8b 46 18          	mov	rax, qword ptr [rsi + 24]
ffffffff80005643: 48 89 45 e0          	mov	qword ptr [rbp - 32], rax
ffffffff80005647: 48 8b 46 10          	mov	rax, qword ptr [rsi + 16]
ffffffff8000564b: 48 89 45 d8          	mov	qword ptr [rbp - 40], rax
ffffffff8000564f: 48 8b 06             	mov	rax, qword ptr [rsi]
ffffffff80005652: 48 8b 4e 08          	mov	rcx, qword ptr [rsi + 8]
ffffffff80005656: 48 89 4d d0          	mov	qword ptr [rbp - 48], rcx
ffffffff8000565a: 48 89 45 c8          	mov	qword ptr [rbp - 56], rax
ffffffff8000565e: 48 8d 75 c8          	lea	rsi, [rbp - 56]
ffffffff80005662: e8 29 ff ff ff       	call	0xffffffff80005590 <_ZN4core3fmt5Write9write_fmt17h9d59cb372bdb625bE>
ffffffff80005667: 24 01                	and	al, 1
ffffffff80005669: 0f b6 c0             	movzx	eax, al
ffffffff8000566c: 48 83 c4 40          	add	rsp, 64
ffffffff80005670: 5d                   	pop	rbp
ffffffff80005671: c3                   	ret
ffffffff80005672: cc                   	int3
ffffffff80005673: cc                   	int3
ffffffff80005674: cc                   	int3
ffffffff80005675: cc                   	int3
ffffffff80005676: cc                   	int3
ffffffff80005677: cc                   	int3
ffffffff80005678: cc                   	int3
ffffffff80005679: cc                   	int3
ffffffff8000567a: cc                   	int3
ffffffff8000567b: cc                   	int3
ffffffff8000567c: cc                   	int3
ffffffff8000567d: cc                   	int3
ffffffff8000567e: cc                   	int3
ffffffff8000567f: cc                   	int3

ffffffff80005680 <_ZN50_$LT$$RF$mut$u20$W$u20$as$u20$core..fmt..Write$GT$9write_str17h952e7dc5906a8ebeE>:
ffffffff80005680: 55                   	push	rbp
ffffffff80005681: 48 89 e5             	mov	rbp, rsp
ffffffff80005684: 48 83 ec 20          	sub	rsp, 32
ffffffff80005688: 48 89 7d e8          	mov	qword ptr [rbp - 24], rdi
ffffffff8000568c: 48 89 75 f0          	mov	qword ptr [rbp - 16], rsi
ffffffff80005690: 48 89 55 f8          	mov	qword ptr [rbp - 8], rdx
ffffffff80005694: 48 8b 3f             	mov	rdi, qword ptr [rdi]
ffffffff80005697: e8 94 eb ff ff       	call	0xffffffff80004230 <_ZN52_$LT$qos..fb..Writer$u20$as$u20$core..fmt..Write$GT$9write_str17h8d801ecc03643facE>
ffffffff8000569c: 24 01                	and	al, 1
ffffffff8000569e: 0f b6 c0             	movzx	eax, al
ffffffff800056a1: 48 83 c4 20          	add	rsp, 32
ffffffff800056a5: 5d                   	pop	rbp
ffffffff800056a6: c3                   	ret
ffffffff800056a7: cc                   	int3
ffffffff800056a8: cc                   	int3
ffffffff800056a9: cc                   	int3
ffffffff800056aa: cc                   	int3
ffffffff800056ab: cc                   	int3
ffffffff800056ac: cc                   	int3
ffffffff800056ad: cc                   	int3
ffffffff800056ae: cc                   	int3
ffffffff800056af: cc                   	int3

ffffffff800056b0 <_ZN3qos2fb6WRITER28_$u7b$$u7b$closure$u7d$$u7d$17hd67f534cb809b8c8E>:
ffffffff800056b0: 55                   	push	rbp
ffffffff800056b1: 48 89 e5             	mov	rbp, rsp
ffffffff800056b4: 48 81 ec 60 03 00 00 	sub	rsp, 864
ffffffff800056bb: 48 89 bd b8 fc ff ff 	mov	qword ptr [rbp - 840], rdi
ffffffff800056c2: 48 89 bd c0 fc ff ff 	mov	qword ptr [rbp - 832], rdi
ffffffff800056c9: 48 89 b5 90 fe ff ff 	mov	qword ptr [rbp - 368], rsi
ffffffff800056d0: 48 8d 3d a1 dc 00 00 	lea	rdi, [rip + 56481]      # 0xffffffff80013378 <_ZN3qos5start19FRAMEBUFFER_REQUEST17h5a533171e9dd44dcE+0x28>
ffffffff800056d7: e8 a4 2a 00 00       	call	0xffffffff80008180 <_ZN3qos6limine18LiminePtr$LT$T$GT$3get17h97b42e5753601f71E>
ffffffff800056dc: 48 89 c7             	mov	rdi, rax
ffffffff800056df: 48 8d 35 8a be 00 00 	lea	rsi, [rip + 48778]      # 0xffffffff80011570 <xr6aouzjkjmurg0+0xffffffff80011570>
ffffffff800056e6: e8 a5 49 00 00       	call	0xffffffff8000a090 <_ZN4core6option15Option$LT$T$GT$6unwrap17hb327b8674eb10d5bE>
ffffffff800056eb: 48 89 85 98 fe ff ff 	mov	qword ptr [rbp - 360], rax
ffffffff800056f2: 48 8b 40 10          	mov	rax, qword ptr [rax + 16]
ffffffff800056f6: 48 8b 00             	mov	rax, qword ptr [rax]
ffffffff800056f9: 48 89 85 c8 fc ff ff 	mov	qword ptr [rbp - 824], rax
ffffffff80005700: 48 89 85 a0 fe ff ff 	mov	qword ptr [rbp - 352], rax
ffffffff80005707: 48 8d 3d 9a dc 00 00 	lea	rdi, [rip + 56474]      # 0xffffffff800133a8 <_ZN3qos5start14MODULE_REQUEST17h9e79a750161764abE+0x28>
ffffffff8000570e: e8 dd 29 00 00       	call	0xffffffff800080f0 <_ZN3qos6limine18LiminePtr$LT$T$GT$3get17h3b78091b8e6b8e4cE>
ffffffff80005713: 48 89 c7             	mov	rdi, rax
ffffffff80005716: 48 8d 35 6b be 00 00 	lea	rsi, [rip + 48747]      # 0xffffffff80011588 <xr6aouzjkjmurg0+0xffffffff80011588>
ffffffff8000571d: e8 2e 4a 00 00       	call	0xffffffff8000a150 <_ZN4core6option15Option$LT$T$GT$6unwrap17he219056d0ca23b43E>
ffffffff80005722: 48 89 85 d0 fc ff ff 	mov	qword ptr [rbp - 816], rax
ffffffff80005729: 48 89 85 a8 fe ff ff 	mov	qword ptr [rbp - 344], rax
ffffffff80005730: 48 c7 85 d8 fc ff ff 00 00 00 00     	mov	qword ptr [rbp - 808], 0
ffffffff8000573b: 48 8b 40 08          	mov	rax, qword ptr [rax + 8]
ffffffff8000573f: 48 c7 85 00 fd ff ff 00 00 00 00     	mov	qword ptr [rbp - 768], 0
ffffffff8000574a: 48 89 85 08 fd ff ff 	mov	qword ptr [rbp - 760], rax
ffffffff80005751: 48 8b bd 00 fd ff ff 	mov	rdi, qword ptr [rbp - 768]
ffffffff80005758: 48 8b b5 08 fd ff ff 	mov	rsi, qword ptr [rbp - 760]
ffffffff8000575f: e8 1c 4e 00 00       	call	0xffffffff8000a580 <_ZN63_$LT$I$u20$as$u20$core..iter..traits..collect..IntoIterator$GT$9into_iter17h1a92386f5c2a06d2E>
ffffffff80005764: 48 89 85 10 fd ff ff 	mov	qword ptr [rbp - 752], rax
ffffffff8000576b: 48 89 95 18 fd ff ff 	mov	qword ptr [rbp - 744], rdx
ffffffff80005772: 48 8d bd 10 fd ff ff 	lea	rdi, [rbp - 752]
ffffffff80005779: e8 e2 4d 00 00       	call	0xffffffff8000a560 <_ZN4core4iter5range101_$LT$impl$u20$core..iter..traits..iterator..Iterator$u20$for$u20$core..ops..range..Range$LT$A$GT$$GT$4next17ha48bff387f27bd7eE>
ffffffff8000577e: 48 89 95 28 fd ff ff 	mov	qword ptr [rbp - 728], rdx
ffffffff80005785: 48 89 85 20 fd ff ff 	mov	qword ptr [rbp - 736], rax
ffffffff8000578c: 48 83 bd 20 fd ff ff 00      	cmp	qword ptr [rbp - 736], 0
ffffffff80005794: 0f 85 ff 00 00 00    	jne	0xffffffff80005899 <_ZN3qos2fb6WRITER28_$u7b$$u7b$closure$u7d$$u7d$17hd67f534cb809b8c8E+0x1e9>
ffffffff8000579a: 48 8b 85 f8 fc ff ff 	mov	rax, qword ptr [rbp - 776]
ffffffff800057a1: 48 89 85 e0 fd ff ff 	mov	qword ptr [rbp - 544], rax
ffffffff800057a8: 48 8b 85 f0 fc ff ff 	mov	rax, qword ptr [rbp - 784]
ffffffff800057af: 48 89 85 d8 fd ff ff 	mov	qword ptr [rbp - 552], rax
ffffffff800057b6: 48 8b 85 e8 fc ff ff 	mov	rax, qword ptr [rbp - 792]
ffffffff800057bd: 48 89 85 d0 fd ff ff 	mov	qword ptr [rbp - 560], rax
ffffffff800057c4: 48 8b 85 d8 fc ff ff 	mov	rax, qword ptr [rbp - 808]
ffffffff800057cb: 48 8b 8d e0 fc ff ff 	mov	rcx, qword ptr [rbp - 800]
ffffffff800057d2: 48 89 8d c8 fd ff ff 	mov	qword ptr [rbp - 568], rcx
ffffffff800057d9: 48 89 85 c0 fd ff ff 	mov	qword ptr [rbp - 576], rax
ffffffff800057e0: 48 8d 15 e1 bd 00 00 	lea	rdx, [rip + 48609]      # 0xffffffff800115c8 <xr6aouzjkjmurg0+0xffffffff800115c8>
ffffffff800057e7: 48 8d bd a0 fd ff ff 	lea	rdi, [rbp - 608]
ffffffff800057ee: 48 8d b5 c0 fd ff ff 	lea	rsi, [rbp - 576]
ffffffff800057f5: e8 b6 49 00 00       	call	0xffffffff8000a1b0 <_ZN4core6option15Option$LT$T$GT$6unwrap17he9b871b66930478dE>
ffffffff800057fa: 48 8b 85 c8 fc ff ff 	mov	rax, qword ptr [rbp - 824]
ffffffff80005801: 48 8b 70 08          	mov	rsi, qword ptr [rax + 8]
ffffffff80005805: 48 8b 50 10          	mov	rdx, qword ptr [rax + 16]
ffffffff80005809: 0f b7 48 20          	movzx	ecx, word ptr [rax + 32]
ffffffff8000580d: 48 c1 e9 03          	shr	rcx, 3
ffffffff80005811: 4c 8b 40 18          	mov	r8, qword ptr [rax + 24]
ffffffff80005815: 4c 8b 08             	mov	r9, qword ptr [rax]
ffffffff80005818: 48 8d bd 48 fe ff ff 	lea	rdi, [rbp - 440]
ffffffff8000581f: e8 4c e7 ff ff       	call	0xffffffff80003f70 <_ZN3qos2fb11Framebuffer3new17hadb6acbc25742f64E>
ffffffff80005824: 48 8b 85 a0 fd ff ff 	mov	rax, qword ptr [rbp - 608]
ffffffff8000582b: 48 89 85 70 fe ff ff 	mov	qword ptr [rbp - 400], rax
ffffffff80005832: 48 8b 85 a8 fd ff ff 	mov	rax, qword ptr [rbp - 600]
ffffffff80005839: 48 89 85 78 fe ff ff 	mov	qword ptr [rbp - 392], rax
ffffffff80005840: 48 8b 85 b0 fd ff ff 	mov	rax, qword ptr [rbp - 592]
ffffffff80005847: 48 89 85 80 fe ff ff 	mov	qword ptr [rbp - 384], rax
ffffffff8000584e: 48 8b 85 b8 fd ff ff 	mov	rax, qword ptr [rbp - 584]
ffffffff80005855: 48 89 85 88 fe ff ff 	mov	qword ptr [rbp - 376], rax
ffffffff8000585c: 48 8d bd e8 fd ff ff 	lea	rdi, [rbp - 536]
ffffffff80005863: 48 8d b5 48 fe ff ff 	lea	rsi, [rbp - 440]
ffffffff8000586a: 48 8d 95 70 fe ff ff 	lea	rdx, [rbp - 400]
ffffffff80005871: e8 ea e8 ff ff       	call	0xffffffff80004160 <_ZN3qos2fb6Writer3new17h94960ffdc90487c4E>
ffffffff80005876: 48 8b bd b8 fc ff ff 	mov	rdi, qword ptr [rbp - 840]
ffffffff8000587d: 48 8d b5 e8 fd ff ff 	lea	rsi, [rbp - 536]
ffffffff80005884: e8 17 4f 00 00       	call	0xffffffff8000a7a0 <_ZN3qos4sync14Mutex$LT$T$GT$3new17h63345c90f59a406dE>
ffffffff80005889: 48 8b 85 c0 fc ff ff 	mov	rax, qword ptr [rbp - 832]
ffffffff80005890: 48 81 c4 60 03 00 00 	add	rsp, 864
ffffffff80005897: 5d                   	pop	rbp
ffffffff80005898: c3                   	ret
ffffffff80005899: 48 8b 85 d0 fc ff ff 	mov	rax, qword ptr [rbp - 816]
ffffffff800058a0: 48 8b 8d 28 fd ff ff 	mov	rcx, qword ptr [rbp - 728]
ffffffff800058a7: 48 89 8d b0 fe ff ff 	mov	qword ptr [rbp - 336], rcx
ffffffff800058ae: 48 8b 40 10          	mov	rax, qword ptr [rax + 16]
ffffffff800058b2: 48 89 45 d8          	mov	qword ptr [rbp - 40], rax
ffffffff800058b6: 48 89 4d e0          	mov	qword ptr [rbp - 32], rcx
ffffffff800058ba: 48 89 45 e8          	mov	qword ptr [rbp - 24], rax
ffffffff800058be: 48 89 4d f0          	mov	qword ptr [rbp - 16], rcx
ffffffff800058c2: 48 8d 04 c8          	lea	rax, [rax + 8*rcx]
ffffffff800058c6: 48 89 45 f8          	mov	qword ptr [rbp - 8], rax
ffffffff800058ca: 48 8b 45 f8          	mov	rax, qword ptr [rbp - 8]
ffffffff800058ce: 48 8b 00             	mov	rax, qword ptr [rax]
ffffffff800058d1: 48 89 85 a8 fc ff ff 	mov	qword ptr [rbp - 856], rax
ffffffff800058d8: 48 89 85 b8 fe ff ff 	mov	qword ptr [rbp - 328], rax
ffffffff800058df: 48 8b 78 20          	mov	rdi, qword ptr [rax + 32]
ffffffff800058e3: e8 58 4d 00 00       	call	0xffffffff8000a640 <_ZN4core3ffi5c_str4CStr8from_ptr17hd56d8621c8e4c520E>
ffffffff800058e8: 48 89 c6             	mov	rsi, rax
ffffffff800058eb: 48 8b 05 26 c8 00 00 	mov	rax, qword ptr [rip + 51238] # 0xffffffff80012118 <xr6aouzjkjmurg0+0xffffffff80012118>
ffffffff800058f2: 48 8d bd 40 fd ff ff 	lea	rdi, [rbp - 704]
ffffffff800058f9: 48 89 bd b0 fc ff ff 	mov	qword ptr [rbp - 848], rdi
ffffffff80005900: ff d0                	call	rax
ffffffff80005902: 48 8b bd b0 fc ff ff 	mov	rdi, qword ptr [rbp - 848]
ffffffff80005909: 48 8d 35 90 bc 00 00 	lea	rsi, [rip + 48272]      # 0xffffffff800115a0 <xr6aouzjkjmurg0+0xffffffff800115a0>
ffffffff80005910: e8 eb 26 00 00       	call	0xffffffff80008000 <_ZN4core6result19Result$LT$T$C$E$GT$6unwrap17h6e6b20e04cb5ca8cE>
ffffffff80005915: 48 89 95 38 fd ff ff 	mov	qword ptr [rbp - 712], rdx
ffffffff8000591c: 48 89 85 30 fd ff ff 	mov	qword ptr [rbp - 720], rax
ffffffff80005923: 48 8d 35 8e bc 00 00 	lea	rsi, [rip + 48270]      # 0xffffffff800115b8 <xr6aouzjkjmurg0+0xffffffff800115b8>
ffffffff8000592a: 48 8d bd 30 fd ff ff 	lea	rdi, [rbp - 720]
ffffffff80005931: e8 5a df ff ff       	call	0xffffffff80003890 <_ZN4core3cmp5impls69_$LT$impl$u20$core..cmp..PartialEq$LT$$RF$B$GT$$u20$for$u20$$RF$A$GT$2eq17ha22205eecf64a943E>
ffffffff80005936: a8 01                	test	al, 1
ffffffff80005938: 75 05                	jne	0xffffffff8000593f <_ZN3qos2fb6WRITER28_$u7b$$u7b$closure$u7d$$u7d$17hd67f534cb809b8c8E+0x28f>
ffffffff8000593a: e9 33 fe ff ff       	jmp	0xffffffff80005772 <_ZN3qos2fb6WRITER28_$u7b$$u7b$closure$u7d$$u7d$17hd67f534cb809b8c8E+0xc2>
ffffffff8000593f: 48 8b 85 a8 fc ff ff 	mov	rax, qword ptr [rbp - 856]
ffffffff80005946: 48 8b 40 08          	mov	rax, qword ptr [rax + 8]
ffffffff8000594a: 48 89 85 a0 fc ff ff 	mov	qword ptr [rbp - 864], rax
ffffffff80005951: 48 89 85 c0 fe ff ff 	mov	qword ptr [rbp - 320], rax
ffffffff80005958: 8b 00                	mov	eax, dword ptr [rax]
ffffffff8000595a: 89 85 cc fe ff ff    	mov	dword ptr [rbp - 308], eax
ffffffff80005960: 3d 72 b5 4a 86       	cmp	eax, 2253043058
ffffffff80005965: 0f 85 2f fe ff ff    	jne	0xffffffff8000579a <_ZN3qos2fb6WRITER28_$u7b$$u7b$closure$u7d$$u7d$17hd67f534cb809b8c8E+0xea>
ffffffff8000596b: 48 8b 85 a0 fc ff ff 	mov	rax, qword ptr [rbp - 864]
ffffffff80005972: 48 89 45 b0          	mov	qword ptr [rbp - 80], rax
ffffffff80005976: 48 c7 45 b8 02 00 00 00      	mov	qword ptr [rbp - 72], 2
ffffffff8000597e: 48 89 45 c0          	mov	qword ptr [rbp - 64], rax
ffffffff80005982: 48 c7 45 c8 02 00 00 00      	mov	qword ptr [rbp - 56], 2
ffffffff8000598a: 48 89 c1             	mov	rcx, rax
ffffffff8000598d: 48 83 c1 08          	add	rcx, 8
ffffffff80005991: 48 89 4d d0          	mov	qword ptr [rbp - 48], rcx
ffffffff80005995: 48 8b 4d d0          	mov	rcx, qword ptr [rbp - 48]
ffffffff80005999: 44 8b 09             	mov	r9d, dword ptr [rcx]
ffffffff8000599c: 44 89 8d d0 fe ff ff 	mov	dword ptr [rbp - 304], r9d
ffffffff800059a3: 48 89 45 88          	mov	qword ptr [rbp - 120], rax
ffffffff800059a7: 48 c7 45 90 03 00 00 00      	mov	qword ptr [rbp - 112], 3
ffffffff800059af: 48 89 45 98          	mov	qword ptr [rbp - 104], rax
ffffffff800059b3: 48 c7 45 a0 03 00 00 00      	mov	qword ptr [rbp - 96], 3
ffffffff800059bb: 48 89 c1             	mov	rcx, rax
ffffffff800059be: 48 83 c1 0c          	add	rcx, 12
ffffffff800059c2: 48 89 4d a8          	mov	qword ptr [rbp - 88], rcx
ffffffff800059c6: 48 8b 4d a8          	mov	rcx, qword ptr [rbp - 88]
ffffffff800059ca: 44 8b 01             	mov	r8d, dword ptr [rcx]
ffffffff800059cd: 44 89 85 d4 fe ff ff 	mov	dword ptr [rbp - 300], r8d
ffffffff800059d4: 48 89 85 60 ff ff ff 	mov	qword ptr [rbp - 160], rax
ffffffff800059db: 48 c7 85 68 ff ff ff 04 00 00 00     	mov	qword ptr [rbp - 152], 4
ffffffff800059e6: 48 89 85 70 ff ff ff 	mov	qword ptr [rbp - 144], rax
ffffffff800059ed: 48 c7 85 78 ff ff ff 04 00 00 00     	mov	qword ptr [rbp - 136], 4
ffffffff800059f8: 48 89 c1             	mov	rcx, rax
ffffffff800059fb: 48 83 c1 10          	add	rcx, 16
ffffffff800059ff: 48 89 4d 80          	mov	qword ptr [rbp - 128], rcx
ffffffff80005a03: 48 8b 4d 80          	mov	rcx, qword ptr [rbp - 128]
ffffffff80005a07: 8b 39                	mov	edi, dword ptr [rcx]
ffffffff80005a09: 89 bd d8 fe ff ff    	mov	dword ptr [rbp - 296], edi
ffffffff80005a0f: 48 89 85 38 ff ff ff 	mov	qword ptr [rbp - 200], rax
ffffffff80005a16: 48 c7 85 40 ff ff ff 05 00 00 00     	mov	qword ptr [rbp - 192], 5
ffffffff80005a21: 48 89 85 48 ff ff ff 	mov	qword ptr [rbp - 184], rax
ffffffff80005a28: 48 c7 85 50 ff ff ff 05 00 00 00     	mov	qword ptr [rbp - 176], 5
ffffffff80005a33: 48 89 c1             	mov	rcx, rax
ffffffff80005a36: 48 83 c1 14          	add	rcx, 20
ffffffff80005a3a: 48 89 8d 58 ff ff ff 	mov	qword ptr [rbp - 168], rcx
ffffffff80005a41: 48 8b 8d 58 ff ff ff 	mov	rcx, qword ptr [rbp - 168]
ffffffff80005a48: 8b 31                	mov	esi, dword ptr [rcx]
ffffffff80005a4a: 89 b5 dc fe ff ff    	mov	dword ptr [rbp - 292], esi
ffffffff80005a50: 48 89 85 10 ff ff ff 	mov	qword ptr [rbp - 240], rax
ffffffff80005a57: 48 c7 85 18 ff ff ff 06 00 00 00     	mov	qword ptr [rbp - 232], 6
ffffffff80005a62: 48 89 85 20 ff ff ff 	mov	qword ptr [rbp - 224], rax
ffffffff80005a69: 48 c7 85 28 ff ff ff 06 00 00 00     	mov	qword ptr [rbp - 216], 6
ffffffff80005a74: 48 89 c1             	mov	rcx, rax
ffffffff80005a77: 48 83 c1 18          	add	rcx, 24
ffffffff80005a7b: 48 89 8d 30 ff ff ff 	mov	qword ptr [rbp - 208], rcx
ffffffff80005a82: 48 8b 8d 30 ff ff ff 	mov	rcx, qword ptr [rbp - 208]
ffffffff80005a89: 8b 09                	mov	ecx, dword ptr [rcx]
ffffffff80005a8b: 89 8d e0 fe ff ff    	mov	dword ptr [rbp - 288], ecx
ffffffff80005a91: 48 89 85 e8 fe ff ff 	mov	qword ptr [rbp - 280], rax
ffffffff80005a98: 48 c7 85 f0 fe ff ff 07 00 00 00     	mov	qword ptr [rbp - 272], 7
ffffffff80005aa3: 48 89 85 f8 fe ff ff 	mov	qword ptr [rbp - 264], rax
ffffffff80005aaa: 48 c7 85 00 ff ff ff 07 00 00 00     	mov	qword ptr [rbp - 256], 7
ffffffff80005ab5: 48 89 c2             	mov	rdx, rax
ffffffff80005ab8: 48 83 c2 1c          	add	rdx, 28
ffffffff80005abc: 48 89 95 08 ff ff ff 	mov	qword ptr [rbp - 248], rdx
ffffffff80005ac3: 48 8b 95 08 ff ff ff 	mov	rdx, qword ptr [rbp - 248]
ffffffff80005aca: 8b 12                	mov	edx, dword ptr [rdx]
ffffffff80005acc: 89 95 e4 fe ff ff    	mov	dword ptr [rbp - 284], edx
ffffffff80005ad2: 44 89 8d 88 fd ff ff 	mov	dword ptr [rbp - 632], r9d
ffffffff80005ad9: 44 89 85 8c fd ff ff 	mov	dword ptr [rbp - 628], r8d
ffffffff80005ae0: 89 bd 90 fd ff ff    	mov	dword ptr [rbp - 624], edi
ffffffff80005ae6: 89 b5 94 fd ff ff    	mov	dword ptr [rbp - 620], esi
ffffffff80005aec: 89 95 98 fd ff ff    	mov	dword ptr [rbp - 616], edx
ffffffff80005af2: 89 8d 9c fd ff ff    	mov	dword ptr [rbp - 612], ecx
ffffffff80005af8: 48 89 85 80 fd ff ff 	mov	qword ptr [rbp - 640], rax
ffffffff80005aff: 48 8b 85 80 fd ff ff 	mov	rax, qword ptr [rbp - 640]
ffffffff80005b06: 48 89 85 60 fd ff ff 	mov	qword ptr [rbp - 672], rax
ffffffff80005b0d: 48 8b 85 88 fd ff ff 	mov	rax, qword ptr [rbp - 632]
ffffffff80005b14: 48 89 85 68 fd ff ff 	mov	qword ptr [rbp - 664], rax
ffffffff80005b1b: 48 8b 85 90 fd ff ff 	mov	rax, qword ptr [rbp - 624]
ffffffff80005b22: 48 89 85 70 fd ff ff 	mov	qword ptr [rbp - 656], rax
ffffffff80005b29: 48 8b 85 98 fd ff ff 	mov	rax, qword ptr [rbp - 616]
ffffffff80005b30: 48 89 85 78 fd ff ff 	mov	qword ptr [rbp - 648], rax
ffffffff80005b37: 48 c7 85 58 fd ff ff 01 00 00 00     	mov	qword ptr [rbp - 680], 1
ffffffff80005b42: 48 8b 85 78 fd ff ff 	mov	rax, qword ptr [rbp - 648]
ffffffff80005b49: 48 89 85 f8 fc ff ff 	mov	qword ptr [rbp - 776], rax
ffffffff80005b50: 48 8b 85 70 fd ff ff 	mov	rax, qword ptr [rbp - 656]
ffffffff80005b57: 48 89 85 f0 fc ff ff 	mov	qword ptr [rbp - 784], rax
ffffffff80005b5e: 48 8b 85 68 fd ff ff 	mov	rax, qword ptr [rbp - 664]
ffffffff80005b65: 48 89 85 e8 fc ff ff 	mov	qword ptr [rbp - 792], rax
ffffffff80005b6c: 48 8b 85 58 fd ff ff 	mov	rax, qword ptr [rbp - 680]
ffffffff80005b73: 48 8b 8d 60 fd ff ff 	mov	rcx, qword ptr [rbp - 672]
ffffffff80005b7a: 48 89 8d e0 fc ff ff 	mov	qword ptr [rbp - 800], rcx
ffffffff80005b81: 48 89 85 d8 fc ff ff 	mov	qword ptr [rbp - 808], rax
ffffffff80005b88: e9 e5 fb ff ff       	jmp	0xffffffff80005772 <_ZN3qos2fb6WRITER28_$u7b$$u7b$closure$u7d$$u7d$17hd67f534cb809b8c8E+0xc2>
ffffffff80005b8d: cc                   	int3
ffffffff80005b8e: cc                   	int3
ffffffff80005b8f: cc                   	int3

ffffffff80005b90 <_ZN4core3fmt9Arguments16new_v1_formatted17h36254c4d34d32351E>:
ffffffff80005b90: 55                   	push	rbp
ffffffff80005b91: 48 89 e5             	mov	rbp, rsp
ffffffff80005b94: 48 83 ec 48          	sub	rsp, 72
ffffffff80005b98: 4d 89 ca             	mov	r10, r9
ffffffff80005b9b: 48 89 f8             	mov	rax, rdi
ffffffff80005b9e: 4c 8b 4d 10          	mov	r9, qword ptr [rbp + 16]
ffffffff80005ba2: 48 89 75 c8          	mov	qword ptr [rbp - 56], rsi
ffffffff80005ba6: 48 89 55 d0          	mov	qword ptr [rbp - 48], rdx
ffffffff80005baa: 48 89 4d d8          	mov	qword ptr [rbp - 40], rcx
ffffffff80005bae: 4c 89 45 e0          	mov	qword ptr [rbp - 32], r8
ffffffff80005bb2: 4c 89 55 e8          	mov	qword ptr [rbp - 24], r10
ffffffff80005bb6: 4c 89 4d f0          	mov	qword ptr [rbp - 16], r9
ffffffff80005bba: 4c 89 55 b8          	mov	qword ptr [rbp - 72], r10
ffffffff80005bbe: 4c 89 4d c0          	mov	qword ptr [rbp - 64], r9
ffffffff80005bc2: 48 89 77 10          	mov	qword ptr [rdi + 16], rsi
ffffffff80005bc6: 48 89 57 18          	mov	qword ptr [rdi + 24], rdx
ffffffff80005bca: 48 8b 75 b8          	mov	rsi, qword ptr [rbp - 72]
ffffffff80005bce: 48 8b 55 c0          	mov	rdx, qword ptr [rbp - 64]
ffffffff80005bd2: 48 89 37             	mov	qword ptr [rdi], rsi
ffffffff80005bd5: 48 89 57 08          	mov	qword ptr [rdi + 8], rdx
ffffffff80005bd9: 48 89 4f 20          	mov	qword ptr [rdi + 32], rcx
ffffffff80005bdd: 4c 89 47 28          	mov	qword ptr [rdi + 40], r8
ffffffff80005be1: 48 83 c4 48          	add	rsp, 72
ffffffff80005be5: 5d                   	pop	rbp
ffffffff80005be6: c3                   	ret
ffffffff80005be7: cc                   	int3
ffffffff80005be8: cc                   	int3
ffffffff80005be9: cc                   	int3
ffffffff80005bea: cc                   	int3
ffffffff80005beb: cc                   	int3
ffffffff80005bec: cc                   	int3
ffffffff80005bed: cc                   	int3
ffffffff80005bee: cc                   	int3
ffffffff80005bef: cc                   	int3

ffffffff80005bf0 <_ZN4core3fmt9Arguments6new_v117h4ece5d28621dbecaE>:
ffffffff80005bf0: 55                   	push	rbp
ffffffff80005bf1: 48 89 e5             	mov	rbp, rsp
ffffffff80005bf4: 48 81 ec a0 00 00 00 	sub	rsp, 160
ffffffff80005bfb: 4c 89 85 68 ff ff ff 	mov	qword ptr [rbp - 152], r8
ffffffff80005c02: 48 89 8d 70 ff ff ff 	mov	qword ptr [rbp - 144], rcx
ffffffff80005c09: 48 89 95 78 ff ff ff 	mov	qword ptr [rbp - 136], rdx
ffffffff80005c10: 48 89 75 80          	mov	qword ptr [rbp - 128], rsi
ffffffff80005c14: 48 89 7d 88          	mov	qword ptr [rbp - 120], rdi
ffffffff80005c18: 48 89 7d 90          	mov	qword ptr [rbp - 112], rdi
ffffffff80005c1c: 48 89 75 e0          	mov	qword ptr [rbp - 32], rsi
ffffffff80005c20: 48 89 55 e8          	mov	qword ptr [rbp - 24], rdx
ffffffff80005c24: 48 89 4d f0          	mov	qword ptr [rbp - 16], rcx
ffffffff80005c28: 4c 89 45 f8          	mov	qword ptr [rbp - 8], r8
ffffffff80005c2c: 4c 39 c2             	cmp	rdx, r8
ffffffff80005c2f: 72 1f                	jb	0xffffffff80005c50 <_ZN4core3fmt9Arguments6new_v117h4ece5d28621dbecaE+0x60>
ffffffff80005c31: 48 8b 85 78 ff ff ff 	mov	rax, qword ptr [rbp - 136]
ffffffff80005c38: 48 8b 8d 68 ff ff ff 	mov	rcx, qword ptr [rbp - 152]
ffffffff80005c3f: 48 83 c1 01          	add	rcx, 1
ffffffff80005c43: 48 39 c8             	cmp	rax, rcx
ffffffff80005c46: 0f 97 c0             	seta	al
ffffffff80005c49: 24 01                	and	al, 1
ffffffff80005c4b: 88 45 9f             	mov	byte ptr [rbp - 97], al
ffffffff80005c4e: eb 04                	jmp	0xffffffff80005c54 <_ZN4core3fmt9Arguments6new_v117h4ece5d28621dbecaE+0x64>
ffffffff80005c50: c6 45 9f 01          	mov	byte ptr [rbp - 97], 1
ffffffff80005c54: f6 45 9f 01          	test	byte ptr [rbp - 97], 1
ffffffff80005c58: 75 51                	jne	0xffffffff80005cab <_ZN4core3fmt9Arguments6new_v117h4ece5d28621dbecaE+0xbb>
ffffffff80005c5a: 48 8b 45 90          	mov	rax, qword ptr [rbp - 112]
ffffffff80005c5e: 48 8b 4d 88          	mov	rcx, qword ptr [rbp - 120]
ffffffff80005c62: 48 8b 95 68 ff ff ff 	mov	rdx, qword ptr [rbp - 152]
ffffffff80005c69: 48 8b b5 70 ff ff ff 	mov	rsi, qword ptr [rbp - 144]
ffffffff80005c70: 48 8b bd 78 ff ff ff 	mov	rdi, qword ptr [rbp - 136]
ffffffff80005c77: 4c 8b 45 80          	mov	r8, qword ptr [rbp - 128]
ffffffff80005c7b: 48 c7 45 d0 00 00 00 00      	mov	qword ptr [rbp - 48], 0
ffffffff80005c83: 4c 89 41 10          	mov	qword ptr [rcx + 16], r8
ffffffff80005c87: 48 89 79 18          	mov	qword ptr [rcx + 24], rdi
ffffffff80005c8b: 4c 8b 45 d0          	mov	r8, qword ptr [rbp - 48]
ffffffff80005c8f: 48 8b 7d d8          	mov	rdi, qword ptr [rbp - 40]
ffffffff80005c93: 4c 89 01             	mov	qword ptr [rcx], r8
ffffffff80005c96: 48 89 79 08          	mov	qword ptr [rcx + 8], rdi
ffffffff80005c9a: 48 89 71 20          	mov	qword ptr [rcx + 32], rsi
ffffffff80005c9e: 48 89 51 28          	mov	qword ptr [rcx + 40], rdx
ffffffff80005ca2: 48 81 c4 a0 00 00 00 	add	rsp, 160
ffffffff80005ca9: 5d                   	pop	rbp
ffffffff80005caa: c3                   	ret
ffffffff80005cab: 48 8d 35 2e b9 00 00 	lea	rsi, [rip + 47406]      # 0xffffffff800115e0 <xr6aouzjkjmurg0+0xffffffff800115e0>
ffffffff80005cb2: 48 8d 0d 4f be ff ff 	lea	rcx, [rip - 16817]      # 0xffffffff80001b08 <str.0+0x78>
ffffffff80005cb9: 31 c0                	xor	eax, eax
ffffffff80005cbb: 41 89 c0             	mov	r8d, eax
ffffffff80005cbe: 48 8d 7d a0          	lea	rdi, [rbp - 96]
ffffffff80005cc2: 48 89 bd 60 ff ff ff 	mov	qword ptr [rbp - 160], rdi
ffffffff80005cc9: ba 01 00 00 00       	mov	edx, 1
ffffffff80005cce: e8 1d ff ff ff       	call	0xffffffff80005bf0 <_ZN4core3fmt9Arguments6new_v117h4ece5d28621dbecaE>
ffffffff80005cd3: 48 8b bd 60 ff ff ff 	mov	rdi, qword ptr [rbp - 160]
ffffffff80005cda: 48 8d 35 0f b9 00 00 	lea	rsi, [rip + 47375]      # 0xffffffff800115f0 <xr6aouzjkjmurg0+0xffffffff800115f0>
ffffffff80005ce1: 48 8b 05 38 c4 00 00 	mov	rax, qword ptr [rip + 50232] # 0xffffffff80012120 <xr6aouzjkjmurg0+0xffffffff80012120>
ffffffff80005ce8: ff d0                	call	rax
ffffffff80005cea: 0f 0b                	ud2
ffffffff80005cec: cc                   	int3
ffffffff80005ced: cc                   	int3
ffffffff80005cee: cc                   	int3
ffffffff80005cef: cc                   	int3

ffffffff80005cf0 <_ZN4core3str6traits54_$LT$impl$u20$core..cmp..PartialEq$u20$for$u20$str$GT$2eq17hcfa91bef0fadbffaE>:
ffffffff80005cf0: 55                   	push	rbp
ffffffff80005cf1: 48 89 e5             	mov	rbp, rsp
ffffffff80005cf4: 48 83 ec 70          	sub	rsp, 112
ffffffff80005cf8: 48 89 7d b0          	mov	qword ptr [rbp - 80], rdi
ffffffff80005cfc: 48 89 75 b8          	mov	qword ptr [rbp - 72], rsi
ffffffff80005d00: 48 89 55 c0          	mov	qword ptr [rbp - 64], rdx
ffffffff80005d04: 48 89 4d c8          	mov	qword ptr [rbp - 56], rcx
ffffffff80005d08: 48 89 7d d0          	mov	qword ptr [rbp - 48], rdi
ffffffff80005d0c: 48 89 75 d8          	mov	qword ptr [rbp - 40], rsi
ffffffff80005d10: 48 89 7d 90          	mov	qword ptr [rbp - 112], rdi
ffffffff80005d14: 48 89 75 98          	mov	qword ptr [rbp - 104], rsi
ffffffff80005d18: 48 8d 45 90          	lea	rax, [rbp - 112]
ffffffff80005d1c: 48 89 45 e0          	mov	qword ptr [rbp - 32], rax
ffffffff80005d20: 48 89 55 e8          	mov	qword ptr [rbp - 24], rdx
ffffffff80005d24: 48 89 4d f0          	mov	qword ptr [rbp - 16], rcx
ffffffff80005d28: 48 89 55 a0          	mov	qword ptr [rbp - 96], rdx
ffffffff80005d2c: 48 89 4d a8          	mov	qword ptr [rbp - 88], rcx
ffffffff80005d30: 48 8d 45 a0          	lea	rax, [rbp - 96]
ffffffff80005d34: 48 89 45 f8          	mov	qword ptr [rbp - 8], rax
ffffffff80005d38: 48 8b 7d 90          	mov	rdi, qword ptr [rbp - 112]
ffffffff80005d3c: 48 8b 75 98          	mov	rsi, qword ptr [rbp - 104]
ffffffff80005d40: 48 8b 55 a0          	mov	rdx, qword ptr [rbp - 96]
ffffffff80005d44: 48 8b 4d a8          	mov	rcx, qword ptr [rbp - 88]
ffffffff80005d48: e8 93 f2 ff ff       	call	0xffffffff80004fe0 <_ZN4core5slice3cmp81_$LT$impl$u20$core..cmp..PartialEq$LT$$u5b$B$u5d$$GT$$u20$for$u20$$u5b$A$u5d$$GT$2eq17h8efb272358d6bf93E>
ffffffff80005d4d: 24 01                	and	al, 1
ffffffff80005d4f: 0f b6 c0             	movzx	eax, al
ffffffff80005d52: 48 83 c4 70          	add	rsp, 112
ffffffff80005d56: 5d                   	pop	rbp
ffffffff80005d57: c3                   	ret
ffffffff80005d58: cc                   	int3
ffffffff80005d59: cc                   	int3
ffffffff80005d5a: cc                   	int3
ffffffff80005d5b: cc                   	int3
ffffffff80005d5c: cc                   	int3
ffffffff80005d5d: cc                   	int3
ffffffff80005d5e: cc                   	int3
ffffffff80005d5f: cc                   	int3

ffffffff80005d60 <_ZN4core3mem11size_of_val17h843e992b44118eb9E>:
ffffffff80005d60: 55                   	push	rbp
ffffffff80005d61: 48 89 e5             	mov	rbp, rsp
ffffffff80005d64: 48 83 ec 10          	sub	rsp, 16
ffffffff80005d68: 48 89 7d f0          	mov	qword ptr [rbp - 16], rdi
ffffffff80005d6c: 48 c7 45 f8 28 00 00 00      	mov	qword ptr [rbp - 8], 40
ffffffff80005d74: 48 8b 45 f8          	mov	rax, qword ptr [rbp - 8]
ffffffff80005d78: 48 83 c4 10          	add	rsp, 16
ffffffff80005d7c: 5d                   	pop	rbp
ffffffff80005d7d: c3                   	ret
ffffffff80005d7e: cc                   	int3
ffffffff80005d7f: cc                   	int3

ffffffff80005d80 <_ZN4core3mem4drop17h914d8161ec703d5aE>:
ffffffff80005d80: 55                   	push	rbp
ffffffff80005d81: 48 89 e5             	mov	rbp, rsp
ffffffff80005d84: 48 83 ec 10          	sub	rsp, 16
ffffffff80005d88: 48 89 7d f8          	mov	qword ptr [rbp - 8], rdi
ffffffff80005d8c: 48 8d 7d f8          	lea	rdi, [rbp - 8]
ffffffff80005d90: e8 0b 6a 00 00       	call	0xffffffff8000c7a0 <_ZN4core3ptr95drop_in_place$LT$qos..sync..MutexGuard$LT$qos..allocator..page_allocator..PageAllocator$GT$$GT$17h528ae5d18d2696deE>
ffffffff80005d95: 48 83 c4 10          	add	rsp, 16
ffffffff80005d99: 5d                   	pop	rbp
ffffffff80005d9a: c3                   	ret
ffffffff80005d9b: cc                   	int3
ffffffff80005d9c: cc                   	int3
ffffffff80005d9d: cc                   	int3
ffffffff80005d9e: cc                   	int3
ffffffff80005d9f: cc                   	int3

ffffffff80005da0 <_ZN4core3mem7replace17h71e0e0af67d250f1E>:
ffffffff80005da0: 55                   	push	rbp
ffffffff80005da1: 48 89 e5             	mov	rbp, rsp
ffffffff80005da4: 48 83 ec 50          	sub	rsp, 80
ffffffff80005da8: 48 89 7d c0          	mov	qword ptr [rbp - 64], rdi
ffffffff80005dac: 48 89 75 c8          	mov	qword ptr [rbp - 56], rsi
ffffffff80005db0: 48 89 7d d0          	mov	qword ptr [rbp - 48], rdi
ffffffff80005db4: 48 8d 45 b8          	lea	rax, [rbp - 72]
ffffffff80005db8: 48 89 45 d8          	mov	qword ptr [rbp - 40], rax
ffffffff80005dbc: 48 8b 07             	mov	rax, qword ptr [rdi]
ffffffff80005dbf: 48 89 45 b8          	mov	qword ptr [rbp - 72], rax
ffffffff80005dc3: 48 8b 45 b8          	mov	rax, qword ptr [rbp - 72]
ffffffff80005dc7: 48 89 45 e0          	mov	qword ptr [rbp - 32], rax
ffffffff80005dcb: 48 89 45 e8          	mov	qword ptr [rbp - 24], rax
ffffffff80005dcf: 48 89 45 f0          	mov	qword ptr [rbp - 16], rax
ffffffff80005dd3: 48 89 7d f8          	mov	qword ptr [rbp - 8], rdi
ffffffff80005dd7: 48 89 75 b0          	mov	qword ptr [rbp - 80], rsi
ffffffff80005ddb: 48 8b 4d b0          	mov	rcx, qword ptr [rbp - 80]
ffffffff80005ddf: 48 89 0f             	mov	qword ptr [rdi], rcx
ffffffff80005de2: 48 83 c4 50          	add	rsp, 80
ffffffff80005de6: 5d                   	pop	rbp
ffffffff80005de7: c3                   	ret
ffffffff80005de8: cc                   	int3
ffffffff80005de9: cc                   	int3
ffffffff80005dea: cc                   	int3
ffffffff80005deb: cc                   	int3
ffffffff80005dec: cc                   	int3
ffffffff80005ded: cc                   	int3
ffffffff80005dee: cc                   	int3
ffffffff80005def: cc                   	int3

ffffffff80005df0 <_ZN4core3mem7replace17h98e172a70be529f4E>:
ffffffff80005df0: 55                   	push	rbp
ffffffff80005df1: 48 89 e5             	mov	rbp, rsp
ffffffff80005df4: 48 83 ec 50          	sub	rsp, 80
ffffffff80005df8: 48 89 7d c0          	mov	qword ptr [rbp - 64], rdi
ffffffff80005dfc: 48 89 75 c8          	mov	qword ptr [rbp - 56], rsi
ffffffff80005e00: 48 89 7d d0          	mov	qword ptr [rbp - 48], rdi
ffffffff80005e04: 48 8d 45 b8          	lea	rax, [rbp - 72]
ffffffff80005e08: 48 89 45 d8          	mov	qword ptr [rbp - 40], rax
ffffffff80005e0c: 48 8b 07             	mov	rax, qword ptr [rdi]
ffffffff80005e0f: 48 89 45 b8          	mov	qword ptr [rbp - 72], rax
ffffffff80005e13: 48 8b 45 b8          	mov	rax, qword ptr [rbp - 72]
ffffffff80005e17: 48 89 45 e0          	mov	qword ptr [rbp - 32], rax
ffffffff80005e1b: 48 89 45 e8          	mov	qword ptr [rbp - 24], rax
ffffffff80005e1f: 48 89 45 f0          	mov	qword ptr [rbp - 16], rax
ffffffff80005e23: 48 89 7d f8          	mov	qword ptr [rbp - 8], rdi
ffffffff80005e27: 48 89 75 b0          	mov	qword ptr [rbp - 80], rsi
ffffffff80005e2b: 48 8b 4d b0          	mov	rcx, qword ptr [rbp - 80]
ffffffff80005e2f: 48 89 0f             	mov	qword ptr [rdi], rcx
ffffffff80005e32: 48 83 c4 50          	add	rsp, 80
ffffffff80005e36: 5d                   	pop	rbp
ffffffff80005e37: c3                   	ret
ffffffff80005e38: cc                   	int3
ffffffff80005e39: cc                   	int3
ffffffff80005e3a: cc                   	int3
ffffffff80005e3b: cc                   	int3
ffffffff80005e3c: cc                   	int3
ffffffff80005e3d: cc                   	int3
ffffffff80005e3e: cc                   	int3
ffffffff80005e3f: cc                   	int3

ffffffff80005e40 <_ZN6x86_644addr8VirtAddr12new_truncate17h2941f9eaf9fe53e5E>:
ffffffff80005e40: 55                   	push	rbp
ffffffff80005e41: 48 89 e5             	mov	rbp, rsp
ffffffff80005e44: 48 83 ec 10          	sub	rsp, 16
ffffffff80005e48: 48 89 f8             	mov	rax, rdi
ffffffff80005e4b: 48 89 45 f8          	mov	qword ptr [rbp - 8], rax
ffffffff80005e4f: 48 c1 e0 10          	shl	rax, 16
ffffffff80005e53: 48 c1 f8 10          	sar	rax, 16
ffffffff80005e57: 48 89 45 f0          	mov	qword ptr [rbp - 16], rax
ffffffff80005e5b: 48 8b 45 f0          	mov	rax, qword ptr [rbp - 16]
ffffffff80005e5f: 48 83 c4 10          	add	rsp, 16
ffffffff80005e63: 5d                   	pop	rbp
ffffffff80005e64: c3                   	ret
ffffffff80005e65: cc                   	int3
ffffffff80005e66: cc                   	int3
ffffffff80005e67: cc                   	int3
ffffffff80005e68: cc                   	int3
ffffffff80005e69: cc                   	int3
ffffffff80005e6a: cc                   	int3
ffffffff80005e6b: cc                   	int3
ffffffff80005e6c: cc                   	int3
ffffffff80005e6d: cc                   	int3
ffffffff80005e6e: cc                   	int3
ffffffff80005e6f: cc                   	int3

ffffffff80005e70 <_ZN6x86_644addr8VirtAddr3new17h56df287fc3f4ff9eE>:
ffffffff80005e70: 55                   	push	rbp
ffffffff80005e71: 48 89 e5             	mov	rbp, rsp
ffffffff80005e74: 48 83 ec 10          	sub	rsp, 16
ffffffff80005e78: 48 89 7d f8          	mov	qword ptr [rbp - 8], rdi
ffffffff80005e7c: e8 4f 00 00 00       	call	0xffffffff80005ed0 <_ZN6x86_644addr8VirtAddr7try_new17he2f04780ac6b0788E>
ffffffff80005e81: 48 89 c7             	mov	rdi, rax
ffffffff80005e84: 48 89 d6             	mov	rsi, rdx
ffffffff80005e87: 48 8d 15 c5 bc ff ff 	lea	rdx, [rip - 17211]      # 0xffffffff80001b53 <str.0+0xc3>
ffffffff80005e8e: 4c 8d 05 73 b7 00 00 	lea	r8, [rip + 46963]       # 0xffffffff80011608 <xr6aouzjkjmurg0+0xffffffff80011608>
ffffffff80005e95: 48 8b 05 8c c2 00 00 	mov	rax, qword ptr [rip + 49804] # 0xffffffff80012128 <xr6aouzjkjmurg0+0xffffffff80012128>
ffffffff80005e9c: b9 4a 00 00 00       	mov	ecx, 74
ffffffff80005ea1: ff d0                	call	rax
ffffffff80005ea3: 48 83 c4 10          	add	rsp, 16
ffffffff80005ea7: 5d                   	pop	rbp
ffffffff80005ea8: c3                   	ret
ffffffff80005ea9: cc                   	int3
ffffffff80005eaa: cc                   	int3
ffffffff80005eab: cc                   	int3
ffffffff80005eac: cc                   	int3
ffffffff80005ead: cc                   	int3
ffffffff80005eae: cc                   	int3
ffffffff80005eaf: cc                   	int3

ffffffff80005eb0 <_ZN6x86_644addr8VirtAddr6as_u6417hc4b039afb5c117fdE>:
ffffffff80005eb0: 55                   	push	rbp
ffffffff80005eb1: 48 89 e5             	mov	rbp, rsp
ffffffff80005eb4: 50                   	push	rax
ffffffff80005eb5: 48 89 f8             	mov	rax, rdi
ffffffff80005eb8: 48 89 45 f8          	mov	qword ptr [rbp - 8], rax
ffffffff80005ebc: 48 83 c4 08          	add	rsp, 8
ffffffff80005ec0: 5d                   	pop	rbp
ffffffff80005ec1: c3                   	ret
ffffffff80005ec2: cc                   	int3
ffffffff80005ec3: cc                   	int3
ffffffff80005ec4: cc                   	int3
ffffffff80005ec5: cc                   	int3
ffffffff80005ec6: cc                   	int3
ffffffff80005ec7: cc                   	int3
ffffffff80005ec8: cc                   	int3
ffffffff80005ec9: cc                   	int3
ffffffff80005eca: cc                   	int3
ffffffff80005ecb: cc                   	int3
ffffffff80005ecc: cc                   	int3
ffffffff80005ecd: cc                   	int3
ffffffff80005ece: cc                   	int3
ffffffff80005ecf: cc                   	int3

ffffffff80005ed0 <_ZN6x86_644addr8VirtAddr7try_new17he2f04780ac6b0788E>:
ffffffff80005ed0: 55                   	push	rbp
ffffffff80005ed1: 48 89 e5             	mov	rbp, rsp
ffffffff80005ed4: 48 83 ec 40          	sub	rsp, 64
ffffffff80005ed8: 48 89 7d c8          	mov	qword ptr [rbp - 56], rdi
ffffffff80005edc: 48 c7 45 e0 2f 00 00 00      	mov	qword ptr [rbp - 32], 47
ffffffff80005ee4: 48 c7 45 e8 40 00 00 00      	mov	qword ptr [rbp - 24], 64
ffffffff80005eec: 48 8b 75 e0          	mov	rsi, qword ptr [rbp - 32]
ffffffff80005ef0: 48 8b 55 e8          	mov	rdx, qword ptr [rbp - 24]
ffffffff80005ef4: 48 8b 05 35 c2 00 00 	mov	rax, qword ptr [rip + 49717] # 0xffffffff80012130 <xr6aouzjkjmurg0+0xffffffff80012130>
ffffffff80005efb: 48 8d 7d c8          	lea	rdi, [rbp - 56]
ffffffff80005eff: ff d0                	call	rax
ffffffff80005f01: 48 89 c1             	mov	rcx, rax
ffffffff80005f04: 48 89 4d c0          	mov	qword ptr [rbp - 64], rcx
ffffffff80005f08: 48 85 c0             	test	rax, rax
ffffffff80005f0b: 74 36                	je	0xffffffff80005f43 <_ZN6x86_644addr8VirtAddr7try_new17he2f04780ac6b0788E+0x73>
ffffffff80005f0d: eb 00                	jmp	0xffffffff80005f0f <_ZN6x86_644addr8VirtAddr7try_new17he2f04780ac6b0788E+0x3f>
ffffffff80005f0f: 48 8b 45 c0          	mov	rax, qword ptr [rbp - 64]
ffffffff80005f13: 48 83 e8 01          	sub	rax, 1
ffffffff80005f17: 74 44                	je	0xffffffff80005f5d <_ZN6x86_644addr8VirtAddr7try_new17he2f04780ac6b0788E+0x8d>
ffffffff80005f19: eb 00                	jmp	0xffffffff80005f1b <_ZN6x86_644addr8VirtAddr7try_new17he2f04780ac6b0788E+0x4b>
ffffffff80005f1b: 48 8b 45 c0          	mov	rax, qword ptr [rbp - 64]
ffffffff80005f1f: 48 2d ff ff 01 00    	sub	rax, 131071
ffffffff80005f25: 74 1c                	je	0xffffffff80005f43 <_ZN6x86_644addr8VirtAddr7try_new17he2f04780ac6b0788E+0x73>
ffffffff80005f27: eb 00                	jmp	0xffffffff80005f29 <_ZN6x86_644addr8VirtAddr7try_new17he2f04780ac6b0788E+0x59>
ffffffff80005f29: 48 8b 45 c8          	mov	rax, qword ptr [rbp - 56]
ffffffff80005f2d: 48 89 45 f8          	mov	qword ptr [rbp - 8], rax
ffffffff80005f31: 48 8b 45 f8          	mov	rax, qword ptr [rbp - 8]
ffffffff80005f35: 48 89 45 d8          	mov	qword ptr [rbp - 40], rax
ffffffff80005f39: 48 c7 45 d0 01 00 00 00      	mov	qword ptr [rbp - 48], 1
ffffffff80005f41: eb 2f                	jmp	0xffffffff80005f72 <_ZN6x86_644addr8VirtAddr7try_new17he2f04780ac6b0788E+0xa2>
ffffffff80005f43: 48 8b 45 c8          	mov	rax, qword ptr [rbp - 56]
ffffffff80005f47: 48 89 45 f0          	mov	qword ptr [rbp - 16], rax
ffffffff80005f4b: 48 8b 45 f0          	mov	rax, qword ptr [rbp - 16]
ffffffff80005f4f: 48 89 45 d8          	mov	qword ptr [rbp - 40], rax
ffffffff80005f53: 48 c7 45 d0 00 00 00 00      	mov	qword ptr [rbp - 48], 0
ffffffff80005f5b: eb 15                	jmp	0xffffffff80005f72 <_ZN6x86_644addr8VirtAddr7try_new17he2f04780ac6b0788E+0xa2>
ffffffff80005f5d: 48 8b 7d c8          	mov	rdi, qword ptr [rbp - 56]
ffffffff80005f61: e8 da fe ff ff       	call	0xffffffff80005e40 <_ZN6x86_644addr8VirtAddr12new_truncate17h2941f9eaf9fe53e5E>
ffffffff80005f66: 48 89 45 d8          	mov	qword ptr [rbp - 40], rax
ffffffff80005f6a: 48 c7 45 d0 00 00 00 00      	mov	qword ptr [rbp - 48], 0
ffffffff80005f72: 48 8b 45 d0          	mov	rax, qword ptr [rbp - 48]
ffffffff80005f76: 48 8b 55 d8          	mov	rdx, qword ptr [rbp - 40]
ffffffff80005f7a: 48 83 c4 40          	add	rsp, 64
ffffffff80005f7e: 5d                   	pop	rbp
ffffffff80005f7f: c3                   	ret

ffffffff80005f80 <_ZN4core3ptr9const_ptr33_$LT$impl$u20$$BP$const$u20$T$GT$16with_metadata_of17h964b73a8e4b06f34E>:
ffffffff80005f80: 55                   	push	rbp
ffffffff80005f81: 48 89 e5             	mov	rbp, rsp
ffffffff80005f84: 48 83 ec 40          	sub	rsp, 64
ffffffff80005f88: 48 89 7d d8          	mov	qword ptr [rbp - 40], rdi
ffffffff80005f8c: 48 89 75 e0          	mov	qword ptr [rbp - 32], rsi
ffffffff80005f90: 48 89 7d f0          	mov	qword ptr [rbp - 16], rdi
ffffffff80005f94: 48 89 75 f8          	mov	qword ptr [rbp - 8], rsi
ffffffff80005f98: 48 89 75 c0          	mov	qword ptr [rbp - 64], rsi
ffffffff80005f9c: 48 89 7d d0          	mov	qword ptr [rbp - 48], rdi
ffffffff80005fa0: 48 8b 45 d0          	mov	rax, qword ptr [rbp - 48]
ffffffff80005fa4: 48 89 45 c8          	mov	qword ptr [rbp - 56], rax
ffffffff80005fa8: 48 8b 45 c8          	mov	rax, qword ptr [rbp - 56]
ffffffff80005fac: 48 83 c4 40          	add	rsp, 64
ffffffff80005fb0: 5d                   	pop	rbp
ffffffff80005fb1: c3                   	ret
ffffffff80005fb2: cc                   	int3
ffffffff80005fb3: cc                   	int3
ffffffff80005fb4: cc                   	int3
ffffffff80005fb5: cc                   	int3
ffffffff80005fb6: cc                   	int3
ffffffff80005fb7: cc                   	int3
ffffffff80005fb8: cc                   	int3
ffffffff80005fb9: cc                   	int3
ffffffff80005fba: cc                   	int3
ffffffff80005fbb: cc                   	int3
ffffffff80005fbc: cc                   	int3
ffffffff80005fbd: cc                   	int3
ffffffff80005fbe: cc                   	int3
ffffffff80005fbf: cc                   	int3

ffffffff80005fc0 <_ZN4core3ptr9const_ptr33_$LT$impl$u20$$BP$const$u20$T$GT$7is_null17h4b230f72155e1e02E>:
ffffffff80005fc0: 55                   	push	rbp
ffffffff80005fc1: 48 89 e5             	mov	rbp, rsp
ffffffff80005fc4: 48 83 ec 50          	sub	rsp, 80
ffffffff80005fc8: 48 89 7d c8          	mov	qword ptr [rbp - 56], rdi
ffffffff80005fcc: 48 89 7d d8          	mov	qword ptr [rbp - 40], rdi
ffffffff80005fd0: 48 c7 45 e0 00 00 00 00      	mov	qword ptr [rbp - 32], 0
ffffffff80005fd8: 48 8b 45 e0          	mov	rax, qword ptr [rbp - 32]
ffffffff80005fdc: 48 89 45 e8          	mov	qword ptr [rbp - 24], rax
ffffffff80005fe0: 48 89 45 c0          	mov	qword ptr [rbp - 64], rax
ffffffff80005fe4: 48 8b 45 c0          	mov	rax, qword ptr [rbp - 64]
ffffffff80005fe8: 48 89 45 b8          	mov	qword ptr [rbp - 72], rax
ffffffff80005fec: 48 8b 45 b8          	mov	rax, qword ptr [rbp - 72]
ffffffff80005ff0: 48 89 45 f0          	mov	qword ptr [rbp - 16], rax
ffffffff80005ff4: 48 39 c7             	cmp	rdi, rax
ffffffff80005ff7: 0f 94 c0             	sete	al
ffffffff80005ffa: 24 01                	and	al, 1
ffffffff80005ffc: 88 45 fd             	mov	byte ptr [rbp - 3], al
ffffffff80005fff: 8a 45 fd             	mov	al, byte ptr [rbp - 3]
ffffffff80006002: 88 45 b5             	mov	byte ptr [rbp - 75], al
ffffffff80006005: 3c 02                	cmp	al, 2
ffffffff80006007: 75 06                	jne	0xffffffff8000600f <_ZN4core3ptr9const_ptr33_$LT$impl$u20$$BP$const$u20$T$GT$7is_null17h4b230f72155e1e02E+0x4f>
ffffffff80006009: c6 45 b7 02          	mov	byte ptr [rbp - 73], 2
ffffffff8000600d: eb 10                	jmp	0xffffffff8000601f <_ZN4core3ptr9const_ptr33_$LT$impl$u20$$BP$const$u20$T$GT$7is_null17h4b230f72155e1e02E+0x5f>
ffffffff8000600f: 8a 45 b5             	mov	al, byte ptr [rbp - 75]
ffffffff80006012: 88 45 fe             	mov	byte ptr [rbp - 2], al
ffffffff80006015: 3c 01                	cmp	al, 1
ffffffff80006017: 0f 94 c0             	sete	al
ffffffff8000601a: 24 01                	and	al, 1
ffffffff8000601c: 88 45 b7             	mov	byte ptr [rbp - 73], al
ffffffff8000601f: b8 01 00 00 00       	mov	eax, 1
ffffffff80006024: 31 c9                	xor	ecx, ecx
ffffffff80006026: 80 7d b7 02          	cmp	byte ptr [rbp - 73], 2
ffffffff8000602a: 48 0f 44 c1          	cmove	rax, rcx
ffffffff8000602e: 48 83 f8 00          	cmp	rax, 0
ffffffff80006032: 75 06                	jne	0xffffffff8000603a <_ZN4core3ptr9const_ptr33_$LT$impl$u20$$BP$const$u20$T$GT$7is_null17h4b230f72155e1e02E+0x7a>
ffffffff80006034: c6 45 b6 00          	mov	byte ptr [rbp - 74], 0
ffffffff80006038: eb 10                	jmp	0xffffffff8000604a <_ZN4core3ptr9const_ptr33_$LT$impl$u20$$BP$const$u20$T$GT$7is_null17h4b230f72155e1e02E+0x8a>
ffffffff8000603a: 8a 45 b7             	mov	al, byte ptr [rbp - 73]
ffffffff8000603d: 88 c1                	mov	cl, al
ffffffff8000603f: 80 e1 01             	and	cl, 1
ffffffff80006042: 88 4d ff             	mov	byte ptr [rbp - 1], cl
ffffffff80006045: 24 01                	and	al, 1
ffffffff80006047: 88 45 b6             	mov	byte ptr [rbp - 74], al
ffffffff8000604a: 8a 45 b6             	mov	al, byte ptr [rbp - 74]
ffffffff8000604d: 24 01                	and	al, 1
ffffffff8000604f: 0f b6 c0             	movzx	eax, al
ffffffff80006052: 48 83 c4 50          	add	rsp, 80
ffffffff80006056: 5d                   	pop	rbp
ffffffff80006057: c3                   	ret
ffffffff80006058: cc                   	int3
ffffffff80006059: cc                   	int3
ffffffff8000605a: cc                   	int3
ffffffff8000605b: cc                   	int3
ffffffff8000605c: cc                   	int3
ffffffff8000605d: cc                   	int3
ffffffff8000605e: cc                   	int3
ffffffff8000605f: cc                   	int3

ffffffff80006060 <_ZN4core4hint21unreachable_unchecked17h65fec5232fc3a4e3E>:
ffffffff80006060: 55                   	push	rbp
ffffffff80006061: 48 89 e5             	mov	rbp, rsp
ffffffff80006064: 0f 0b                	ud2
ffffffff80006066: cc                   	int3
ffffffff80006067: cc                   	int3
ffffffff80006068: cc                   	int3
ffffffff80006069: cc                   	int3
ffffffff8000606a: cc                   	int3
ffffffff8000606b: cc                   	int3
ffffffff8000606c: cc                   	int3
ffffffff8000606d: cc                   	int3
ffffffff8000606e: cc                   	int3
ffffffff8000606f: cc                   	int3

ffffffff80006070 <_ZN4core9panicking13assert_failed17he3670309e5eb6e27E>:
ffffffff80006070: 55                   	push	rbp
ffffffff80006071: 48 89 e5             	mov	rbp, rsp
ffffffff80006074: 48 83 ec 60          	sub	rsp, 96
ffffffff80006078: 48 89 4d b0          	mov	qword ptr [rbp - 80], rcx
ffffffff8000607c: 48 89 d1             	mov	rcx, rdx
ffffffff8000607f: 48 8b 55 b0          	mov	rdx, qword ptr [rbp - 80]
ffffffff80006083: 40 88 f8             	mov	al, dil
ffffffff80006086: 48 89 75 b8          	mov	qword ptr [rbp - 72], rsi
ffffffff8000608a: 48 89 4d c0          	mov	qword ptr [rbp - 64], rcx
ffffffff8000608e: 88 45 ff             	mov	byte ptr [rbp - 1], al
ffffffff80006091: 48 8b 4a 28          	mov	rcx, qword ptr [rdx + 40]
ffffffff80006095: 48 89 4d f0          	mov	qword ptr [rbp - 16], rcx
ffffffff80006099: 48 8b 4a 20          	mov	rcx, qword ptr [rdx + 32]
ffffffff8000609d: 48 89 4d e8          	mov	qword ptr [rbp - 24], rcx
ffffffff800060a1: 48 8b 4a 18          	mov	rcx, qword ptr [rdx + 24]
ffffffff800060a5: 48 89 4d e0          	mov	qword ptr [rbp - 32], rcx
ffffffff800060a9: 48 8b 4a 10          	mov	rcx, qword ptr [rdx + 16]
ffffffff800060ad: 48 89 4d d8          	mov	qword ptr [rbp - 40], rcx
ffffffff800060b1: 48 8b 0a             	mov	rcx, qword ptr [rdx]
ffffffff800060b4: 48 8b 52 08          	mov	rdx, qword ptr [rdx + 8]
ffffffff800060b8: 48 89 55 d0          	mov	qword ptr [rbp - 48], rdx
ffffffff800060bc: 48 89 4d c8          	mov	qword ptr [rbp - 56], rcx
ffffffff800060c0: 48 89 e1             	mov	rcx, rsp
ffffffff800060c3: 4c 89 01             	mov	qword ptr [rcx], r8
ffffffff800060c6: 0f b6 f8             	movzx	edi, al
ffffffff800060c9: 4c 8d 05 50 b5 00 00 	lea	r8, [rip + 46416]       # 0xffffffff80011620 <xr6aouzjkjmurg0+0xffffffff80011620>
ffffffff800060d0: 48 8b 05 61 c0 00 00 	mov	rax, qword ptr [rip + 49249] # 0xffffffff80012138 <xr6aouzjkjmurg0+0xffffffff80012138>
ffffffff800060d7: 48 8d 75 b8          	lea	rsi, [rbp - 72]
ffffffff800060db: 48 8d 4d c0          	lea	rcx, [rbp - 64]
ffffffff800060df: 4c 8d 4d c8          	lea	r9, [rbp - 56]
ffffffff800060e3: 4c 89 c2             	mov	rdx, r8
ffffffff800060e6: ff d0                	call	rax
ffffffff800060e8: 0f 0b                	ud2
ffffffff800060ea: cc                   	int3
ffffffff800060eb: cc                   	int3
ffffffff800060ec: cc                   	int3
ffffffff800060ed: cc                   	int3
ffffffff800060ee: cc                   	int3
ffffffff800060ef: cc                   	int3

ffffffff800060f0 <_ZN6x86_6412instructions6tables4lidt17ha096ec453a8db43cE>:
ffffffff800060f0: 55                   	push	rbp
ffffffff800060f1: 48 89 e5             	mov	rbp, rsp
ffffffff800060f4: 50                   	push	rax
ffffffff800060f5: 48 89 7d f8          	mov	qword ptr [rbp - 8], rdi
ffffffff800060f9: 0f 01 1f             	lidt	[rdi]
ffffffff800060fc: 48 83 c4 08          	add	rsp, 8
ffffffff80006100: 5d                   	pop	rbp
ffffffff80006101: c3                   	ret
ffffffff80006102: cc                   	int3
ffffffff80006103: cc                   	int3
ffffffff80006104: cc                   	int3
ffffffff80006105: cc                   	int3
ffffffff80006106: cc                   	int3
ffffffff80006107: cc                   	int3
ffffffff80006108: cc                   	int3
ffffffff80006109: cc                   	int3
ffffffff8000610a: cc                   	int3
ffffffff8000610b: cc                   	int3
ffffffff8000610c: cc                   	int3
ffffffff8000610d: cc                   	int3
ffffffff8000610e: cc                   	int3
ffffffff8000610f: cc                   	int3

ffffffff80006110 <_ZN48_$LT$$RF$A$u20$as$u20$core..alloc..Allocator$GT$8allocate17h17468a76c3906da5E>:
ffffffff80006110: 55                   	push	rbp
ffffffff80006111: 48 89 e5             	mov	rbp, rsp
ffffffff80006114: 48 83 ec 20          	sub	rsp, 32
ffffffff80006118: 48 89 7d e8          	mov	qword ptr [rbp - 24], rdi
ffffffff8000611c: 48 89 75 f0          	mov	qword ptr [rbp - 16], rsi
ffffffff80006120: 48 89 55 f8          	mov	qword ptr [rbp - 8], rdx
ffffffff80006124: 48 8b 3f             	mov	rdi, qword ptr [rdi]
ffffffff80006127: e8 34 0f 00 00       	call	0xffffffff80007060 <_ZN77_$LT$qos..allocator..Allocator$LT$_$GT$$u20$as$u20$core..alloc..Allocator$GT$8allocate17h6208c27d51b3d3b7E>
ffffffff8000612c: 48 83 c4 20          	add	rsp, 32
ffffffff80006130: 5d                   	pop	rbp
ffffffff80006131: c3                   	ret
ffffffff80006132: cc                   	int3
ffffffff80006133: cc                   	int3
ffffffff80006134: cc                   	int3
ffffffff80006135: cc                   	int3
ffffffff80006136: cc                   	int3
ffffffff80006137: cc                   	int3
ffffffff80006138: cc                   	int3
ffffffff80006139: cc                   	int3
ffffffff8000613a: cc                   	int3
ffffffff8000613b: cc                   	int3
ffffffff8000613c: cc                   	int3
ffffffff8000613d: cc                   	int3
ffffffff8000613e: cc                   	int3
ffffffff8000613f: cc                   	int3

ffffffff80006140 <_ZN4core5alloc6global11GlobalAlloc12alloc_zeroed17h8bc54c62c2aec7beE>:
ffffffff80006140: 55                   	push	rbp
ffffffff80006141: 48 89 e5             	mov	rbp, rsp
ffffffff80006144: 48 83 ec 50          	sub	rsp, 80
ffffffff80006148: 48 89 75 c0          	mov	qword ptr [rbp - 64], rsi
ffffffff8000614c: 48 89 55 c8          	mov	qword ptr [rbp - 56], rdx
ffffffff80006150: 48 89 7d d0          	mov	qword ptr [rbp - 48], rdi
ffffffff80006154: 48 8d 45 c0          	lea	rax, [rbp - 64]
ffffffff80006158: 48 89 45 d8          	mov	qword ptr [rbp - 40], rax
ffffffff8000615c: 48 8b 45 c0          	mov	rax, qword ptr [rbp - 64]
ffffffff80006160: 48 89 45 b0          	mov	qword ptr [rbp - 80], rax
ffffffff80006164: 48 89 45 e0          	mov	qword ptr [rbp - 32], rax
ffffffff80006168: 48 8b 75 c0          	mov	rsi, qword ptr [rbp - 64]
ffffffff8000616c: 48 8b 55 c8          	mov	rdx, qword ptr [rbp - 56]
ffffffff80006170: e8 9b 0e 00 00       	call	0xffffffff80007010 <_ZN87_$LT$qos..allocator..Allocator$LT$_$GT$$u20$as$u20$core..alloc..global..GlobalAlloc$GT$5alloc17h0b73e189aa595145E>
ffffffff80006175: 48 89 c7             	mov	rdi, rax
ffffffff80006178: 48 89 7d b8          	mov	qword ptr [rbp - 72], rdi
ffffffff8000617c: 48 89 7d e8          	mov	qword ptr [rbp - 24], rdi
ffffffff80006180: e8 bb 36 00 00       	call	0xffffffff80009840 <_ZN4core3ptr7mut_ptr31_$LT$impl$u20$$BP$mut$u20$T$GT$7is_null17ha79a1cd5f5a43489E>
ffffffff80006185: 34 ff                	xor	al, -1
ffffffff80006187: a8 01                	test	al, 1
ffffffff80006189: 75 0a                	jne	0xffffffff80006195 <_ZN4core5alloc6global11GlobalAlloc12alloc_zeroed17h8bc54c62c2aec7beE+0x55>
ffffffff8000618b: 48 8b 45 b8          	mov	rax, qword ptr [rbp - 72]
ffffffff8000618f: 48 83 c4 50          	add	rsp, 80
ffffffff80006193: 5d                   	pop	rbp
ffffffff80006194: c3                   	ret
ffffffff80006195: 48 8b 7d b8          	mov	rdi, qword ptr [rbp - 72]
ffffffff80006199: 48 8b 55 b0          	mov	rdx, qword ptr [rbp - 80]
ffffffff8000619d: 48 89 7d f0          	mov	qword ptr [rbp - 16], rdi
ffffffff800061a1: 48 89 55 f8          	mov	qword ptr [rbp - 8], rdx
ffffffff800061a5: 48 c1 e2 00          	shl	rdx, 0
ffffffff800061a9: 31 c0                	xor	eax, eax
ffffffff800061ab: 31 f6                	xor	esi, esi
ffffffff800061ad: 48 8b 05 8c bf 00 00 	mov	rax, qword ptr [rip + 49036] # 0xffffffff80012140 <xr6aouzjkjmurg0+0xffffffff80012140>
ffffffff800061b4: ff d0                	call	rax
ffffffff800061b6: eb d3                	jmp	0xffffffff8000618b <_ZN4core5alloc6global11GlobalAlloc12alloc_zeroed17h8bc54c62c2aec7beE+0x4b>
ffffffff800061b8: cc                   	int3
ffffffff800061b9: cc                   	int3
ffffffff800061ba: cc                   	int3
ffffffff800061bb: cc                   	int3
ffffffff800061bc: cc                   	int3
ffffffff800061bd: cc                   	int3
ffffffff800061be: cc                   	int3
ffffffff800061bf: cc                   	int3

ffffffff800061c0 <_ZN4core5slice29_$LT$impl$u20$$u5b$T$u5d$$GT$17get_unchecked_mut17hb89451bbafd0acacE>:
ffffffff800061c0: 55                   	push	rbp
ffffffff800061c1: 48 89 e5             	mov	rbp, rsp
ffffffff800061c4: 48 83 ec 20          	sub	rsp, 32
ffffffff800061c8: 48 89 55 e0          	mov	qword ptr [rbp - 32], rdx
ffffffff800061cc: 48 89 f2             	mov	rdx, rsi
ffffffff800061cf: 48 89 fe             	mov	rsi, rdi
ffffffff800061d2: 48 8b 7d e0          	mov	rdi, qword ptr [rbp - 32]
ffffffff800061d6: 48 89 75 e8          	mov	qword ptr [rbp - 24], rsi
ffffffff800061da: 48 89 55 f0          	mov	qword ptr [rbp - 16], rdx
ffffffff800061de: 48 89 7d f8          	mov	qword ptr [rbp - 8], rdi
ffffffff800061e2: e8 e9 d6 ff ff       	call	0xffffffff800038d0 <_ZN75_$LT$usize$u20$as$u20$core..slice..index..SliceIndex$LT$$u5b$T$u5d$$GT$$GT$17get_unchecked_mut17h98c20814769ee4a8E>
ffffffff800061e7: 48 83 c4 20          	add	rsp, 32
ffffffff800061eb: 5d                   	pop	rbp
ffffffff800061ec: c3                   	ret
ffffffff800061ed: cc                   	int3
ffffffff800061ee: cc                   	int3
ffffffff800061ef: cc                   	int3

ffffffff800061f0 <_ZN3qos9allocator18Allocator$LT$_$GT$12freelist_get17h1813a5486a53d7e1E>:
ffffffff800061f0: 55                   	push	rbp
ffffffff800061f1: 48 89 e5             	mov	rbp, rsp
ffffffff800061f4: 48 81 ec 60 02 00 00 	sub	rsp, 608
ffffffff800061fb: 48 89 f2             	mov	rdx, rsi
ffffffff800061fe: 48 89 95 c0 fd ff ff 	mov	qword ptr [rbp - 576], rdx
ffffffff80006205: 48 89 bd 78 fe ff ff 	mov	qword ptr [rbp - 392], rdi
ffffffff8000620c: 48 89 95 80 fe ff ff 	mov	qword ptr [rbp - 384], rdx
ffffffff80006213: 48 89 7d f8          	mov	qword ptr [rbp - 8], rdi
ffffffff80006217: be 09 00 00 00       	mov	esi, 9
ffffffff8000621c: e8 9f ff ff ff       	call	0xffffffff800061c0 <_ZN4core5slice29_$LT$impl$u20$$u5b$T$u5d$$GT$17get_unchecked_mut17hb89451bbafd0acacE>
ffffffff80006221: 48 89 85 c8 fd ff ff 	mov	qword ptr [rbp - 568], rax
ffffffff80006228: 48 89 85 88 fe ff ff 	mov	qword ptr [rbp - 376], rax
ffffffff8000622f: 48 8b 10             	mov	rdx, qword ptr [rax]
ffffffff80006232: b8 01 00 00 00       	mov	eax, 1
ffffffff80006237: 31 c9                	xor	ecx, ecx
ffffffff80006239: 48 83 fa 00          	cmp	rdx, 0
ffffffff8000623d: 48 0f 44 c1          	cmove	rax, rcx
ffffffff80006241: 48 83 f8 01          	cmp	rax, 1
ffffffff80006245: 75 2b                	jne	0xffffffff80006272 <_ZN3qos9allocator18Allocator$LT$_$GT$12freelist_get17h1813a5486a53d7e1E+0x82>
ffffffff80006247: 48 8b 8d c8 fd ff ff 	mov	rcx, qword ptr [rbp - 568]
ffffffff8000624e: 48 8b 01             	mov	rax, qword ptr [rcx]
ffffffff80006251: 48 89 85 c0 fe ff ff 	mov	qword ptr [rbp - 320], rax
ffffffff80006258: 48 89 45 a8          	mov	qword ptr [rbp - 88], rax
ffffffff8000625c: 48 8b 10             	mov	rdx, qword ptr [rax]
ffffffff8000625f: 48 89 11             	mov	qword ptr [rcx], rdx
ffffffff80006262: 48 89 45 a0          	mov	qword ptr [rbp - 96], rax
ffffffff80006266: 48 89 85 d0 fd ff ff 	mov	qword ptr [rbp - 560], rax
ffffffff8000626d: e9 98 01 00 00       	jmp	0xffffffff8000640a <_ZN3qos9allocator18Allocator$LT$_$GT$12freelist_get17h1813a5486a53d7e1E+0x21a>
ffffffff80006272: 48 8b 85 c0 fd ff ff 	mov	rax, qword ptr [rbp - 576]
ffffffff80006279: 48 83 f8 08          	cmp	rax, 8
ffffffff8000627d: 74 29                	je	0xffffffff800062a8 <_ZN3qos9allocator18Allocator$LT$_$GT$12freelist_get17h1813a5486a53d7e1E+0xb8>
ffffffff8000627f: 48 8b bd c0 fd ff ff 	mov	rdi, qword ptr [rbp - 576]
ffffffff80006286: e8 f5 4a 00 00       	call	0xffffffff8000ad80 <_ZN3qos9allocator13index_to_size17h36571622c154ff3bE>
ffffffff8000628b: 48 89 85 b8 fd ff ff 	mov	qword ptr [rbp - 584], rax
ffffffff80006292: 48 89 85 98 fe ff ff 	mov	qword ptr [rbp - 360], rax
ffffffff80006299: 31 c0                	xor	eax, eax
ffffffff8000629b: a8 01                	test	al, 1
ffffffff8000629d: 0f 85 b8 01 00 00    	jne	0xffffffff8000645b <_ZN3qos9allocator18Allocator$LT$_$GT$12freelist_get17h1813a5486a53d7e1E+0x26b>
ffffffff800062a3: e9 72 01 00 00       	jmp	0xffffffff8000641a <_ZN3qos9allocator18Allocator$LT$_$GT$12freelist_get17h1813a5486a53d7e1E+0x22a>
ffffffff800062a8: 31 c0                	xor	eax, eax
ffffffff800062aa: a8 01                	test	al, 1
ffffffff800062ac: 75 43                	jne	0xffffffff800062f1 <_ZN3qos9allocator18Allocator$LT$_$GT$12freelist_get17h1813a5486a53d7e1E+0x101>
ffffffff800062ae: eb 00                	jmp	0xffffffff800062b0 <_ZN3qos9allocator18Allocator$LT$_$GT$12freelist_get17h1813a5486a53d7e1E+0xc0>
ffffffff800062b0: 48 8d 3d a1 e1 00 00 	lea	rdi, [rip + 57761]      # 0xffffffff80014458 <_ZN3qos9allocator14PAGE_ALLOCATOR17ha1d94bef89ffa1b9E>
ffffffff800062b7: e8 94 45 00 00       	call	0xffffffff8000a850 <_ZN3qos4sync14Mutex$LT$T$GT$4lock17h3cb0bcdec5922119E>
ffffffff800062bc: 48 89 85 e8 fd ff ff 	mov	qword ptr [rbp - 536], rax
ffffffff800062c3: 48 8d bd e8 fd ff ff 	lea	rdi, [rbp - 536]
ffffffff800062ca: e8 91 44 00 00       	call	0xffffffff8000a760 <_ZN77_$LT$qos..sync..MutexGuard$LT$T$GT$$u20$as$u20$core..ops..deref..DerefMut$GT$9deref_mut17h2515cfba8d16f301E>
ffffffff800062cf: 48 89 c7             	mov	rdi, rax
ffffffff800062d2: be 01 00 00 00       	mov	esi, 1
ffffffff800062d7: e8 c4 62 00 00       	call	0xffffffff8000c5a0 <_ZN3qos9allocator14page_allocator13PageAllocator11alloc_pages17h08e225ec3e39b698E>
ffffffff800062dc: 48 89 85 d8 fd ff ff 	mov	qword ptr [rbp - 552], rax
ffffffff800062e3: 48 8d bd e8 fd ff ff 	lea	rdi, [rbp - 536]
ffffffff800062ea: e8 b1 64 00 00       	call	0xffffffff8000c7a0 <_ZN4core3ptr95drop_in_place$LT$qos..sync..MutexGuard$LT$qos..allocator..page_allocator..PageAllocator$GT$$GT$17h528ae5d18d2696deE>
ffffffff800062ef: eb 3f                	jmp	0xffffffff80006330 <_ZN3qos9allocator18Allocator$LT$_$GT$12freelist_get17h1813a5486a53d7e1E+0x140>
ffffffff800062f1: 48 8d 3d 60 e1 00 00 	lea	rdi, [rip + 57696]      # 0xffffffff80014458 <_ZN3qos9allocator14PAGE_ALLOCATOR17ha1d94bef89ffa1b9E>
ffffffff800062f8: e8 53 45 00 00       	call	0xffffffff8000a850 <_ZN3qos4sync14Mutex$LT$T$GT$4lock17h3cb0bcdec5922119E>
ffffffff800062fd: 48 89 85 e0 fd ff ff 	mov	qword ptr [rbp - 544], rax
ffffffff80006304: 48 8d bd e0 fd ff ff 	lea	rdi, [rbp - 544]
ffffffff8000630b: e8 50 44 00 00       	call	0xffffffff8000a760 <_ZN77_$LT$qos..sync..MutexGuard$LT$T$GT$$u20$as$u20$core..ops..deref..DerefMut$GT$9deref_mut17h2515cfba8d16f301E>
ffffffff80006310: 48 89 c7             	mov	rdi, rax
ffffffff80006313: be 01 00 00 00       	mov	esi, 1
ffffffff80006318: e8 a3 62 00 00       	call	0xffffffff8000c5c0 <_ZN3qos9allocator14page_allocator13PageAllocator15alloc_pages_low17h1124476fbec6b6c8E>
ffffffff8000631d: 48 89 85 d8 fd ff ff 	mov	qword ptr [rbp - 552], rax
ffffffff80006324: 48 8d bd e0 fd ff ff 	lea	rdi, [rbp - 544]
ffffffff8000632b: e8 70 64 00 00       	call	0xffffffff8000c7a0 <_ZN4core3ptr95drop_in_place$LT$qos..sync..MutexGuard$LT$qos..allocator..page_allocator..PageAllocator$GT$$GT$17h528ae5d18d2696deE>
ffffffff80006330: 48 8b bd d8 fd ff ff 	mov	rdi, qword ptr [rbp - 552]
ffffffff80006337: e8 04 35 00 00       	call	0xffffffff80009840 <_ZN4core3ptr7mut_ptr31_$LT$impl$u20$$BP$mut$u20$T$GT$7is_null17ha79a1cd5f5a43489E>
ffffffff8000633c: a8 01                	test	al, 1
ffffffff8000633e: 0f 85 9f 00 00 00    	jne	0xffffffff800063e3 <_ZN3qos9allocator18Allocator$LT$_$GT$12freelist_get17h1813a5486a53d7e1E+0x1f3>
ffffffff80006344: 48 8b 85 d8 fd ff ff 	mov	rax, qword ptr [rbp - 552]
ffffffff8000634b: 48 89 85 18 ff ff ff 	mov	qword ptr [rbp - 232], rax
ffffffff80006352: 48 c7 85 20 ff ff ff 00 08 00 00     	mov	qword ptr [rbp - 224], 2048
ffffffff8000635d: 48 89 85 28 ff ff ff 	mov	qword ptr [rbp - 216], rax
ffffffff80006364: 48 c7 85 30 ff ff ff 00 08 00 00     	mov	qword ptr [rbp - 208], 2048
ffffffff8000636f: 48 05 00 08 00 00    	add	rax, 2048
ffffffff80006375: 48 89 85 38 ff ff ff 	mov	qword ptr [rbp - 200], rax
ffffffff8000637c: 48 8b bd 38 ff ff ff 	mov	rdi, qword ptr [rbp - 200]
ffffffff80006383: 48 89 bd 90 fe ff ff 	mov	qword ptr [rbp - 368], rdi
ffffffff8000638a: 48 c7 85 f0 fd ff ff 00 00 00 00     	mov	qword ptr [rbp - 528], 0
ffffffff80006395: 48 8b 85 f0 fd ff ff 	mov	rax, qword ptr [rbp - 528]
ffffffff8000639c: 48 89 7d 88          	mov	qword ptr [rbp - 120], rdi
ffffffff800063a0: 48 89 45 90          	mov	qword ptr [rbp - 112], rax
ffffffff800063a4: 48 89 7d 98          	mov	qword ptr [rbp - 104], rdi
ffffffff800063a8: 48 89 45 80          	mov	qword ptr [rbp - 128], rax
ffffffff800063ac: 48 8b 45 80          	mov	rax, qword ptr [rbp - 128]
ffffffff800063b0: 48 89 07             	mov	qword ptr [rdi], rax
ffffffff800063b3: e8 f8 3e 00 00       	call	0xffffffff8000a2b0 <_ZN4core3ptr8non_null16NonNull$LT$T$GT$13new_unchecked17h999a94f5ac5b0a5bE>
ffffffff800063b8: 48 89 c1             	mov	rcx, rax
ffffffff800063bb: 48 8b 85 c8 fd ff ff 	mov	rax, qword ptr [rbp - 568]
ffffffff800063c2: 48 89 8d f8 fd ff ff 	mov	qword ptr [rbp - 520], rcx
ffffffff800063c9: 48 8b 8d f8 fd ff ff 	mov	rcx, qword ptr [rbp - 520]
ffffffff800063d0: 48 89 08             	mov	qword ptr [rax], rcx
ffffffff800063d3: 48 8b 85 d8 fd ff ff 	mov	rax, qword ptr [rbp - 552]
ffffffff800063da: 48 89 85 d0 fd ff ff 	mov	qword ptr [rbp - 560], rax
ffffffff800063e1: eb 27                	jmp	0xffffffff8000640a <_ZN3qos9allocator18Allocator$LT$_$GT$12freelist_get17h1813a5486a53d7e1E+0x21a>
ffffffff800063e3: 48 c7 45 e8 00 00 00 00      	mov	qword ptr [rbp - 24], 0
ffffffff800063eb: 48 8b 45 e8          	mov	rax, qword ptr [rbp - 24]
ffffffff800063ef: 48 89 45 f0          	mov	qword ptr [rbp - 16], rax
ffffffff800063f3: 48 89 45 e0          	mov	qword ptr [rbp - 32], rax
ffffffff800063f7: 48 8b 45 e0          	mov	rax, qword ptr [rbp - 32]
ffffffff800063fb: 48 89 45 d8          	mov	qword ptr [rbp - 40], rax
ffffffff800063ff: 48 8b 45 d8          	mov	rax, qword ptr [rbp - 40]
ffffffff80006403: 48 89 85 d0 fd ff ff 	mov	qword ptr [rbp - 560], rax
ffffffff8000640a: 48 8b 85 d0 fd ff ff 	mov	rax, qword ptr [rbp - 560]
ffffffff80006411: 48 81 c4 60 02 00 00 	add	rsp, 608
ffffffff80006418: 5d                   	pop	rbp
ffffffff80006419: c3                   	ret
ffffffff8000641a: 48 8d 3d 37 e0 00 00 	lea	rdi, [rip + 57399]      # 0xffffffff80014458 <_ZN3qos9allocator14PAGE_ALLOCATOR17ha1d94bef89ffa1b9E>
ffffffff80006421: e8 2a 44 00 00       	call	0xffffffff8000a850 <_ZN3qos4sync14Mutex$LT$T$GT$4lock17h3cb0bcdec5922119E>
ffffffff80006426: 48 89 85 10 fe ff ff 	mov	qword ptr [rbp - 496], rax
ffffffff8000642d: 48 8d bd 10 fe ff ff 	lea	rdi, [rbp - 496]
ffffffff80006434: e8 27 43 00 00       	call	0xffffffff8000a760 <_ZN77_$LT$qos..sync..MutexGuard$LT$T$GT$$u20$as$u20$core..ops..deref..DerefMut$GT$9deref_mut17h2515cfba8d16f301E>
ffffffff80006439: 48 89 c7             	mov	rdi, rax
ffffffff8000643c: be 01 00 00 00       	mov	esi, 1
ffffffff80006441: e8 5a 61 00 00       	call	0xffffffff8000c5a0 <_ZN3qos9allocator14page_allocator13PageAllocator11alloc_pages17h08e225ec3e39b698E>
ffffffff80006446: 48 89 85 00 fe ff ff 	mov	qword ptr [rbp - 512], rax
ffffffff8000644d: 48 8d bd 10 fe ff ff 	lea	rdi, [rbp - 496]
ffffffff80006454: e8 47 63 00 00       	call	0xffffffff8000c7a0 <_ZN4core3ptr95drop_in_place$LT$qos..sync..MutexGuard$LT$qos..allocator..page_allocator..PageAllocator$GT$$GT$17h528ae5d18d2696deE>
ffffffff80006459: eb 3f                	jmp	0xffffffff8000649a <_ZN3qos9allocator18Allocator$LT$_$GT$12freelist_get17h1813a5486a53d7e1E+0x2aa>
ffffffff8000645b: 48 8d 3d f6 df 00 00 	lea	rdi, [rip + 57334]      # 0xffffffff80014458 <_ZN3qos9allocator14PAGE_ALLOCATOR17ha1d94bef89ffa1b9E>
ffffffff80006462: e8 e9 43 00 00       	call	0xffffffff8000a850 <_ZN3qos4sync14Mutex$LT$T$GT$4lock17h3cb0bcdec5922119E>
ffffffff80006467: 48 89 85 08 fe ff ff 	mov	qword ptr [rbp - 504], rax
ffffffff8000646e: 48 8d bd 08 fe ff ff 	lea	rdi, [rbp - 504]
ffffffff80006475: e8 e6 42 00 00       	call	0xffffffff8000a760 <_ZN77_$LT$qos..sync..MutexGuard$LT$T$GT$$u20$as$u20$core..ops..deref..DerefMut$GT$9deref_mut17h2515cfba8d16f301E>
ffffffff8000647a: 48 89 c7             	mov	rdi, rax
ffffffff8000647d: be 01 00 00 00       	mov	esi, 1
ffffffff80006482: e8 39 61 00 00       	call	0xffffffff8000c5c0 <_ZN3qos9allocator14page_allocator13PageAllocator15alloc_pages_low17h1124476fbec6b6c8E>
ffffffff80006487: 48 89 85 00 fe ff ff 	mov	qword ptr [rbp - 512], rax
ffffffff8000648e: 48 8d bd 08 fe ff ff 	lea	rdi, [rbp - 504]
ffffffff80006495: e8 06 63 00 00       	call	0xffffffff8000c7a0 <_ZN4core3ptr95drop_in_place$LT$qos..sync..MutexGuard$LT$qos..allocator..page_allocator..PageAllocator$GT$$GT$17h528ae5d18d2696deE>
ffffffff8000649a: 48 8b bd 00 fe ff ff 	mov	rdi, qword ptr [rbp - 512]
ffffffff800064a1: e8 9a 33 00 00       	call	0xffffffff80009840 <_ZN4core3ptr7mut_ptr31_$LT$impl$u20$$BP$mut$u20$T$GT$7is_null17ha79a1cd5f5a43489E>
ffffffff800064a6: a8 01                	test	al, 1
ffffffff800064a8: 0f 85 bc 00 00 00    	jne	0xffffffff8000656a <_ZN3qos9allocator18Allocator$LT$_$GT$12freelist_get17h1813a5486a53d7e1E+0x37a>
ffffffff800064ae: 48 8b 8d b8 fd ff ff 	mov	rcx, qword ptr [rbp - 584]
ffffffff800064b5: 48 8b 85 00 fe ff ff 	mov	rax, qword ptr [rbp - 512]
ffffffff800064bc: 48 89 85 f0 fe ff ff 	mov	qword ptr [rbp - 272], rax
ffffffff800064c3: 48 89 8d f8 fe ff ff 	mov	qword ptr [rbp - 264], rcx
ffffffff800064ca: 48 89 85 00 ff ff ff 	mov	qword ptr [rbp - 256], rax
ffffffff800064d1: 48 89 8d 08 ff ff ff 	mov	qword ptr [rbp - 248], rcx
ffffffff800064d8: 48 01 c8             	add	rax, rcx
ffffffff800064db: 48 89 85 10 ff ff ff 	mov	qword ptr [rbp - 240], rax
ffffffff800064e2: 48 8b 85 10 ff ff ff 	mov	rax, qword ptr [rbp - 240]
ffffffff800064e9: 48 89 85 18 fe ff ff 	mov	qword ptr [rbp - 488], rax
ffffffff800064f0: 48 8b bd 18 fe ff ff 	mov	rdi, qword ptr [rbp - 488]
ffffffff800064f7: 48 89 bd a0 fe ff ff 	mov	qword ptr [rbp - 352], rdi
ffffffff800064fe: 48 c7 85 20 fe ff ff 00 00 00 00     	mov	qword ptr [rbp - 480], 0
ffffffff80006509: 48 8b 85 20 fe ff ff 	mov	rax, qword ptr [rbp - 480]
ffffffff80006510: 48 89 bd 68 ff ff ff 	mov	qword ptr [rbp - 152], rdi
ffffffff80006517: 48 89 85 70 ff ff ff 	mov	qword ptr [rbp - 144], rax
ffffffff8000651e: 48 89 bd 78 ff ff ff 	mov	qword ptr [rbp - 136], rdi
ffffffff80006525: 48 89 85 60 ff ff ff 	mov	qword ptr [rbp - 160], rax
ffffffff8000652c: 48 8b 85 60 ff ff ff 	mov	rax, qword ptr [rbp - 160]
ffffffff80006533: 48 89 07             	mov	qword ptr [rdi], rax
ffffffff80006536: e8 75 3d 00 00       	call	0xffffffff8000a2b0 <_ZN4core3ptr8non_null16NonNull$LT$T$GT$13new_unchecked17h999a94f5ac5b0a5bE>
ffffffff8000653b: 48 8b 8d c8 fd ff ff 	mov	rcx, qword ptr [rbp - 568]
ffffffff80006542: 48 89 c2             	mov	rdx, rax
ffffffff80006545: 48 8b 85 b8 fd ff ff 	mov	rax, qword ptr [rbp - 584]
ffffffff8000654c: 48 89 95 28 fe ff ff 	mov	qword ptr [rbp - 472], rdx
ffffffff80006553: 48 8b 95 28 fe ff ff 	mov	rdx, qword ptr [rbp - 472]
ffffffff8000655a: 48 89 11             	mov	qword ptr [rcx], rdx
ffffffff8000655d: 48 83 f8 00          	cmp	rax, 0
ffffffff80006561: 0f 94 c0             	sete	al
ffffffff80006564: a8 01                	test	al, 1
ffffffff80006566: 75 5e                	jne	0xffffffff800065c6 <_ZN3qos9allocator18Allocator$LT$_$GT$12freelist_get17h1813a5486a53d7e1E+0x3d6>
ffffffff80006568: eb 2c                	jmp	0xffffffff80006596 <_ZN3qos9allocator18Allocator$LT$_$GT$12freelist_get17h1813a5486a53d7e1E+0x3a6>
ffffffff8000656a: 48 c7 45 c8 00 00 00 00      	mov	qword ptr [rbp - 56], 0
ffffffff80006572: 48 8b 45 c8          	mov	rax, qword ptr [rbp - 56]
ffffffff80006576: 48 89 45 d0          	mov	qword ptr [rbp - 48], rax
ffffffff8000657a: 48 89 45 c0          	mov	qword ptr [rbp - 64], rax
ffffffff8000657e: 48 8b 45 c0          	mov	rax, qword ptr [rbp - 64]
ffffffff80006582: 48 89 45 b8          	mov	qword ptr [rbp - 72], rax
ffffffff80006586: 48 8b 45 b8          	mov	rax, qword ptr [rbp - 72]
ffffffff8000658a: 48 89 85 d0 fd ff ff 	mov	qword ptr [rbp - 560], rax
ffffffff80006591: e9 74 fe ff ff       	jmp	0xffffffff8000640a <_ZN3qos9allocator18Allocator$LT$_$GT$12freelist_get17h1813a5486a53d7e1E+0x21a>
ffffffff80006596: 48 8b 8d b8 fd ff ff 	mov	rcx, qword ptr [rbp - 584]
ffffffff8000659d: b8 00 10 00 00       	mov	eax, 4096
ffffffff800065a2: 31 d2                	xor	edx, edx
ffffffff800065a4: 48 f7 f1             	div	rcx
ffffffff800065a7: 48 89 c1             	mov	rcx, rax
ffffffff800065aa: 48 83 e9 02          	sub	rcx, 2
ffffffff800065ae: 48 89 8d b0 fd ff ff 	mov	qword ptr [rbp - 592], rcx
ffffffff800065b5: 48 83 f8 02          	cmp	rax, 2
ffffffff800065b9: 0f 92 c0             	setb	al
ffffffff800065bc: a8 01                	test	al, 1
ffffffff800065be: 0f 85 8a 00 00 00    	jne	0xffffffff8000664e <_ZN3qos9allocator18Allocator$LT$_$GT$12freelist_get17h1813a5486a53d7e1E+0x45e>
ffffffff800065c4: eb 1e                	jmp	0xffffffff800065e4 <_ZN3qos9allocator18Allocator$LT$_$GT$12freelist_get17h1813a5486a53d7e1E+0x3f4>
ffffffff800065c6: 48 8d 3d 93 b6 ff ff 	lea	rdi, [rip - 18797]      # 0xffffffff80001c60 <str.1>
ffffffff800065cd: 48 8d 15 6c b0 00 00 	lea	rdx, [rip + 45164]      # 0xffffffff80011640 <xr6aouzjkjmurg0+0xffffffff80011640>
ffffffff800065d4: 48 8b 05 05 bb 00 00 	mov	rax, qword ptr [rip + 47877] # 0xffffffff800120e0 <xr6aouzjkjmurg0+0xffffffff800120e0>
ffffffff800065db: be 19 00 00 00       	mov	esi, 25
ffffffff800065e0: ff d0                	call	rax
ffffffff800065e2: 0f 0b                	ud2
ffffffff800065e4: 48 8b 8d b0 fd ff ff 	mov	rcx, qword ptr [rbp - 592]
ffffffff800065eb: 48 8b 85 c8 fd ff ff 	mov	rax, qword ptr [rbp - 568]
ffffffff800065f2: 48 89 8d a8 fe ff ff 	mov	qword ptr [rbp - 344], rcx
ffffffff800065f9: 48 8b 38             	mov	rdi, qword ptr [rax]
ffffffff800065fc: 48 8d 35 55 b0 00 00 	lea	rsi, [rip + 45141]      # 0xffffffff80011658 <xr6aouzjkjmurg0+0xffffffff80011658>
ffffffff80006603: e8 28 37 00 00       	call	0xffffffff80009d30 <_ZN4core6option15Option$LT$T$GT$16unwrap_unchecked17h579d50e7d7102741E>
ffffffff80006608: 48 89 c1             	mov	rcx, rax
ffffffff8000660b: 48 8b 85 b0 fd ff ff 	mov	rax, qword ptr [rbp - 592]
ffffffff80006612: 48 89 8d 30 fe ff ff 	mov	qword ptr [rbp - 464], rcx
ffffffff80006619: 48 c7 85 38 fe ff ff 00 00 00 00     	mov	qword ptr [rbp - 456], 0
ffffffff80006624: 48 89 85 40 fe ff ff 	mov	qword ptr [rbp - 448], rax
ffffffff8000662b: 48 8b bd 38 fe ff ff 	mov	rdi, qword ptr [rbp - 456]
ffffffff80006632: 48 8b b5 40 fe ff ff 	mov	rsi, qword ptr [rbp - 448]
ffffffff80006639: e8 42 3f 00 00       	call	0xffffffff8000a580 <_ZN63_$LT$I$u20$as$u20$core..iter..traits..collect..IntoIterator$GT$9into_iter17h1a92386f5c2a06d2E>
ffffffff8000663e: 48 89 85 48 fe ff ff 	mov	qword ptr [rbp - 440], rax
ffffffff80006645: 48 89 95 50 fe ff ff 	mov	qword ptr [rbp - 432], rdx
ffffffff8000664c: eb 1e                	jmp	0xffffffff8000666c <_ZN3qos9allocator18Allocator$LT$_$GT$12freelist_get17h1813a5486a53d7e1E+0x47c>
ffffffff8000664e: 48 8d 3d 2b b6 ff ff 	lea	rdi, [rip - 18901]      # 0xffffffff80001c80 <str.2>
ffffffff80006655: 48 8d 15 e4 af 00 00 	lea	rdx, [rip + 45028]      # 0xffffffff80011640 <xr6aouzjkjmurg0+0xffffffff80011640>
ffffffff8000665c: 48 8b 05 7d ba 00 00 	mov	rax, qword ptr [rip + 47741] # 0xffffffff800120e0 <xr6aouzjkjmurg0+0xffffffff800120e0>
ffffffff80006663: be 21 00 00 00       	mov	esi, 33
ffffffff80006668: ff d0                	call	rax
ffffffff8000666a: 0f 0b                	ud2
ffffffff8000666c: 48 8d bd 48 fe ff ff 	lea	rdi, [rbp - 440]
ffffffff80006673: e8 e8 3e 00 00       	call	0xffffffff8000a560 <_ZN4core4iter5range101_$LT$impl$u20$core..iter..traits..iterator..Iterator$u20$for$u20$core..ops..range..Range$LT$A$GT$$GT$4next17ha48bff387f27bd7eE>
ffffffff80006678: 48 89 95 60 fe ff ff 	mov	qword ptr [rbp - 416], rdx
ffffffff8000667f: 48 89 85 58 fe ff ff 	mov	qword ptr [rbp - 424], rax
ffffffff80006686: 48 83 bd 58 fe ff ff 00      	cmp	qword ptr [rbp - 424], 0
ffffffff8000668e: 75 13                	jne	0xffffffff800066a3 <_ZN3qos9allocator18Allocator$LT$_$GT$12freelist_get17h1813a5486a53d7e1E+0x4b3>
ffffffff80006690: 48 8b 85 00 fe ff ff 	mov	rax, qword ptr [rbp - 512]
ffffffff80006697: 48 89 85 d0 fd ff ff 	mov	qword ptr [rbp - 560], rax
ffffffff8000669e: e9 67 fd ff ff       	jmp	0xffffffff8000640a <_ZN3qos9allocator18Allocator$LT$_$GT$12freelist_get17h1813a5486a53d7e1E+0x21a>
ffffffff800066a3: 48 8b 85 30 fe ff ff 	mov	rax, qword ptr [rbp - 464]
ffffffff800066aa: 48 89 85 a8 fd ff ff 	mov	qword ptr [rbp - 600], rax
ffffffff800066b1: 48 89 45 b0          	mov	qword ptr [rbp - 80], rax
ffffffff800066b5: 48 89 85 b0 fe ff ff 	mov	qword ptr [rbp - 336], rax
ffffffff800066bc: 48 8b bd 18 fe ff ff 	mov	rdi, qword ptr [rbp - 488]
ffffffff800066c3: 48 89 bd a0 fd ff ff 	mov	qword ptr [rbp - 608], rdi
ffffffff800066ca: 48 89 bd b8 fe ff ff 	mov	qword ptr [rbp - 328], rdi
ffffffff800066d1: 48 c7 85 68 fe ff ff 00 00 00 00     	mov	qword ptr [rbp - 408], 0
ffffffff800066dc: 48 8b 85 68 fe ff ff 	mov	rax, qword ptr [rbp - 408]
ffffffff800066e3: 48 89 bd 48 ff ff ff 	mov	qword ptr [rbp - 184], rdi
ffffffff800066ea: 48 89 85 50 ff ff ff 	mov	qword ptr [rbp - 176], rax
ffffffff800066f1: 48 89 bd 58 ff ff ff 	mov	qword ptr [rbp - 168], rdi
ffffffff800066f8: 48 89 85 40 ff ff ff 	mov	qword ptr [rbp - 192], rax
ffffffff800066ff: 48 8b 85 40 ff ff ff 	mov	rax, qword ptr [rbp - 192]
ffffffff80006706: 48 89 07             	mov	qword ptr [rdi], rax
ffffffff80006709: e8 a2 3b 00 00       	call	0xffffffff8000a2b0 <_ZN4core3ptr8non_null16NonNull$LT$T$GT$13new_unchecked17h999a94f5ac5b0a5bE>
ffffffff8000670e: 48 8b 8d b8 fd ff ff 	mov	rcx, qword ptr [rbp - 584]
ffffffff80006715: 48 8b bd a0 fd ff ff 	mov	rdi, qword ptr [rbp - 608]
ffffffff8000671c: 48 89 c2             	mov	rdx, rax
ffffffff8000671f: 48 8b 85 a8 fd ff ff 	mov	rax, qword ptr [rbp - 600]
ffffffff80006726: 48 89 95 70 fe ff ff 	mov	qword ptr [rbp - 400], rdx
ffffffff8000672d: 48 8b 95 70 fe ff ff 	mov	rdx, qword ptr [rbp - 400]
ffffffff80006734: 48 89 10             	mov	qword ptr [rax], rdx
ffffffff80006737: 48 8b 85 18 fe ff ff 	mov	rax, qword ptr [rbp - 488]
ffffffff8000673e: 48 89 85 c8 fe ff ff 	mov	qword ptr [rbp - 312], rax
ffffffff80006745: 48 89 8d d0 fe ff ff 	mov	qword ptr [rbp - 304], rcx
ffffffff8000674c: 48 89 85 d8 fe ff ff 	mov	qword ptr [rbp - 296], rax
ffffffff80006753: 48 89 8d e0 fe ff ff 	mov	qword ptr [rbp - 288], rcx
ffffffff8000675a: 48 01 c8             	add	rax, rcx
ffffffff8000675d: 48 89 85 e8 fe ff ff 	mov	qword ptr [rbp - 280], rax
ffffffff80006764: 48 8b 85 e8 fe ff ff 	mov	rax, qword ptr [rbp - 280]
ffffffff8000676b: 48 89 85 18 fe ff ff 	mov	qword ptr [rbp - 488], rax
ffffffff80006772: e8 39 3b 00 00       	call	0xffffffff8000a2b0 <_ZN4core3ptr8non_null16NonNull$LT$T$GT$13new_unchecked17h999a94f5ac5b0a5bE>
ffffffff80006777: 48 89 85 30 fe ff ff 	mov	qword ptr [rbp - 464], rax
ffffffff8000677e: e9 e9 fe ff ff       	jmp	0xffffffff8000666c <_ZN3qos9allocator18Allocator$LT$_$GT$12freelist_get17h1813a5486a53d7e1E+0x47c>
ffffffff80006783: cc                   	int3
ffffffff80006784: cc                   	int3
ffffffff80006785: cc                   	int3
ffffffff80006786: cc                   	int3
ffffffff80006787: cc                   	int3
ffffffff80006788: cc                   	int3
ffffffff80006789: cc                   	int3
ffffffff8000678a: cc                   	int3
ffffffff8000678b: cc                   	int3
ffffffff8000678c: cc                   	int3
ffffffff8000678d: cc                   	int3
ffffffff8000678e: cc                   	int3
ffffffff8000678f: cc                   	int3

ffffffff80006790 <_ZN3qos9allocator18Allocator$LT$_$GT$12freelist_get17h8668e8f9938d0907E>:
ffffffff80006790: 55                   	push	rbp
ffffffff80006791: 48 89 e5             	mov	rbp, rsp
ffffffff80006794: 48 81 ec 60 02 00 00 	sub	rsp, 608
ffffffff8000679b: 48 89 f2             	mov	rdx, rsi
ffffffff8000679e: 48 89 95 c0 fd ff ff 	mov	qword ptr [rbp - 576], rdx
ffffffff800067a5: 48 89 bd 78 fe ff ff 	mov	qword ptr [rbp - 392], rdi
ffffffff800067ac: 48 89 95 80 fe ff ff 	mov	qword ptr [rbp - 384], rdx
ffffffff800067b3: 48 89 7d f8          	mov	qword ptr [rbp - 8], rdi
ffffffff800067b7: be 09 00 00 00       	mov	esi, 9
ffffffff800067bc: e8 ff f9 ff ff       	call	0xffffffff800061c0 <_ZN4core5slice29_$LT$impl$u20$$u5b$T$u5d$$GT$17get_unchecked_mut17hb89451bbafd0acacE>
ffffffff800067c1: 48 89 85 c8 fd ff ff 	mov	qword ptr [rbp - 568], rax
ffffffff800067c8: 48 89 85 88 fe ff ff 	mov	qword ptr [rbp - 376], rax
ffffffff800067cf: 48 8b 10             	mov	rdx, qword ptr [rax]
ffffffff800067d2: b8 01 00 00 00       	mov	eax, 1
ffffffff800067d7: 31 c9                	xor	ecx, ecx
ffffffff800067d9: 48 83 fa 00          	cmp	rdx, 0
ffffffff800067dd: 48 0f 44 c1          	cmove	rax, rcx
ffffffff800067e1: 48 83 f8 01          	cmp	rax, 1
ffffffff800067e5: 75 2b                	jne	0xffffffff80006812 <_ZN3qos9allocator18Allocator$LT$_$GT$12freelist_get17h8668e8f9938d0907E+0x82>
ffffffff800067e7: 48 8b 8d c8 fd ff ff 	mov	rcx, qword ptr [rbp - 568]
ffffffff800067ee: 48 8b 01             	mov	rax, qword ptr [rcx]
ffffffff800067f1: 48 89 85 c0 fe ff ff 	mov	qword ptr [rbp - 320], rax
ffffffff800067f8: 48 89 45 a8          	mov	qword ptr [rbp - 88], rax
ffffffff800067fc: 48 8b 10             	mov	rdx, qword ptr [rax]
ffffffff800067ff: 48 89 11             	mov	qword ptr [rcx], rdx
ffffffff80006802: 48 89 45 a0          	mov	qword ptr [rbp - 96], rax
ffffffff80006806: 48 89 85 d0 fd ff ff 	mov	qword ptr [rbp - 560], rax
ffffffff8000680d: e9 98 01 00 00       	jmp	0xffffffff800069aa <_ZN3qos9allocator18Allocator$LT$_$GT$12freelist_get17h8668e8f9938d0907E+0x21a>
ffffffff80006812: 48 8b 85 c0 fd ff ff 	mov	rax, qword ptr [rbp - 576]
ffffffff80006819: 48 83 f8 08          	cmp	rax, 8
ffffffff8000681d: 74 29                	je	0xffffffff80006848 <_ZN3qos9allocator18Allocator$LT$_$GT$12freelist_get17h8668e8f9938d0907E+0xb8>
ffffffff8000681f: 48 8b bd c0 fd ff ff 	mov	rdi, qword ptr [rbp - 576]
ffffffff80006826: e8 55 45 00 00       	call	0xffffffff8000ad80 <_ZN3qos9allocator13index_to_size17h36571622c154ff3bE>
ffffffff8000682b: 48 89 85 b8 fd ff ff 	mov	qword ptr [rbp - 584], rax
ffffffff80006832: 48 89 85 98 fe ff ff 	mov	qword ptr [rbp - 360], rax
ffffffff80006839: b0 01                	mov	al, 1
ffffffff8000683b: a8 01                	test	al, 1
ffffffff8000683d: 0f 85 b8 01 00 00    	jne	0xffffffff800069fb <_ZN3qos9allocator18Allocator$LT$_$GT$12freelist_get17h8668e8f9938d0907E+0x26b>
ffffffff80006843: e9 72 01 00 00       	jmp	0xffffffff800069ba <_ZN3qos9allocator18Allocator$LT$_$GT$12freelist_get17h8668e8f9938d0907E+0x22a>
ffffffff80006848: b0 01                	mov	al, 1
ffffffff8000684a: a8 01                	test	al, 1
ffffffff8000684c: 75 43                	jne	0xffffffff80006891 <_ZN3qos9allocator18Allocator$LT$_$GT$12freelist_get17h8668e8f9938d0907E+0x101>
ffffffff8000684e: eb 00                	jmp	0xffffffff80006850 <_ZN3qos9allocator18Allocator$LT$_$GT$12freelist_get17h8668e8f9938d0907E+0xc0>
ffffffff80006850: 48 8d 3d 01 dc 00 00 	lea	rdi, [rip + 56321]      # 0xffffffff80014458 <_ZN3qos9allocator14PAGE_ALLOCATOR17ha1d94bef89ffa1b9E>
ffffffff80006857: e8 f4 3f 00 00       	call	0xffffffff8000a850 <_ZN3qos4sync14Mutex$LT$T$GT$4lock17h3cb0bcdec5922119E>
ffffffff8000685c: 48 89 85 e8 fd ff ff 	mov	qword ptr [rbp - 536], rax
ffffffff80006863: 48 8d bd e8 fd ff ff 	lea	rdi, [rbp - 536]
ffffffff8000686a: e8 f1 3e 00 00       	call	0xffffffff8000a760 <_ZN77_$LT$qos..sync..MutexGuard$LT$T$GT$$u20$as$u20$core..ops..deref..DerefMut$GT$9deref_mut17h2515cfba8d16f301E>
ffffffff8000686f: 48 89 c7             	mov	rdi, rax
ffffffff80006872: be 01 00 00 00       	mov	esi, 1
ffffffff80006877: e8 24 5d 00 00       	call	0xffffffff8000c5a0 <_ZN3qos9allocator14page_allocator13PageAllocator11alloc_pages17h08e225ec3e39b698E>
ffffffff8000687c: 48 89 85 d8 fd ff ff 	mov	qword ptr [rbp - 552], rax
ffffffff80006883: 48 8d bd e8 fd ff ff 	lea	rdi, [rbp - 536]
ffffffff8000688a: e8 11 5f 00 00       	call	0xffffffff8000c7a0 <_ZN4core3ptr95drop_in_place$LT$qos..sync..MutexGuard$LT$qos..allocator..page_allocator..PageAllocator$GT$$GT$17h528ae5d18d2696deE>
ffffffff8000688f: eb 3f                	jmp	0xffffffff800068d0 <_ZN3qos9allocator18Allocator$LT$_$GT$12freelist_get17h8668e8f9938d0907E+0x140>
ffffffff80006891: 48 8d 3d c0 db 00 00 	lea	rdi, [rip + 56256]      # 0xffffffff80014458 <_ZN3qos9allocator14PAGE_ALLOCATOR17ha1d94bef89ffa1b9E>
ffffffff80006898: e8 b3 3f 00 00       	call	0xffffffff8000a850 <_ZN3qos4sync14Mutex$LT$T$GT$4lock17h3cb0bcdec5922119E>
ffffffff8000689d: 48 89 85 e0 fd ff ff 	mov	qword ptr [rbp - 544], rax
ffffffff800068a4: 48 8d bd e0 fd ff ff 	lea	rdi, [rbp - 544]
ffffffff800068ab: e8 b0 3e 00 00       	call	0xffffffff8000a760 <_ZN77_$LT$qos..sync..MutexGuard$LT$T$GT$$u20$as$u20$core..ops..deref..DerefMut$GT$9deref_mut17h2515cfba8d16f301E>
ffffffff800068b0: 48 89 c7             	mov	rdi, rax
ffffffff800068b3: be 01 00 00 00       	mov	esi, 1
ffffffff800068b8: e8 03 5d 00 00       	call	0xffffffff8000c5c0 <_ZN3qos9allocator14page_allocator13PageAllocator15alloc_pages_low17h1124476fbec6b6c8E>
ffffffff800068bd: 48 89 85 d8 fd ff ff 	mov	qword ptr [rbp - 552], rax
ffffffff800068c4: 48 8d bd e0 fd ff ff 	lea	rdi, [rbp - 544]
ffffffff800068cb: e8 d0 5e 00 00       	call	0xffffffff8000c7a0 <_ZN4core3ptr95drop_in_place$LT$qos..sync..MutexGuard$LT$qos..allocator..page_allocator..PageAllocator$GT$$GT$17h528ae5d18d2696deE>
ffffffff800068d0: 48 8b bd d8 fd ff ff 	mov	rdi, qword ptr [rbp - 552]
ffffffff800068d7: e8 64 2f 00 00       	call	0xffffffff80009840 <_ZN4core3ptr7mut_ptr31_$LT$impl$u20$$BP$mut$u20$T$GT$7is_null17ha79a1cd5f5a43489E>
ffffffff800068dc: a8 01                	test	al, 1
ffffffff800068de: 0f 85 9f 00 00 00    	jne	0xffffffff80006983 <_ZN3qos9allocator18Allocator$LT$_$GT$12freelist_get17h8668e8f9938d0907E+0x1f3>
ffffffff800068e4: 48 8b 85 d8 fd ff ff 	mov	rax, qword ptr [rbp - 552]
ffffffff800068eb: 48 89 85 18 ff ff ff 	mov	qword ptr [rbp - 232], rax
ffffffff800068f2: 48 c7 85 20 ff ff ff 00 08 00 00     	mov	qword ptr [rbp - 224], 2048
ffffffff800068fd: 48 89 85 28 ff ff ff 	mov	qword ptr [rbp - 216], rax
ffffffff80006904: 48 c7 85 30 ff ff ff 00 08 00 00     	mov	qword ptr [rbp - 208], 2048
ffffffff8000690f: 48 05 00 08 00 00    	add	rax, 2048
ffffffff80006915: 48 89 85 38 ff ff ff 	mov	qword ptr [rbp - 200], rax
ffffffff8000691c: 48 8b bd 38 ff ff ff 	mov	rdi, qword ptr [rbp - 200]
ffffffff80006923: 48 89 bd 90 fe ff ff 	mov	qword ptr [rbp - 368], rdi
ffffffff8000692a: 48 c7 85 f0 fd ff ff 00 00 00 00     	mov	qword ptr [rbp - 528], 0
ffffffff80006935: 48 8b 85 f0 fd ff ff 	mov	rax, qword ptr [rbp - 528]
ffffffff8000693c: 48 89 7d 88          	mov	qword ptr [rbp - 120], rdi
ffffffff80006940: 48 89 45 90          	mov	qword ptr [rbp - 112], rax
ffffffff80006944: 48 89 7d 98          	mov	qword ptr [rbp - 104], rdi
ffffffff80006948: 48 89 45 80          	mov	qword ptr [rbp - 128], rax
ffffffff8000694c: 48 8b 45 80          	mov	rax, qword ptr [rbp - 128]
ffffffff80006950: 48 89 07             	mov	qword ptr [rdi], rax
ffffffff80006953: e8 58 39 00 00       	call	0xffffffff8000a2b0 <_ZN4core3ptr8non_null16NonNull$LT$T$GT$13new_unchecked17h999a94f5ac5b0a5bE>
ffffffff80006958: 48 89 c1             	mov	rcx, rax
ffffffff8000695b: 48 8b 85 c8 fd ff ff 	mov	rax, qword ptr [rbp - 568]
ffffffff80006962: 48 89 8d f8 fd ff ff 	mov	qword ptr [rbp - 520], rcx
ffffffff80006969: 48 8b 8d f8 fd ff ff 	mov	rcx, qword ptr [rbp - 520]
ffffffff80006970: 48 89 08             	mov	qword ptr [rax], rcx
ffffffff80006973: 48 8b 85 d8 fd ff ff 	mov	rax, qword ptr [rbp - 552]
ffffffff8000697a: 48 89 85 d0 fd ff ff 	mov	qword ptr [rbp - 560], rax
ffffffff80006981: eb 27                	jmp	0xffffffff800069aa <_ZN3qos9allocator18Allocator$LT$_$GT$12freelist_get17h8668e8f9938d0907E+0x21a>
ffffffff80006983: 48 c7 45 e8 00 00 00 00      	mov	qword ptr [rbp - 24], 0
ffffffff8000698b: 48 8b 45 e8          	mov	rax, qword ptr [rbp - 24]
ffffffff8000698f: 48 89 45 f0          	mov	qword ptr [rbp - 16], rax
ffffffff80006993: 48 89 45 e0          	mov	qword ptr [rbp - 32], rax
ffffffff80006997: 48 8b 45 e0          	mov	rax, qword ptr [rbp - 32]
ffffffff8000699b: 48 89 45 d8          	mov	qword ptr [rbp - 40], rax
ffffffff8000699f: 48 8b 45 d8          	mov	rax, qword ptr [rbp - 40]
ffffffff800069a3: 48 89 85 d0 fd ff ff 	mov	qword ptr [rbp - 560], rax
ffffffff800069aa: 48 8b 85 d0 fd ff ff 	mov	rax, qword ptr [rbp - 560]
ffffffff800069b1: 48 81 c4 60 02 00 00 	add	rsp, 608
ffffffff800069b8: 5d                   	pop	rbp
ffffffff800069b9: c3                   	ret
ffffffff800069ba: 48 8d 3d 97 da 00 00 	lea	rdi, [rip + 55959]      # 0xffffffff80014458 <_ZN3qos9allocator14PAGE_ALLOCATOR17ha1d94bef89ffa1b9E>
ffffffff800069c1: e8 8a 3e 00 00       	call	0xffffffff8000a850 <_ZN3qos4sync14Mutex$LT$T$GT$4lock17h3cb0bcdec5922119E>
ffffffff800069c6: 48 89 85 10 fe ff ff 	mov	qword ptr [rbp - 496], rax
ffffffff800069cd: 48 8d bd 10 fe ff ff 	lea	rdi, [rbp - 496]
ffffffff800069d4: e8 87 3d 00 00       	call	0xffffffff8000a760 <_ZN77_$LT$qos..sync..MutexGuard$LT$T$GT$$u20$as$u20$core..ops..deref..DerefMut$GT$9deref_mut17h2515cfba8d16f301E>
ffffffff800069d9: 48 89 c7             	mov	rdi, rax
ffffffff800069dc: be 01 00 00 00       	mov	esi, 1
ffffffff800069e1: e8 ba 5b 00 00       	call	0xffffffff8000c5a0 <_ZN3qos9allocator14page_allocator13PageAllocator11alloc_pages17h08e225ec3e39b698E>
ffffffff800069e6: 48 89 85 00 fe ff ff 	mov	qword ptr [rbp - 512], rax
ffffffff800069ed: 48 8d bd 10 fe ff ff 	lea	rdi, [rbp - 496]
ffffffff800069f4: e8 a7 5d 00 00       	call	0xffffffff8000c7a0 <_ZN4core3ptr95drop_in_place$LT$qos..sync..MutexGuard$LT$qos..allocator..page_allocator..PageAllocator$GT$$GT$17h528ae5d18d2696deE>
ffffffff800069f9: eb 3f                	jmp	0xffffffff80006a3a <_ZN3qos9allocator18Allocator$LT$_$GT$12freelist_get17h8668e8f9938d0907E+0x2aa>
ffffffff800069fb: 48 8d 3d 56 da 00 00 	lea	rdi, [rip + 55894]      # 0xffffffff80014458 <_ZN3qos9allocator14PAGE_ALLOCATOR17ha1d94bef89ffa1b9E>
ffffffff80006a02: e8 49 3e 00 00       	call	0xffffffff8000a850 <_ZN3qos4sync14Mutex$LT$T$GT$4lock17h3cb0bcdec5922119E>
ffffffff80006a07: 48 89 85 08 fe ff ff 	mov	qword ptr [rbp - 504], rax
ffffffff80006a0e: 48 8d bd 08 fe ff ff 	lea	rdi, [rbp - 504]
ffffffff80006a15: e8 46 3d 00 00       	call	0xffffffff8000a760 <_ZN77_$LT$qos..sync..MutexGuard$LT$T$GT$$u20$as$u20$core..ops..deref..DerefMut$GT$9deref_mut17h2515cfba8d16f301E>
ffffffff80006a1a: 48 89 c7             	mov	rdi, rax
ffffffff80006a1d: be 01 00 00 00       	mov	esi, 1
ffffffff80006a22: e8 99 5b 00 00       	call	0xffffffff8000c5c0 <_ZN3qos9allocator14page_allocator13PageAllocator15alloc_pages_low17h1124476fbec6b6c8E>
ffffffff80006a27: 48 89 85 00 fe ff ff 	mov	qword ptr [rbp - 512], rax
ffffffff80006a2e: 48 8d bd 08 fe ff ff 	lea	rdi, [rbp - 504]
ffffffff80006a35: e8 66 5d 00 00       	call	0xffffffff8000c7a0 <_ZN4core3ptr95drop_in_place$LT$qos..sync..MutexGuard$LT$qos..allocator..page_allocator..PageAllocator$GT$$GT$17h528ae5d18d2696deE>
ffffffff80006a3a: 48 8b bd 00 fe ff ff 	mov	rdi, qword ptr [rbp - 512]
ffffffff80006a41: e8 fa 2d 00 00       	call	0xffffffff80009840 <_ZN4core3ptr7mut_ptr31_$LT$impl$u20$$BP$mut$u20$T$GT$7is_null17ha79a1cd5f5a43489E>
ffffffff80006a46: a8 01                	test	al, 1
ffffffff80006a48: 0f 85 bc 00 00 00    	jne	0xffffffff80006b0a <_ZN3qos9allocator18Allocator$LT$_$GT$12freelist_get17h8668e8f9938d0907E+0x37a>
ffffffff80006a4e: 48 8b 8d b8 fd ff ff 	mov	rcx, qword ptr [rbp - 584]
ffffffff80006a55: 48 8b 85 00 fe ff ff 	mov	rax, qword ptr [rbp - 512]
ffffffff80006a5c: 48 89 85 f0 fe ff ff 	mov	qword ptr [rbp - 272], rax
ffffffff80006a63: 48 89 8d f8 fe ff ff 	mov	qword ptr [rbp - 264], rcx
ffffffff80006a6a: 48 89 85 00 ff ff ff 	mov	qword ptr [rbp - 256], rax
ffffffff80006a71: 48 89 8d 08 ff ff ff 	mov	qword ptr [rbp - 248], rcx
ffffffff80006a78: 48 01 c8             	add	rax, rcx
ffffffff80006a7b: 48 89 85 10 ff ff ff 	mov	qword ptr [rbp - 240], rax
ffffffff80006a82: 48 8b 85 10 ff ff ff 	mov	rax, qword ptr [rbp - 240]
ffffffff80006a89: 48 89 85 18 fe ff ff 	mov	qword ptr [rbp - 488], rax
ffffffff80006a90: 48 8b bd 18 fe ff ff 	mov	rdi, qword ptr [rbp - 488]
ffffffff80006a97: 48 89 bd a0 fe ff ff 	mov	qword ptr [rbp - 352], rdi
ffffffff80006a9e: 48 c7 85 20 fe ff ff 00 00 00 00     	mov	qword ptr [rbp - 480], 0
ffffffff80006aa9: 48 8b 85 20 fe ff ff 	mov	rax, qword ptr [rbp - 480]
ffffffff80006ab0: 48 89 bd 68 ff ff ff 	mov	qword ptr [rbp - 152], rdi
ffffffff80006ab7: 48 89 85 70 ff ff ff 	mov	qword ptr [rbp - 144], rax
ffffffff80006abe: 48 89 bd 78 ff ff ff 	mov	qword ptr [rbp - 136], rdi
ffffffff80006ac5: 48 89 85 60 ff ff ff 	mov	qword ptr [rbp - 160], rax
ffffffff80006acc: 48 8b 85 60 ff ff ff 	mov	rax, qword ptr [rbp - 160]
ffffffff80006ad3: 48 89 07             	mov	qword ptr [rdi], rax
ffffffff80006ad6: e8 d5 37 00 00       	call	0xffffffff8000a2b0 <_ZN4core3ptr8non_null16NonNull$LT$T$GT$13new_unchecked17h999a94f5ac5b0a5bE>
ffffffff80006adb: 48 8b 8d c8 fd ff ff 	mov	rcx, qword ptr [rbp - 568]
ffffffff80006ae2: 48 89 c2             	mov	rdx, rax
ffffffff80006ae5: 48 8b 85 b8 fd ff ff 	mov	rax, qword ptr [rbp - 584]
ffffffff80006aec: 48 89 95 28 fe ff ff 	mov	qword ptr [rbp - 472], rdx
ffffffff80006af3: 48 8b 95 28 fe ff ff 	mov	rdx, qword ptr [rbp - 472]
ffffffff80006afa: 48 89 11             	mov	qword ptr [rcx], rdx
ffffffff80006afd: 48 83 f8 00          	cmp	rax, 0
ffffffff80006b01: 0f 94 c0             	sete	al
ffffffff80006b04: a8 01                	test	al, 1
ffffffff80006b06: 75 5e                	jne	0xffffffff80006b66 <_ZN3qos9allocator18Allocator$LT$_$GT$12freelist_get17h8668e8f9938d0907E+0x3d6>
ffffffff80006b08: eb 2c                	jmp	0xffffffff80006b36 <_ZN3qos9allocator18Allocator$LT$_$GT$12freelist_get17h8668e8f9938d0907E+0x3a6>
ffffffff80006b0a: 48 c7 45 c8 00 00 00 00      	mov	qword ptr [rbp - 56], 0
ffffffff80006b12: 48 8b 45 c8          	mov	rax, qword ptr [rbp - 56]
ffffffff80006b16: 48 89 45 d0          	mov	qword ptr [rbp - 48], rax
ffffffff80006b1a: 48 89 45 c0          	mov	qword ptr [rbp - 64], rax
ffffffff80006b1e: 48 8b 45 c0          	mov	rax, qword ptr [rbp - 64]
ffffffff80006b22: 48 89 45 b8          	mov	qword ptr [rbp - 72], rax
ffffffff80006b26: 48 8b 45 b8          	mov	rax, qword ptr [rbp - 72]
ffffffff80006b2a: 48 89 85 d0 fd ff ff 	mov	qword ptr [rbp - 560], rax
ffffffff80006b31: e9 74 fe ff ff       	jmp	0xffffffff800069aa <_ZN3qos9allocator18Allocator$LT$_$GT$12freelist_get17h8668e8f9938d0907E+0x21a>
ffffffff80006b36: 48 8b 8d b8 fd ff ff 	mov	rcx, qword ptr [rbp - 584]
ffffffff80006b3d: b8 00 10 00 00       	mov	eax, 4096
ffffffff80006b42: 31 d2                	xor	edx, edx
ffffffff80006b44: 48 f7 f1             	div	rcx
ffffffff80006b47: 48 89 c1             	mov	rcx, rax
ffffffff80006b4a: 48 83 e9 02          	sub	rcx, 2
ffffffff80006b4e: 48 89 8d b0 fd ff ff 	mov	qword ptr [rbp - 592], rcx
ffffffff80006b55: 48 83 f8 02          	cmp	rax, 2
ffffffff80006b59: 0f 92 c0             	setb	al
ffffffff80006b5c: a8 01                	test	al, 1
ffffffff80006b5e: 0f 85 8a 00 00 00    	jne	0xffffffff80006bee <_ZN3qos9allocator18Allocator$LT$_$GT$12freelist_get17h8668e8f9938d0907E+0x45e>
ffffffff80006b64: eb 1e                	jmp	0xffffffff80006b84 <_ZN3qos9allocator18Allocator$LT$_$GT$12freelist_get17h8668e8f9938d0907E+0x3f4>
ffffffff80006b66: 48 8d 3d f3 b0 ff ff 	lea	rdi, [rip - 20237]      # 0xffffffff80001c60 <str.1>
ffffffff80006b6d: 48 8d 15 cc aa 00 00 	lea	rdx, [rip + 43724]      # 0xffffffff80011640 <xr6aouzjkjmurg0+0xffffffff80011640>
ffffffff80006b74: 48 8b 05 65 b5 00 00 	mov	rax, qword ptr [rip + 46437] # 0xffffffff800120e0 <xr6aouzjkjmurg0+0xffffffff800120e0>
ffffffff80006b7b: be 19 00 00 00       	mov	esi, 25
ffffffff80006b80: ff d0                	call	rax
ffffffff80006b82: 0f 0b                	ud2
ffffffff80006b84: 48 8b 8d b0 fd ff ff 	mov	rcx, qword ptr [rbp - 592]
ffffffff80006b8b: 48 8b 85 c8 fd ff ff 	mov	rax, qword ptr [rbp - 568]
ffffffff80006b92: 48 89 8d a8 fe ff ff 	mov	qword ptr [rbp - 344], rcx
ffffffff80006b99: 48 8b 38             	mov	rdi, qword ptr [rax]
ffffffff80006b9c: 48 8d 35 b5 aa 00 00 	lea	rsi, [rip + 43701]      # 0xffffffff80011658 <xr6aouzjkjmurg0+0xffffffff80011658>
ffffffff80006ba3: e8 88 31 00 00       	call	0xffffffff80009d30 <_ZN4core6option15Option$LT$T$GT$16unwrap_unchecked17h579d50e7d7102741E>
ffffffff80006ba8: 48 89 c1             	mov	rcx, rax
ffffffff80006bab: 48 8b 85 b0 fd ff ff 	mov	rax, qword ptr [rbp - 592]
ffffffff80006bb2: 48 89 8d 30 fe ff ff 	mov	qword ptr [rbp - 464], rcx
ffffffff80006bb9: 48 c7 85 38 fe ff ff 00 00 00 00     	mov	qword ptr [rbp - 456], 0
ffffffff80006bc4: 48 89 85 40 fe ff ff 	mov	qword ptr [rbp - 448], rax
ffffffff80006bcb: 48 8b bd 38 fe ff ff 	mov	rdi, qword ptr [rbp - 456]
ffffffff80006bd2: 48 8b b5 40 fe ff ff 	mov	rsi, qword ptr [rbp - 448]
ffffffff80006bd9: e8 a2 39 00 00       	call	0xffffffff8000a580 <_ZN63_$LT$I$u20$as$u20$core..iter..traits..collect..IntoIterator$GT$9into_iter17h1a92386f5c2a06d2E>
ffffffff80006bde: 48 89 85 48 fe ff ff 	mov	qword ptr [rbp - 440], rax
ffffffff80006be5: 48 89 95 50 fe ff ff 	mov	qword ptr [rbp - 432], rdx
ffffffff80006bec: eb 1e                	jmp	0xffffffff80006c0c <_ZN3qos9allocator18Allocator$LT$_$GT$12freelist_get17h8668e8f9938d0907E+0x47c>
ffffffff80006bee: 48 8d 3d 8b b0 ff ff 	lea	rdi, [rip - 20341]      # 0xffffffff80001c80 <str.2>
ffffffff80006bf5: 48 8d 15 44 aa 00 00 	lea	rdx, [rip + 43588]      # 0xffffffff80011640 <xr6aouzjkjmurg0+0xffffffff80011640>
ffffffff80006bfc: 48 8b 05 dd b4 00 00 	mov	rax, qword ptr [rip + 46301] # 0xffffffff800120e0 <xr6aouzjkjmurg0+0xffffffff800120e0>
ffffffff80006c03: be 21 00 00 00       	mov	esi, 33
ffffffff80006c08: ff d0                	call	rax
ffffffff80006c0a: 0f 0b                	ud2
ffffffff80006c0c: 48 8d bd 48 fe ff ff 	lea	rdi, [rbp - 440]
ffffffff80006c13: e8 48 39 00 00       	call	0xffffffff8000a560 <_ZN4core4iter5range101_$LT$impl$u20$core..iter..traits..iterator..Iterator$u20$for$u20$core..ops..range..Range$LT$A$GT$$GT$4next17ha48bff387f27bd7eE>
ffffffff80006c18: 48 89 95 60 fe ff ff 	mov	qword ptr [rbp - 416], rdx
ffffffff80006c1f: 48 89 85 58 fe ff ff 	mov	qword ptr [rbp - 424], rax
ffffffff80006c26: 48 83 bd 58 fe ff ff 00      	cmp	qword ptr [rbp - 424], 0
ffffffff80006c2e: 75 13                	jne	0xffffffff80006c43 <_ZN3qos9allocator18Allocator$LT$_$GT$12freelist_get17h8668e8f9938d0907E+0x4b3>
ffffffff80006c30: 48 8b 85 00 fe ff ff 	mov	rax, qword ptr [rbp - 512]
ffffffff80006c37: 48 89 85 d0 fd ff ff 	mov	qword ptr [rbp - 560], rax
ffffffff80006c3e: e9 67 fd ff ff       	jmp	0xffffffff800069aa <_ZN3qos9allocator18Allocator$LT$_$GT$12freelist_get17h8668e8f9938d0907E+0x21a>
ffffffff80006c43: 48 8b 85 30 fe ff ff 	mov	rax, qword ptr [rbp - 464]
ffffffff80006c4a: 48 89 85 a8 fd ff ff 	mov	qword ptr [rbp - 600], rax
ffffffff80006c51: 48 89 45 b0          	mov	qword ptr [rbp - 80], rax
ffffffff80006c55: 48 89 85 b0 fe ff ff 	mov	qword ptr [rbp - 336], rax
ffffffff80006c5c: 48 8b bd 18 fe ff ff 	mov	rdi, qword ptr [rbp - 488]
ffffffff80006c63: 48 89 bd a0 fd ff ff 	mov	qword ptr [rbp - 608], rdi
ffffffff80006c6a: 48 89 bd b8 fe ff ff 	mov	qword ptr [rbp - 328], rdi
ffffffff80006c71: 48 c7 85 68 fe ff ff 00 00 00 00     	mov	qword ptr [rbp - 408], 0
ffffffff80006c7c: 48 8b 85 68 fe ff ff 	mov	rax, qword ptr [rbp - 408]
ffffffff80006c83: 48 89 bd 48 ff ff ff 	mov	qword ptr [rbp - 184], rdi
ffffffff80006c8a: 48 89 85 50 ff ff ff 	mov	qword ptr [rbp - 176], rax
ffffffff80006c91: 48 89 bd 58 ff ff ff 	mov	qword ptr [rbp - 168], rdi
ffffffff80006c98: 48 89 85 40 ff ff ff 	mov	qword ptr [rbp - 192], rax
ffffffff80006c9f: 48 8b 85 40 ff ff ff 	mov	rax, qword ptr [rbp - 192]
ffffffff80006ca6: 48 89 07             	mov	qword ptr [rdi], rax
ffffffff80006ca9: e8 02 36 00 00       	call	0xffffffff8000a2b0 <_ZN4core3ptr8non_null16NonNull$LT$T$GT$13new_unchecked17h999a94f5ac5b0a5bE>
ffffffff80006cae: 48 8b 8d b8 fd ff ff 	mov	rcx, qword ptr [rbp - 584]
ffffffff80006cb5: 48 8b bd a0 fd ff ff 	mov	rdi, qword ptr [rbp - 608]
ffffffff80006cbc: 48 89 c2             	mov	rdx, rax
ffffffff80006cbf: 48 8b 85 a8 fd ff ff 	mov	rax, qword ptr [rbp - 600]
ffffffff80006cc6: 48 89 95 70 fe ff ff 	mov	qword ptr [rbp - 400], rdx
ffffffff80006ccd: 48 8b 95 70 fe ff ff 	mov	rdx, qword ptr [rbp - 400]
ffffffff80006cd4: 48 89 10             	mov	qword ptr [rax], rdx
ffffffff80006cd7: 48 8b 85 18 fe ff ff 	mov	rax, qword ptr [rbp - 488]
ffffffff80006cde: 48 89 85 c8 fe ff ff 	mov	qword ptr [rbp - 312], rax
ffffffff80006ce5: 48 89 8d d0 fe ff ff 	mov	qword ptr [rbp - 304], rcx
ffffffff80006cec: 48 89 85 d8 fe ff ff 	mov	qword ptr [rbp - 296], rax
ffffffff80006cf3: 48 89 8d e0 fe ff ff 	mov	qword ptr [rbp - 288], rcx
ffffffff80006cfa: 48 01 c8             	add	rax, rcx
ffffffff80006cfd: 48 89 85 e8 fe ff ff 	mov	qword ptr [rbp - 280], rax
ffffffff80006d04: 48 8b 85 e8 fe ff ff 	mov	rax, qword ptr [rbp - 280]
ffffffff80006d0b: 48 89 85 18 fe ff ff 	mov	qword ptr [rbp - 488], rax
ffffffff80006d12: e8 99 35 00 00       	call	0xffffffff8000a2b0 <_ZN4core3ptr8non_null16NonNull$LT$T$GT$13new_unchecked17h999a94f5ac5b0a5bE>
ffffffff80006d17: 48 89 85 30 fe ff ff 	mov	qword ptr [rbp - 464], rax
ffffffff80006d1e: e9 e9 fe ff ff       	jmp	0xffffffff80006c0c <_ZN3qos9allocator18Allocator$LT$_$GT$12freelist_get17h8668e8f9938d0907E+0x47c>
ffffffff80006d23: cc                   	int3
ffffffff80006d24: cc                   	int3
ffffffff80006d25: cc                   	int3
ffffffff80006d26: cc                   	int3
ffffffff80006d27: cc                   	int3
ffffffff80006d28: cc                   	int3
ffffffff80006d29: cc                   	int3
ffffffff80006d2a: cc                   	int3
ffffffff80006d2b: cc                   	int3
ffffffff80006d2c: cc                   	int3
ffffffff80006d2d: cc                   	int3
ffffffff80006d2e: cc                   	int3
ffffffff80006d2f: cc                   	int3

ffffffff80006d30 <_ZN3qos9allocator18Allocator$LT$_$GT$10alloc_size17h21737e7243096fb1E>:
ffffffff80006d30: 55                   	push	rbp
ffffffff80006d31: 48 89 e5             	mov	rbp, rsp
ffffffff80006d34: 48 81 ec 80 00 00 00 	sub	rsp, 128
ffffffff80006d3b: 48 89 75 a0          	mov	qword ptr [rbp - 96], rsi
ffffffff80006d3f: 48 89 7d a8          	mov	qword ptr [rbp - 88], rdi
ffffffff80006d43: 48 89 7d c8          	mov	qword ptr [rbp - 56], rdi
ffffffff80006d47: 48 89 75 d0          	mov	qword ptr [rbp - 48], rsi
ffffffff80006d4b: 48 83 fe 00          	cmp	rsi, 0
ffffffff80006d4f: 75 29                	jne	0xffffffff80006d7a <_ZN3qos9allocator18Allocator$LT$_$GT$10alloc_size17h21737e7243096fb1E+0x4a>
ffffffff80006d51: 48 c7 45 f0 00 00 00 00      	mov	qword ptr [rbp - 16], 0
ffffffff80006d59: 48 8b 45 f0          	mov	rax, qword ptr [rbp - 16]
ffffffff80006d5d: 48 89 45 f8          	mov	qword ptr [rbp - 8], rax
ffffffff80006d61: 48 89 45 e8          	mov	qword ptr [rbp - 24], rax
ffffffff80006d65: 48 8b 45 e8          	mov	rax, qword ptr [rbp - 24]
ffffffff80006d69: 48 89 45 e0          	mov	qword ptr [rbp - 32], rax
ffffffff80006d6d: 48 8b 45 e0          	mov	rax, qword ptr [rbp - 32]
ffffffff80006d71: 48 89 45 b0          	mov	qword ptr [rbp - 80], rax
ffffffff80006d75: e9 15 01 00 00       	jmp	0xffffffff80006e8f <_ZN3qos9allocator18Allocator$LT$_$GT$10alloc_size17h21737e7243096fb1E+0x15f>
ffffffff80006d7a: 48 8b 45 a0          	mov	rax, qword ptr [rbp - 96]
ffffffff80006d7e: 48 3d 00 10 00 00    	cmp	rax, 4096
ffffffff80006d84: 73 1e                	jae	0xffffffff80006da4 <_ZN3qos9allocator18Allocator$LT$_$GT$10alloc_size17h21737e7243096fb1E+0x74>
ffffffff80006d86: 48 8b 7d a0          	mov	rdi, qword ptr [rbp - 96]
ffffffff80006d8a: e8 b1 3f 00 00       	call	0xffffffff8000ad40 <_ZN3qos9allocator13size_to_index17h10ab9890508c6c62E>
ffffffff80006d8f: 48 8b 7d a8          	mov	rdi, qword ptr [rbp - 88]
ffffffff80006d93: 48 89 c6             	mov	rsi, rax
ffffffff80006d96: e8 55 f4 ff ff       	call	0xffffffff800061f0 <_ZN3qos9allocator18Allocator$LT$_$GT$12freelist_get17h1813a5486a53d7e1E>
ffffffff80006d9b: 48 89 45 b0          	mov	qword ptr [rbp - 80], rax
ffffffff80006d9f: e9 eb 00 00 00       	jmp	0xffffffff80006e8f <_ZN3qos9allocator18Allocator$LT$_$GT$10alloc_size17h21737e7243096fb1E+0x15f>
ffffffff80006da4: 48 8b 45 a0          	mov	rax, qword ptr [rbp - 96]
ffffffff80006da8: 48 05 00 10 00 00    	add	rax, 4096
ffffffff80006dae: 48 89 45 98          	mov	qword ptr [rbp - 104], rax
ffffffff80006db2: 0f 92 c0             	setb	al
ffffffff80006db5: a8 01                	test	al, 1
ffffffff80006db7: 75 1c                	jne	0xffffffff80006dd5 <_ZN3qos9allocator18Allocator$LT$_$GT$10alloc_size17h21737e7243096fb1E+0xa5>
ffffffff80006db9: 48 8b 45 98          	mov	rax, qword ptr [rbp - 104]
ffffffff80006dbd: 48 89 c1             	mov	rcx, rax
ffffffff80006dc0: 48 83 e9 01          	sub	rcx, 1
ffffffff80006dc4: 48 89 4d 90          	mov	qword ptr [rbp - 112], rcx
ffffffff80006dc8: 48 83 f8 01          	cmp	rax, 1
ffffffff80006dcc: 0f 92 c0             	setb	al
ffffffff80006dcf: a8 01                	test	al, 1
ffffffff80006dd1: 75 38                	jne	0xffffffff80006e0b <_ZN3qos9allocator18Allocator$LT$_$GT$10alloc_size17h21737e7243096fb1E+0xdb>
ffffffff80006dd3: eb 1e                	jmp	0xffffffff80006df3 <_ZN3qos9allocator18Allocator$LT$_$GT$10alloc_size17h21737e7243096fb1E+0xc3>
ffffffff80006dd5: 48 8d 3d 64 ae ff ff 	lea	rdi, [rip - 20892]      # 0xffffffff80001c40 <str.0>
ffffffff80006ddc: 48 8d 15 8d a8 00 00 	lea	rdx, [rip + 43149]      # 0xffffffff80011670 <xr6aouzjkjmurg0+0xffffffff80011670>
ffffffff80006de3: 48 8b 05 f6 b2 00 00 	mov	rax, qword ptr [rip + 45814] # 0xffffffff800120e0 <xr6aouzjkjmurg0+0xffffffff800120e0>
ffffffff80006dea: be 1c 00 00 00       	mov	esi, 28
ffffffff80006def: ff d0                	call	rax
ffffffff80006df1: 0f 0b                	ud2
ffffffff80006df3: 48 8b 45 90          	mov	rax, qword ptr [rbp - 112]
ffffffff80006df7: 48 c1 e8 0c          	shr	rax, 12
ffffffff80006dfb: 48 89 45 88          	mov	qword ptr [rbp - 120], rax
ffffffff80006dff: 48 89 45 d8          	mov	qword ptr [rbp - 40], rax
ffffffff80006e03: 31 c0                	xor	eax, eax
ffffffff80006e05: a8 01                	test	al, 1
ffffffff80006e07: 75 54                	jne	0xffffffff80006e5d <_ZN3qos9allocator18Allocator$LT$_$GT$10alloc_size17h21737e7243096fb1E+0x12d>
ffffffff80006e09: eb 1e                	jmp	0xffffffff80006e29 <_ZN3qos9allocator18Allocator$LT$_$GT$10alloc_size17h21737e7243096fb1E+0xf9>
ffffffff80006e0b: 48 8d 3d 6e ae ff ff 	lea	rdi, [rip - 20882]      # 0xffffffff80001c80 <str.2>
ffffffff80006e12: 48 8d 15 6f a8 00 00 	lea	rdx, [rip + 43119]      # 0xffffffff80011688 <xr6aouzjkjmurg0+0xffffffff80011688>
ffffffff80006e19: 48 8b 05 c0 b2 00 00 	mov	rax, qword ptr [rip + 45760] # 0xffffffff800120e0 <xr6aouzjkjmurg0+0xffffffff800120e0>
ffffffff80006e20: be 21 00 00 00       	mov	esi, 33
ffffffff80006e25: ff d0                	call	rax
ffffffff80006e27: 0f 0b                	ud2
ffffffff80006e29: 48 8d 3d 28 d6 00 00 	lea	rdi, [rip + 54824]      # 0xffffffff80014458 <_ZN3qos9allocator14PAGE_ALLOCATOR17ha1d94bef89ffa1b9E>
ffffffff80006e30: e8 1b 3a 00 00       	call	0xffffffff8000a850 <_ZN3qos4sync14Mutex$LT$T$GT$4lock17h3cb0bcdec5922119E>
ffffffff80006e35: 48 89 45 c0          	mov	qword ptr [rbp - 64], rax
ffffffff80006e39: 48 8d 7d c0          	lea	rdi, [rbp - 64]
ffffffff80006e3d: e8 1e 39 00 00       	call	0xffffffff8000a760 <_ZN77_$LT$qos..sync..MutexGuard$LT$T$GT$$u20$as$u20$core..ops..deref..DerefMut$GT$9deref_mut17h2515cfba8d16f301E>
ffffffff80006e42: 48 8b 75 88          	mov	rsi, qword ptr [rbp - 120]
ffffffff80006e46: 48 89 c7             	mov	rdi, rax
ffffffff80006e49: e8 52 57 00 00       	call	0xffffffff8000c5a0 <_ZN3qos9allocator14page_allocator13PageAllocator11alloc_pages17h08e225ec3e39b698E>
ffffffff80006e4e: 48 89 45 b0          	mov	qword ptr [rbp - 80], rax
ffffffff80006e52: 48 8d 7d c0          	lea	rdi, [rbp - 64]
ffffffff80006e56: e8 45 59 00 00       	call	0xffffffff8000c7a0 <_ZN4core3ptr95drop_in_place$LT$qos..sync..MutexGuard$LT$qos..allocator..page_allocator..PageAllocator$GT$$GT$17h528ae5d18d2696deE>
ffffffff80006e5b: eb 32                	jmp	0xffffffff80006e8f <_ZN3qos9allocator18Allocator$LT$_$GT$10alloc_size17h21737e7243096fb1E+0x15f>
ffffffff80006e5d: 48 8d 3d f4 d5 00 00 	lea	rdi, [rip + 54772]      # 0xffffffff80014458 <_ZN3qos9allocator14PAGE_ALLOCATOR17ha1d94bef89ffa1b9E>
ffffffff80006e64: e8 e7 39 00 00       	call	0xffffffff8000a850 <_ZN3qos4sync14Mutex$LT$T$GT$4lock17h3cb0bcdec5922119E>
ffffffff80006e69: 48 89 45 b8          	mov	qword ptr [rbp - 72], rax
ffffffff80006e6d: 48 8d 7d b8          	lea	rdi, [rbp - 72]
ffffffff80006e71: e8 ea 38 00 00       	call	0xffffffff8000a760 <_ZN77_$LT$qos..sync..MutexGuard$LT$T$GT$$u20$as$u20$core..ops..deref..DerefMut$GT$9deref_mut17h2515cfba8d16f301E>
ffffffff80006e76: 48 8b 75 88          	mov	rsi, qword ptr [rbp - 120]
ffffffff80006e7a: 48 89 c7             	mov	rdi, rax
ffffffff80006e7d: e8 3e 57 00 00       	call	0xffffffff8000c5c0 <_ZN3qos9allocator14page_allocator13PageAllocator15alloc_pages_low17h1124476fbec6b6c8E>
ffffffff80006e82: 48 89 45 b0          	mov	qword ptr [rbp - 80], rax
ffffffff80006e86: 48 8d 7d b8          	lea	rdi, [rbp - 72]
ffffffff80006e8a: e8 11 59 00 00       	call	0xffffffff8000c7a0 <_ZN4core3ptr95drop_in_place$LT$qos..sync..MutexGuard$LT$qos..allocator..page_allocator..PageAllocator$GT$$GT$17h528ae5d18d2696deE>
ffffffff80006e8f: 48 8b 45 b0          	mov	rax, qword ptr [rbp - 80]
ffffffff80006e93: 48 81 c4 80 00 00 00 	add	rsp, 128
ffffffff80006e9a: 5d                   	pop	rbp
ffffffff80006e9b: c3                   	ret
ffffffff80006e9c: cc                   	int3
ffffffff80006e9d: cc                   	int3
ffffffff80006e9e: cc                   	int3
ffffffff80006e9f: cc                   	int3

ffffffff80006ea0 <_ZN3qos9allocator18Allocator$LT$_$GT$10alloc_size17hb3b8f7cfc8359e1aE>:
ffffffff80006ea0: 55                   	push	rbp
ffffffff80006ea1: 48 89 e5             	mov	rbp, rsp
ffffffff80006ea4: 48 81 ec 80 00 00 00 	sub	rsp, 128
ffffffff80006eab: 48 89 75 a0          	mov	qword ptr [rbp - 96], rsi
ffffffff80006eaf: 48 89 7d a8          	mov	qword ptr [rbp - 88], rdi
ffffffff80006eb3: 48 89 7d c8          	mov	qword ptr [rbp - 56], rdi
ffffffff80006eb7: 48 89 75 d0          	mov	qword ptr [rbp - 48], rsi
ffffffff80006ebb: 48 83 fe 00          	cmp	rsi, 0
ffffffff80006ebf: 75 29                	jne	0xffffffff80006eea <_ZN3qos9allocator18Allocator$LT$_$GT$10alloc_size17hb3b8f7cfc8359e1aE+0x4a>
ffffffff80006ec1: 48 c7 45 f0 00 00 00 00      	mov	qword ptr [rbp - 16], 0
ffffffff80006ec9: 48 8b 45 f0          	mov	rax, qword ptr [rbp - 16]
ffffffff80006ecd: 48 89 45 f8          	mov	qword ptr [rbp - 8], rax
ffffffff80006ed1: 48 89 45 e8          	mov	qword ptr [rbp - 24], rax
ffffffff80006ed5: 48 8b 45 e8          	mov	rax, qword ptr [rbp - 24]
ffffffff80006ed9: 48 89 45 e0          	mov	qword ptr [rbp - 32], rax
ffffffff80006edd: 48 8b 45 e0          	mov	rax, qword ptr [rbp - 32]
ffffffff80006ee1: 48 89 45 b0          	mov	qword ptr [rbp - 80], rax
ffffffff80006ee5: e9 15 01 00 00       	jmp	0xffffffff80006fff <_ZN3qos9allocator18Allocator$LT$_$GT$10alloc_size17hb3b8f7cfc8359e1aE+0x15f>
ffffffff80006eea: 48 8b 45 a0          	mov	rax, qword ptr [rbp - 96]
ffffffff80006eee: 48 3d 00 10 00 00    	cmp	rax, 4096
ffffffff80006ef4: 73 1e                	jae	0xffffffff80006f14 <_ZN3qos9allocator18Allocator$LT$_$GT$10alloc_size17hb3b8f7cfc8359e1aE+0x74>
ffffffff80006ef6: 48 8b 7d a0          	mov	rdi, qword ptr [rbp - 96]
ffffffff80006efa: e8 41 3e 00 00       	call	0xffffffff8000ad40 <_ZN3qos9allocator13size_to_index17h10ab9890508c6c62E>
ffffffff80006eff: 48 8b 7d a8          	mov	rdi, qword ptr [rbp - 88]
ffffffff80006f03: 48 89 c6             	mov	rsi, rax
ffffffff80006f06: e8 85 f8 ff ff       	call	0xffffffff80006790 <_ZN3qos9allocator18Allocator$LT$_$GT$12freelist_get17h8668e8f9938d0907E>
ffffffff80006f0b: 48 89 45 b0          	mov	qword ptr [rbp - 80], rax
ffffffff80006f0f: e9 eb 00 00 00       	jmp	0xffffffff80006fff <_ZN3qos9allocator18Allocator$LT$_$GT$10alloc_size17hb3b8f7cfc8359e1aE+0x15f>
ffffffff80006f14: 48 8b 45 a0          	mov	rax, qword ptr [rbp - 96]
ffffffff80006f18: 48 05 00 10 00 00    	add	rax, 4096
ffffffff80006f1e: 48 89 45 98          	mov	qword ptr [rbp - 104], rax
ffffffff80006f22: 0f 92 c0             	setb	al
ffffffff80006f25: a8 01                	test	al, 1
ffffffff80006f27: 75 1c                	jne	0xffffffff80006f45 <_ZN3qos9allocator18Allocator$LT$_$GT$10alloc_size17hb3b8f7cfc8359e1aE+0xa5>
ffffffff80006f29: 48 8b 45 98          	mov	rax, qword ptr [rbp - 104]
ffffffff80006f2d: 48 89 c1             	mov	rcx, rax
ffffffff80006f30: 48 83 e9 01          	sub	rcx, 1
ffffffff80006f34: 48 89 4d 90          	mov	qword ptr [rbp - 112], rcx
ffffffff80006f38: 48 83 f8 01          	cmp	rax, 1
ffffffff80006f3c: 0f 92 c0             	setb	al
ffffffff80006f3f: a8 01                	test	al, 1
ffffffff80006f41: 75 38                	jne	0xffffffff80006f7b <_ZN3qos9allocator18Allocator$LT$_$GT$10alloc_size17hb3b8f7cfc8359e1aE+0xdb>
ffffffff80006f43: eb 1e                	jmp	0xffffffff80006f63 <_ZN3qos9allocator18Allocator$LT$_$GT$10alloc_size17hb3b8f7cfc8359e1aE+0xc3>
ffffffff80006f45: 48 8d 3d f4 ac ff ff 	lea	rdi, [rip - 21260]      # 0xffffffff80001c40 <str.0>
ffffffff80006f4c: 48 8d 15 1d a7 00 00 	lea	rdx, [rip + 42781]      # 0xffffffff80011670 <xr6aouzjkjmurg0+0xffffffff80011670>
ffffffff80006f53: 48 8b 05 86 b1 00 00 	mov	rax, qword ptr [rip + 45446] # 0xffffffff800120e0 <xr6aouzjkjmurg0+0xffffffff800120e0>
ffffffff80006f5a: be 1c 00 00 00       	mov	esi, 28
ffffffff80006f5f: ff d0                	call	rax
ffffffff80006f61: 0f 0b                	ud2
ffffffff80006f63: 48 8b 45 90          	mov	rax, qword ptr [rbp - 112]
ffffffff80006f67: 48 c1 e8 0c          	shr	rax, 12
ffffffff80006f6b: 48 89 45 88          	mov	qword ptr [rbp - 120], rax
ffffffff80006f6f: 48 89 45 d8          	mov	qword ptr [rbp - 40], rax
ffffffff80006f73: b0 01                	mov	al, 1
ffffffff80006f75: a8 01                	test	al, 1
ffffffff80006f77: 75 54                	jne	0xffffffff80006fcd <_ZN3qos9allocator18Allocator$LT$_$GT$10alloc_size17hb3b8f7cfc8359e1aE+0x12d>
ffffffff80006f79: eb 1e                	jmp	0xffffffff80006f99 <_ZN3qos9allocator18Allocator$LT$_$GT$10alloc_size17hb3b8f7cfc8359e1aE+0xf9>
ffffffff80006f7b: 48 8d 3d fe ac ff ff 	lea	rdi, [rip - 21250]      # 0xffffffff80001c80 <str.2>
ffffffff80006f82: 48 8d 15 ff a6 00 00 	lea	rdx, [rip + 42751]      # 0xffffffff80011688 <xr6aouzjkjmurg0+0xffffffff80011688>
ffffffff80006f89: 48 8b 05 50 b1 00 00 	mov	rax, qword ptr [rip + 45392] # 0xffffffff800120e0 <xr6aouzjkjmurg0+0xffffffff800120e0>
ffffffff80006f90: be 21 00 00 00       	mov	esi, 33
ffffffff80006f95: ff d0                	call	rax
ffffffff80006f97: 0f 0b                	ud2
ffffffff80006f99: 48 8d 3d b8 d4 00 00 	lea	rdi, [rip + 54456]      # 0xffffffff80014458 <_ZN3qos9allocator14PAGE_ALLOCATOR17ha1d94bef89ffa1b9E>
ffffffff80006fa0: e8 ab 38 00 00       	call	0xffffffff8000a850 <_ZN3qos4sync14Mutex$LT$T$GT$4lock17h3cb0bcdec5922119E>
ffffffff80006fa5: 48 89 45 c0          	mov	qword ptr [rbp - 64], rax
ffffffff80006fa9: 48 8d 7d c0          	lea	rdi, [rbp - 64]
ffffffff80006fad: e8 ae 37 00 00       	call	0xffffffff8000a760 <_ZN77_$LT$qos..sync..MutexGuard$LT$T$GT$$u20$as$u20$core..ops..deref..DerefMut$GT$9deref_mut17h2515cfba8d16f301E>
ffffffff80006fb2: 48 8b 75 88          	mov	rsi, qword ptr [rbp - 120]
ffffffff80006fb6: 48 89 c7             	mov	rdi, rax
ffffffff80006fb9: e8 e2 55 00 00       	call	0xffffffff8000c5a0 <_ZN3qos9allocator14page_allocator13PageAllocator11alloc_pages17h08e225ec3e39b698E>
ffffffff80006fbe: 48 89 45 b0          	mov	qword ptr [rbp - 80], rax
ffffffff80006fc2: 48 8d 7d c0          	lea	rdi, [rbp - 64]
ffffffff80006fc6: e8 d5 57 00 00       	call	0xffffffff8000c7a0 <_ZN4core3ptr95drop_in_place$LT$qos..sync..MutexGuard$LT$qos..allocator..page_allocator..PageAllocator$GT$$GT$17h528ae5d18d2696deE>
ffffffff80006fcb: eb 32                	jmp	0xffffffff80006fff <_ZN3qos9allocator18Allocator$LT$_$GT$10alloc_size17hb3b8f7cfc8359e1aE+0x15f>
ffffffff80006fcd: 48 8d 3d 84 d4 00 00 	lea	rdi, [rip + 54404]      # 0xffffffff80014458 <_ZN3qos9allocator14PAGE_ALLOCATOR17ha1d94bef89ffa1b9E>
ffffffff80006fd4: e8 77 38 00 00       	call	0xffffffff8000a850 <_ZN3qos4sync14Mutex$LT$T$GT$4lock17h3cb0bcdec5922119E>
ffffffff80006fd9: 48 89 45 b8          	mov	qword ptr [rbp - 72], rax
ffffffff80006fdd: 48 8d 7d b8          	lea	rdi, [rbp - 72]
ffffffff80006fe1: e8 7a 37 00 00       	call	0xffffffff8000a760 <_ZN77_$LT$qos..sync..MutexGuard$LT$T$GT$$u20$as$u20$core..ops..deref..DerefMut$GT$9deref_mut17h2515cfba8d16f301E>
ffffffff80006fe6: 48 8b 75 88          	mov	rsi, qword ptr [rbp - 120]
ffffffff80006fea: 48 89 c7             	mov	rdi, rax
ffffffff80006fed: e8 ce 55 00 00       	call	0xffffffff8000c5c0 <_ZN3qos9allocator14page_allocator13PageAllocator15alloc_pages_low17h1124476fbec6b6c8E>
ffffffff80006ff2: 48 89 45 b0          	mov	qword ptr [rbp - 80], rax
ffffffff80006ff6: 48 8d 7d b8          	lea	rdi, [rbp - 72]
ffffffff80006ffa: e8 a1 57 00 00       	call	0xffffffff8000c7a0 <_ZN4core3ptr95drop_in_place$LT$qos..sync..MutexGuard$LT$qos..allocator..page_allocator..PageAllocator$GT$$GT$17h528ae5d18d2696deE>
ffffffff80006fff: 48 8b 45 b0          	mov	rax, qword ptr [rbp - 80]
ffffffff80007003: 48 81 c4 80 00 00 00 	add	rsp, 128
ffffffff8000700a: 5d                   	pop	rbp
ffffffff8000700b: c3                   	ret
ffffffff8000700c: cc                   	int3
ffffffff8000700d: cc                   	int3
ffffffff8000700e: cc                   	int3
ffffffff8000700f: cc                   	int3

ffffffff80007010 <_ZN87_$LT$qos..allocator..Allocator$LT$_$GT$$u20$as$u20$core..alloc..global..GlobalAlloc$GT$5alloc17h0b73e189aa595145E>:
ffffffff80007010: 55                   	push	rbp
ffffffff80007011: 48 89 e5             	mov	rbp, rsp
ffffffff80007014: 48 83 ec 30          	sub	rsp, 48
ffffffff80007018: 48 89 7d d0          	mov	qword ptr [rbp - 48], rdi
ffffffff8000701c: 48 89 75 d8          	mov	qword ptr [rbp - 40], rsi
ffffffff80007020: 48 89 55 e0          	mov	qword ptr [rbp - 32], rdx
ffffffff80007024: 48 89 7d f8          	mov	qword ptr [rbp - 8], rdi
ffffffff80007028: 48 8d 7d d8          	lea	rdi, [rbp - 40]
ffffffff8000702c: e8 ef cd ff ff       	call	0xffffffff80003e20 <_ZN4core5alloc6layout6Layout12pad_to_align17he04b7c4a8ce697f5E>
ffffffff80007031: 48 89 55 f0          	mov	qword ptr [rbp - 16], rdx
ffffffff80007035: 48 89 45 e8          	mov	qword ptr [rbp - 24], rax
ffffffff80007039: 48 8d 7d e8          	lea	rdi, [rbp - 24]
ffffffff8000703d: e8 0e cf ff ff       	call	0xffffffff80003f50 <_ZN4core5alloc6layout6Layout4size17h5cb2578191dc0d3bE>
ffffffff80007042: 48 8b 7d d0          	mov	rdi, qword ptr [rbp - 48]
ffffffff80007046: 48 89 c6             	mov	rsi, rax
ffffffff80007049: e8 e2 fc ff ff       	call	0xffffffff80006d30 <_ZN3qos9allocator18Allocator$LT$_$GT$10alloc_size17h21737e7243096fb1E>
ffffffff8000704e: 48 83 c4 30          	add	rsp, 48
ffffffff80007052: 5d                   	pop	rbp
ffffffff80007053: c3                   	ret
ffffffff80007054: cc                   	int3
ffffffff80007055: cc                   	int3
ffffffff80007056: cc                   	int3
ffffffff80007057: cc                   	int3
ffffffff80007058: cc                   	int3
ffffffff80007059: cc                   	int3
ffffffff8000705a: cc                   	int3
ffffffff8000705b: cc                   	int3
ffffffff8000705c: cc                   	int3
ffffffff8000705d: cc                   	int3
ffffffff8000705e: cc                   	int3
ffffffff8000705f: cc                   	int3

ffffffff80007060 <_ZN77_$LT$qos..allocator..Allocator$LT$_$GT$$u20$as$u20$core..alloc..Allocator$GT$8allocate17h6208c27d51b3d3b7E>:
ffffffff80007060: 55                   	push	rbp
ffffffff80007061: 48 89 e5             	mov	rbp, rsp
ffffffff80007064: 48 83 ec 60          	sub	rsp, 96
ffffffff80007068: 48 89 7d a8          	mov	qword ptr [rbp - 88], rdi
ffffffff8000706c: 48 89 75 c0          	mov	qword ptr [rbp - 64], rsi
ffffffff80007070: 48 89 55 c8          	mov	qword ptr [rbp - 56], rdx
ffffffff80007074: 48 89 7d e0          	mov	qword ptr [rbp - 32], rdi
ffffffff80007078: 48 8d 7d c0          	lea	rdi, [rbp - 64]
ffffffff8000707c: 48 89 7d b0          	mov	qword ptr [rbp - 80], rdi
ffffffff80007080: e8 9b cd ff ff       	call	0xffffffff80003e20 <_ZN4core5alloc6layout6Layout12pad_to_align17he04b7c4a8ce697f5E>
ffffffff80007085: 48 89 55 d8          	mov	qword ptr [rbp - 40], rdx
ffffffff80007089: 48 89 45 d0          	mov	qword ptr [rbp - 48], rax
ffffffff8000708d: 48 8d 7d d0          	lea	rdi, [rbp - 48]
ffffffff80007091: e8 ba ce ff ff       	call	0xffffffff80003f50 <_ZN4core5alloc6layout6Layout4size17h5cb2578191dc0d3bE>
ffffffff80007096: 48 8b 7d a8          	mov	rdi, qword ptr [rbp - 88]
ffffffff8000709a: 48 89 c6             	mov	rsi, rax
ffffffff8000709d: e8 fe fd ff ff       	call	0xffffffff80006ea0 <_ZN3qos9allocator18Allocator$LT$_$GT$10alloc_size17hb3b8f7cfc8359e1aE>
ffffffff800070a2: 48 8b 7d b0          	mov	rdi, qword ptr [rbp - 80]
ffffffff800070a6: 48 89 45 b8          	mov	qword ptr [rbp - 72], rax
ffffffff800070aa: 48 89 45 e8          	mov	qword ptr [rbp - 24], rax
ffffffff800070ae: e8 9d ce ff ff       	call	0xffffffff80003f50 <_ZN4core5alloc6layout6Layout4size17h5cb2578191dc0d3bE>
ffffffff800070b3: 48 8b 7d b8          	mov	rdi, qword ptr [rbp - 72]
ffffffff800070b7: 48 89 c6             	mov	rsi, rax
ffffffff800070ba: e8 11 cd ff ff       	call	0xffffffff80003dd0 <_ZN4core3ptr24slice_from_raw_parts_mut17hf1b859d83de895cfE>
ffffffff800070bf: 48 89 c7             	mov	rdi, rax
ffffffff800070c2: 48 89 d6             	mov	rsi, rdx
ffffffff800070c5: 48 89 7d f0          	mov	qword ptr [rbp - 16], rdi
ffffffff800070c9: 48 89 75 f8          	mov	qword ptr [rbp - 8], rsi
ffffffff800070cd: e8 fe 31 00 00       	call	0xffffffff8000a2d0 <_ZN4core3ptr8non_null16NonNull$LT$T$GT$3new17hc9a4fa5ae580c9a2E>
ffffffff800070d2: 48 89 c7             	mov	rdi, rax
ffffffff800070d5: 48 89 d6             	mov	rsi, rdx
ffffffff800070d8: e8 e3 2e 00 00       	call	0xffffffff80009fc0 <_ZN4core6option15Option$LT$T$GT$5ok_or17h958e15cd9c9917a7E>
ffffffff800070dd: 48 83 c4 60          	add	rsp, 96
ffffffff800070e1: 5d                   	pop	rbp
ffffffff800070e2: c3                   	ret
ffffffff800070e3: cc                   	int3
ffffffff800070e4: cc                   	int3
ffffffff800070e5: cc                   	int3
ffffffff800070e6: cc                   	int3
ffffffff800070e7: cc                   	int3
ffffffff800070e8: cc                   	int3
ffffffff800070e9: cc                   	int3
ffffffff800070ea: cc                   	int3
ffffffff800070eb: cc                   	int3
ffffffff800070ec: cc                   	int3
ffffffff800070ed: cc                   	int3
ffffffff800070ee: cc                   	int3
ffffffff800070ef: cc                   	int3

ffffffff800070f0 <_ZN4core3str21_$LT$impl$u20$str$GT$5chars17h45b963cf2db5ea1fE>:
ffffffff800070f0: 55                   	push	rbp
ffffffff800070f1: 48 89 e5             	mov	rbp, rsp
ffffffff800070f4: 48 83 ec 50          	sub	rsp, 80
ffffffff800070f8: 48 89 7d c0          	mov	qword ptr [rbp - 64], rdi
ffffffff800070fc: 48 89 75 c8          	mov	qword ptr [rbp - 56], rsi
ffffffff80007100: 48 89 7d d0          	mov	qword ptr [rbp - 48], rdi
ffffffff80007104: 48 89 75 d8          	mov	qword ptr [rbp - 40], rsi
ffffffff80007108: 48 89 7d e0          	mov	qword ptr [rbp - 32], rdi
ffffffff8000710c: 48 89 75 e8          	mov	qword ptr [rbp - 24], rsi
ffffffff80007110: 48 8b 7d e0          	mov	rdi, qword ptr [rbp - 32]
ffffffff80007114: 48 8b 75 e8          	mov	rsi, qword ptr [rbp - 24]
ffffffff80007118: 48 89 7d f0          	mov	qword ptr [rbp - 16], rdi
ffffffff8000711c: 48 89 75 f8          	mov	qword ptr [rbp - 8], rsi
ffffffff80007120: e8 5b 22 00 00       	call	0xffffffff80009380 <_ZN4core5slice4iter13Iter$LT$T$GT$3new17h3649172ee6b44a3bE>
ffffffff80007125: 48 89 45 b0          	mov	qword ptr [rbp - 80], rax
ffffffff80007129: 48 89 55 b8          	mov	qword ptr [rbp - 72], rdx
ffffffff8000712d: 48 8b 45 b0          	mov	rax, qword ptr [rbp - 80]
ffffffff80007131: 48 8b 55 b8          	mov	rdx, qword ptr [rbp - 72]
ffffffff80007135: 48 83 c4 50          	add	rsp, 80
ffffffff80007139: 5d                   	pop	rbp
ffffffff8000713a: c3                   	ret
ffffffff8000713b: cc                   	int3
ffffffff8000713c: cc                   	int3
ffffffff8000713d: cc                   	int3
ffffffff8000713e: cc                   	int3
ffffffff8000713f: cc                   	int3

ffffffff80007140 <_ZN4core4sync6atomic11atomic_load17h0006e89741405fb0E>:
ffffffff80007140: 55                   	push	rbp
ffffffff80007141: 48 89 e5             	mov	rbp, rsp
ffffffff80007144: 48 81 ec 90 00 00 00 	sub	rsp, 144
ffffffff8000714b: 48 89 7d 80          	mov	qword ptr [rbp - 128], rdi
ffffffff8000714f: 40 88 f0             	mov	al, sil
ffffffff80007152: 88 45 96             	mov	byte ptr [rbp - 106], al
ffffffff80007155: 48 89 7d f8          	mov	qword ptr [rbp - 8], rdi
ffffffff80007159: 0f b6 45 96          	movzx	eax, byte ptr [rbp - 106]
ffffffff8000715d: 48 89 45 88          	mov	qword ptr [rbp - 120], rax
ffffffff80007161: 48 8b 45 88          	mov	rax, qword ptr [rbp - 120]
ffffffff80007165: 48 8d 0d 38 ab ff ff 	lea	rcx, [rip - 21704]      # 0xffffffff80001ca4 <str.2+0x24>
ffffffff8000716c: 48 63 04 81          	movsxd	rax, dword ptr [rcx + 4*rax]
ffffffff80007170: 48 01 c8             	add	rax, rcx
ffffffff80007173: ff e0                	jmp	rax
ffffffff80007175: 0f 0b                	ud2
ffffffff80007177: 48 8b 45 80          	mov	rax, qword ptr [rbp - 128]
ffffffff8000717b: 8a 00                	mov	al, byte ptr [rax]
ffffffff8000717d: 88 45 97             	mov	byte ptr [rbp - 105], al
ffffffff80007180: e9 96 00 00 00       	jmp	0xffffffff8000721b <_ZN4core4sync6atomic11atomic_load17h0006e89741405fb0E+0xdb>
ffffffff80007185: 48 8d 35 3c a5 00 00 	lea	rsi, [rip + 42300]      # 0xffffffff800116c8 <xr6aouzjkjmurg0+0xffffffff800116c8>
ffffffff8000718c: 48 8d 0d 85 ab ff ff 	lea	rcx, [rip - 21627]      # 0xffffffff80001d18 <str.2+0x98>
ffffffff80007193: 31 c0                	xor	eax, eax
ffffffff80007195: 41 89 c0             	mov	r8d, eax
ffffffff80007198: 48 8d 7d 98          	lea	rdi, [rbp - 104]
ffffffff8000719c: 48 89 bd 78 ff ff ff 	mov	qword ptr [rbp - 136], rdi
ffffffff800071a3: ba 01 00 00 00       	mov	edx, 1
ffffffff800071a8: e8 43 ea ff ff       	call	0xffffffff80005bf0 <_ZN4core3fmt9Arguments6new_v117h4ece5d28621dbecaE>
ffffffff800071ad: 48 8b bd 78 ff ff ff 	mov	rdi, qword ptr [rbp - 136]
ffffffff800071b4: 48 8d 35 1d a5 00 00 	lea	rsi, [rip + 42269]      # 0xffffffff800116d8 <xr6aouzjkjmurg0+0xffffffff800116d8>
ffffffff800071bb: 48 8b 05 5e af 00 00 	mov	rax, qword ptr [rip + 44894] # 0xffffffff80012120 <xr6aouzjkjmurg0+0xffffffff80012120>
ffffffff800071c2: ff d0                	call	rax
ffffffff800071c4: 0f 0b                	ud2
ffffffff800071c6: 48 8b 45 80          	mov	rax, qword ptr [rbp - 128]
ffffffff800071ca: 8a 00                	mov	al, byte ptr [rax]
ffffffff800071cc: 88 45 97             	mov	byte ptr [rbp - 105], al
ffffffff800071cf: eb 4a                	jmp	0xffffffff8000721b <_ZN4core4sync6atomic11atomic_load17h0006e89741405fb0E+0xdb>
ffffffff800071d1: 48 8d 35 c8 a4 00 00 	lea	rsi, [rip + 42184]      # 0xffffffff800116a0 <xr6aouzjkjmurg0+0xffffffff800116a0>
ffffffff800071d8: 48 8d 0d 39 ab ff ff 	lea	rcx, [rip - 21703]      # 0xffffffff80001d18 <str.2+0x98>
ffffffff800071df: 31 c0                	xor	eax, eax
ffffffff800071e1: 41 89 c0             	mov	r8d, eax
ffffffff800071e4: 48 8d 7d c8          	lea	rdi, [rbp - 56]
ffffffff800071e8: 48 89 bd 70 ff ff ff 	mov	qword ptr [rbp - 144], rdi
ffffffff800071ef: ba 01 00 00 00       	mov	edx, 1
ffffffff800071f4: e8 f7 e9 ff ff       	call	0xffffffff80005bf0 <_ZN4core3fmt9Arguments6new_v117h4ece5d28621dbecaE>
ffffffff800071f9: 48 8b bd 70 ff ff ff 	mov	rdi, qword ptr [rbp - 144]
ffffffff80007200: 48 8d 35 a9 a4 00 00 	lea	rsi, [rip + 42153]      # 0xffffffff800116b0 <xr6aouzjkjmurg0+0xffffffff800116b0>
ffffffff80007207: 48 8b 05 12 af 00 00 	mov	rax, qword ptr [rip + 44818] # 0xffffffff80012120 <xr6aouzjkjmurg0+0xffffffff80012120>
ffffffff8000720e: ff d0                	call	rax
ffffffff80007210: 0f 0b                	ud2
ffffffff80007212: 48 8b 45 80          	mov	rax, qword ptr [rbp - 128]
ffffffff80007216: 8a 00                	mov	al, byte ptr [rax]
ffffffff80007218: 88 45 97             	mov	byte ptr [rbp - 105], al
ffffffff8000721b: 8a 45 97             	mov	al, byte ptr [rbp - 105]
ffffffff8000721e: 48 81 c4 90 00 00 00 	add	rsp, 144
ffffffff80007225: 5d                   	pop	rbp
ffffffff80007226: c3                   	ret
ffffffff80007227: cc                   	int3
ffffffff80007228: cc                   	int3
ffffffff80007229: cc                   	int3
ffffffff8000722a: cc                   	int3
ffffffff8000722b: cc                   	int3
ffffffff8000722c: cc                   	int3
ffffffff8000722d: cc                   	int3
ffffffff8000722e: cc                   	int3
ffffffff8000722f: cc                   	int3

ffffffff80007230 <_ZN4core4sync6atomic12atomic_store17h724a2d8a83bef95fE>:
ffffffff80007230: 55                   	push	rbp
ffffffff80007231: 48 89 e5             	mov	rbp, rsp
ffffffff80007234: 48 81 ec a0 00 00 00 	sub	rsp, 160
ffffffff8000723b: 48 89 bd 70 ff ff ff 	mov	qword ptr [rbp - 144], rdi
ffffffff80007242: 88 d1                	mov	cl, dl
ffffffff80007244: 40 88 f0             	mov	al, sil
ffffffff80007247: 88 85 7f ff ff ff    	mov	byte ptr [rbp - 129], al
ffffffff8000724d: 88 4d 8f             	mov	byte ptr [rbp - 113], cl
ffffffff80007250: 48 89 7d f0          	mov	qword ptr [rbp - 16], rdi
ffffffff80007254: 88 45 ff             	mov	byte ptr [rbp - 1], al
ffffffff80007257: 0f b6 45 8f          	movzx	eax, byte ptr [rbp - 113]
ffffffff8000725b: 48 89 45 80          	mov	qword ptr [rbp - 128], rax
ffffffff8000725f: 48 8b 45 80          	mov	rax, qword ptr [rbp - 128]
ffffffff80007263: 48 8d 0d 4e aa ff ff 	lea	rcx, [rip - 21938]      # 0xffffffff80001cb8 <str.2+0x38>
ffffffff8000726a: 48 63 04 81          	movsxd	rax, dword ptr [rcx + 4*rax]
ffffffff8000726e: 48 01 c8             	add	rax, rcx
ffffffff80007271: ff e0                	jmp	rax
ffffffff80007273: 0f 0b                	ud2
ffffffff80007275: 48 8b 85 70 ff ff ff 	mov	rax, qword ptr [rbp - 144]
ffffffff8000727c: 8a 8d 7f ff ff ff    	mov	cl, byte ptr [rbp - 129]
ffffffff80007282: 88 08                	mov	byte ptr [rax], cl
ffffffff80007284: e9 a5 00 00 00       	jmp	0xffffffff8000732e <_ZN4core4sync6atomic12atomic_store17h724a2d8a83bef95fE+0xfe>
ffffffff80007289: 48 8b 85 70 ff ff ff 	mov	rax, qword ptr [rbp - 144]
ffffffff80007290: 8a 8d 7f ff ff ff    	mov	cl, byte ptr [rbp - 129]
ffffffff80007296: 88 08                	mov	byte ptr [rax], cl
ffffffff80007298: e9 91 00 00 00       	jmp	0xffffffff8000732e <_ZN4core4sync6atomic12atomic_store17h724a2d8a83bef95fE+0xfe>
ffffffff8000729d: 48 8d 35 74 a4 00 00 	lea	rsi, [rip + 42100]      # 0xffffffff80011718 <xr6aouzjkjmurg0+0xffffffff80011718>
ffffffff800072a4: 48 8d 0d 6d aa ff ff 	lea	rcx, [rip - 21907]      # 0xffffffff80001d18 <str.2+0x98>
ffffffff800072ab: 31 c0                	xor	eax, eax
ffffffff800072ad: 41 89 c0             	mov	r8d, eax
ffffffff800072b0: 48 8d 7d 90          	lea	rdi, [rbp - 112]
ffffffff800072b4: 48 89 bd 68 ff ff ff 	mov	qword ptr [rbp - 152], rdi
ffffffff800072bb: ba 01 00 00 00       	mov	edx, 1
ffffffff800072c0: e8 2b e9 ff ff       	call	0xffffffff80005bf0 <_ZN4core3fmt9Arguments6new_v117h4ece5d28621dbecaE>
ffffffff800072c5: 48 8b bd 68 ff ff ff 	mov	rdi, qword ptr [rbp - 152]
ffffffff800072cc: 48 8d 35 55 a4 00 00 	lea	rsi, [rip + 42069]      # 0xffffffff80011728 <xr6aouzjkjmurg0+0xffffffff80011728>
ffffffff800072d3: 48 8b 05 46 ae 00 00 	mov	rax, qword ptr [rip + 44614] # 0xffffffff80012120 <xr6aouzjkjmurg0+0xffffffff80012120>
ffffffff800072da: ff d0                	call	rax
ffffffff800072dc: 0f 0b                	ud2
ffffffff800072de: 48 8d 35 0b a4 00 00 	lea	rsi, [rip + 41995]      # 0xffffffff800116f0 <xr6aouzjkjmurg0+0xffffffff800116f0>
ffffffff800072e5: 48 8d 0d 2c aa ff ff 	lea	rcx, [rip - 21972]      # 0xffffffff80001d18 <str.2+0x98>
ffffffff800072ec: 31 c0                	xor	eax, eax
ffffffff800072ee: 41 89 c0             	mov	r8d, eax
ffffffff800072f1: 48 8d 7d c0          	lea	rdi, [rbp - 64]
ffffffff800072f5: 48 89 bd 60 ff ff ff 	mov	qword ptr [rbp - 160], rdi
ffffffff800072fc: ba 01 00 00 00       	mov	edx, 1
ffffffff80007301: e8 ea e8 ff ff       	call	0xffffffff80005bf0 <_ZN4core3fmt9Arguments6new_v117h4ece5d28621dbecaE>
ffffffff80007306: 48 8b bd 60 ff ff ff 	mov	rdi, qword ptr [rbp - 160]
ffffffff8000730d: 48 8d 35 ec a3 00 00 	lea	rsi, [rip + 41964]      # 0xffffffff80011700 <xr6aouzjkjmurg0+0xffffffff80011700>
ffffffff80007314: 48 8b 05 05 ae 00 00 	mov	rax, qword ptr [rip + 44549] # 0xffffffff80012120 <xr6aouzjkjmurg0+0xffffffff80012120>
ffffffff8000731b: ff d0                	call	rax
ffffffff8000731d: 0f 0b                	ud2
ffffffff8000731f: 48 8b 8d 70 ff ff ff 	mov	rcx, qword ptr [rbp - 144]
ffffffff80007326: 8a 85 7f ff ff ff    	mov	al, byte ptr [rbp - 129]
ffffffff8000732c: 86 01                	xchg	byte ptr [rcx], al
ffffffff8000732e: 48 81 c4 a0 00 00 00 	add	rsp, 160
ffffffff80007335: 5d                   	pop	rbp
ffffffff80007336: c3                   	ret
ffffffff80007337: cc                   	int3
ffffffff80007338: cc                   	int3
ffffffff80007339: cc                   	int3
ffffffff8000733a: cc                   	int3
ffffffff8000733b: cc                   	int3
ffffffff8000733c: cc                   	int3
ffffffff8000733d: cc                   	int3
ffffffff8000733e: cc                   	int3
ffffffff8000733f: cc                   	int3

ffffffff80007340 <_ZN4core4sync6atomic23atomic_compare_exchange17h8926a8d8ed8b70b4E>:
ffffffff80007340: 55                   	push	rbp
ffffffff80007341: 48 89 e5             	mov	rbp, rsp
ffffffff80007344: 48 81 ec e0 00 00 00 	sub	rsp, 224
ffffffff8000734b: 48 89 bd 60 ff ff ff 	mov	qword ptr [rbp - 160], rdi
ffffffff80007352: 44 88 c0             	mov	al, r8b
ffffffff80007355: 88 95 6e ff ff ff    	mov	byte ptr [rbp - 146], dl
ffffffff8000735b: 40 88 b5 6f ff ff ff 	mov	byte ptr [rbp - 145], sil
ffffffff80007362: 48 89 7d f0          	mov	qword ptr [rbp - 16], rdi
ffffffff80007366: 40 88 75 fa          	mov	byte ptr [rbp - 6], sil
ffffffff8000736a: 88 55 fb             	mov	byte ptr [rbp - 5], dl
ffffffff8000736d: 88 4d fc             	mov	byte ptr [rbp - 4], cl
ffffffff80007370: 88 45 fd             	mov	byte ptr [rbp - 3], al
ffffffff80007373: 88 4d 88             	mov	byte ptr [rbp - 120], cl
ffffffff80007376: 88 45 89             	mov	byte ptr [rbp - 119], al
ffffffff80007379: 0f b6 45 88          	movzx	eax, byte ptr [rbp - 120]
ffffffff8000737d: 48 89 85 70 ff ff ff 	mov	qword ptr [rbp - 144], rax
ffffffff80007384: 48 8b 85 70 ff ff ff 	mov	rax, qword ptr [rbp - 144]
ffffffff8000738b: 48 8d 0d 3a a9 ff ff 	lea	rcx, [rip - 22214]      # 0xffffffff80001ccc <str.2+0x4c>
ffffffff80007392: 48 63 04 81          	movsxd	rax, dword ptr [rcx + 4*rax]
ffffffff80007396: 48 01 c8             	add	rax, rcx
ffffffff80007399: ff e0                	jmp	rax
ffffffff8000739b: 0f 0b                	ud2
ffffffff8000739d: 0f b6 45 89          	movzx	eax, byte ptr [rbp - 119]
ffffffff800073a1: 48 89 85 58 ff ff ff 	mov	qword ptr [rbp - 168], rax
ffffffff800073a8: 48 85 c0             	test	rax, rax
ffffffff800073ab: 0f 84 24 03 00 00    	je	0xffffffff800076d5 <_ZN4core4sync6atomic23atomic_compare_exchange17h8926a8d8ed8b70b4E+0x395>
ffffffff800073b1: eb 00                	jmp	0xffffffff800073b3 <_ZN4core4sync6atomic23atomic_compare_exchange17h8926a8d8ed8b70b4E+0x73>
ffffffff800073b3: 48 8b 85 58 ff ff ff 	mov	rax, qword ptr [rbp - 168]
ffffffff800073ba: 48 83 e8 02          	sub	rax, 2
ffffffff800073be: 0f 84 3a 03 00 00    	je	0xffffffff800076fe <_ZN4core4sync6atomic23atomic_compare_exchange17h8926a8d8ed8b70b4E+0x3be>
ffffffff800073c4: eb 00                	jmp	0xffffffff800073c6 <_ZN4core4sync6atomic23atomic_compare_exchange17h8926a8d8ed8b70b4E+0x86>
ffffffff800073c6: 48 8b 85 58 ff ff ff 	mov	rax, qword ptr [rbp - 168]
ffffffff800073cd: 48 83 e8 04          	sub	rax, 4
ffffffff800073d1: 0f 84 50 03 00 00    	je	0xffffffff80007727 <_ZN4core4sync6atomic23atomic_compare_exchange17h8926a8d8ed8b70b4E+0x3e7>
ffffffff800073d7: e9 e7 00 00 00       	jmp	0xffffffff800074c3 <_ZN4core4sync6atomic23atomic_compare_exchange17h8926a8d8ed8b70b4E+0x183>
ffffffff800073dc: 0f b6 45 89          	movzx	eax, byte ptr [rbp - 119]
ffffffff800073e0: 48 89 85 50 ff ff ff 	mov	qword ptr [rbp - 176], rax
ffffffff800073e7: 48 85 c0             	test	rax, rax
ffffffff800073ea: 0f 84 6a 02 00 00    	je	0xffffffff8000765a <_ZN4core4sync6atomic23atomic_compare_exchange17h8926a8d8ed8b70b4E+0x31a>
ffffffff800073f0: eb 00                	jmp	0xffffffff800073f2 <_ZN4core4sync6atomic23atomic_compare_exchange17h8926a8d8ed8b70b4E+0xb2>
ffffffff800073f2: 48 8b 85 50 ff ff ff 	mov	rax, qword ptr [rbp - 176]
ffffffff800073f9: 48 83 e8 02          	sub	rax, 2
ffffffff800073fd: 0f 84 80 02 00 00    	je	0xffffffff80007683 <_ZN4core4sync6atomic23atomic_compare_exchange17h8926a8d8ed8b70b4E+0x343>
ffffffff80007403: eb 00                	jmp	0xffffffff80007405 <_ZN4core4sync6atomic23atomic_compare_exchange17h8926a8d8ed8b70b4E+0xc5>
ffffffff80007405: 48 8b 85 50 ff ff ff 	mov	rax, qword ptr [rbp - 176]
ffffffff8000740c: 48 83 e8 04          	sub	rax, 4
ffffffff80007410: 0f 84 96 02 00 00    	je	0xffffffff800076ac <_ZN4core4sync6atomic23atomic_compare_exchange17h8926a8d8ed8b70b4E+0x36c>
ffffffff80007416: e9 a8 00 00 00       	jmp	0xffffffff800074c3 <_ZN4core4sync6atomic23atomic_compare_exchange17h8926a8d8ed8b70b4E+0x183>
ffffffff8000741b: 0f b6 45 89          	movzx	eax, byte ptr [rbp - 119]
ffffffff8000741f: 48 89 85 48 ff ff ff 	mov	qword ptr [rbp - 184], rax
ffffffff80007426: 48 85 c0             	test	rax, rax
ffffffff80007429: 0f 84 b0 01 00 00    	je	0xffffffff800075df <_ZN4core4sync6atomic23atomic_compare_exchange17h8926a8d8ed8b70b4E+0x29f>
ffffffff8000742f: eb 00                	jmp	0xffffffff80007431 <_ZN4core4sync6atomic23atomic_compare_exchange17h8926a8d8ed8b70b4E+0xf1>
ffffffff80007431: 48 8b 85 48 ff ff ff 	mov	rax, qword ptr [rbp - 184]
ffffffff80007438: 48 83 e8 02          	sub	rax, 2
ffffffff8000743c: 0f 84 c6 01 00 00    	je	0xffffffff80007608 <_ZN4core4sync6atomic23atomic_compare_exchange17h8926a8d8ed8b70b4E+0x2c8>
ffffffff80007442: eb 00                	jmp	0xffffffff80007444 <_ZN4core4sync6atomic23atomic_compare_exchange17h8926a8d8ed8b70b4E+0x104>
ffffffff80007444: 48 8b 85 48 ff ff ff 	mov	rax, qword ptr [rbp - 184]
ffffffff8000744b: 48 83 e8 04          	sub	rax, 4
ffffffff8000744f: 0f 84 dc 01 00 00    	je	0xffffffff80007631 <_ZN4core4sync6atomic23atomic_compare_exchange17h8926a8d8ed8b70b4E+0x2f1>
ffffffff80007455: eb 6c                	jmp	0xffffffff800074c3 <_ZN4core4sync6atomic23atomic_compare_exchange17h8926a8d8ed8b70b4E+0x183>
ffffffff80007457: 0f b6 45 89          	movzx	eax, byte ptr [rbp - 119]
ffffffff8000745b: 48 89 85 40 ff ff ff 	mov	qword ptr [rbp - 192], rax
ffffffff80007462: 48 85 c0             	test	rax, rax
ffffffff80007465: 0f 84 ff 00 00 00    	je	0xffffffff8000756a <_ZN4core4sync6atomic23atomic_compare_exchange17h8926a8d8ed8b70b4E+0x22a>
ffffffff8000746b: eb 00                	jmp	0xffffffff8000746d <_ZN4core4sync6atomic23atomic_compare_exchange17h8926a8d8ed8b70b4E+0x12d>
ffffffff8000746d: 48 8b 85 40 ff ff ff 	mov	rax, qword ptr [rbp - 192]
ffffffff80007474: 48 83 e8 02          	sub	rax, 2
ffffffff80007478: 0f 84 12 01 00 00    	je	0xffffffff80007590 <_ZN4core4sync6atomic23atomic_compare_exchange17h8926a8d8ed8b70b4E+0x250>
ffffffff8000747e: eb 00                	jmp	0xffffffff80007480 <_ZN4core4sync6atomic23atomic_compare_exchange17h8926a8d8ed8b70b4E+0x140>
ffffffff80007480: 48 8b 85 40 ff ff ff 	mov	rax, qword ptr [rbp - 192]
ffffffff80007487: 48 83 e8 04          	sub	rax, 4
ffffffff8000748b: 0f 84 25 01 00 00    	je	0xffffffff800075b6 <_ZN4core4sync6atomic23atomic_compare_exchange17h8926a8d8ed8b70b4E+0x276>
ffffffff80007491: eb 30                	jmp	0xffffffff800074c3 <_ZN4core4sync6atomic23atomic_compare_exchange17h8926a8d8ed8b70b4E+0x183>
ffffffff80007493: 0f b6 45 89          	movzx	eax, byte ptr [rbp - 119]
ffffffff80007497: 48 89 85 38 ff ff ff 	mov	qword ptr [rbp - 200], rax
ffffffff8000749e: 48 85 c0             	test	rax, rax
ffffffff800074a1: 74 33                	je	0xffffffff800074d6 <_ZN4core4sync6atomic23atomic_compare_exchange17h8926a8d8ed8b70b4E+0x196>
ffffffff800074a3: eb 00                	jmp	0xffffffff800074a5 <_ZN4core4sync6atomic23atomic_compare_exchange17h8926a8d8ed8b70b4E+0x165>
ffffffff800074a5: 48 8b 85 38 ff ff ff 	mov	rax, qword ptr [rbp - 200]
ffffffff800074ac: 48 83 e8 02          	sub	rax, 2
ffffffff800074b0: 74 4a                	je	0xffffffff800074fc <_ZN4core4sync6atomic23atomic_compare_exchange17h8926a8d8ed8b70b4E+0x1bc>
ffffffff800074b2: eb 00                	jmp	0xffffffff800074b4 <_ZN4core4sync6atomic23atomic_compare_exchange17h8926a8d8ed8b70b4E+0x174>
ffffffff800074b4: 48 8b 85 38 ff ff ff 	mov	rax, qword ptr [rbp - 200]
ffffffff800074bb: 48 83 e8 04          	sub	rax, 4
ffffffff800074bf: 74 61                	je	0xffffffff80007522 <_ZN4core4sync6atomic23atomic_compare_exchange17h8926a8d8ed8b70b4E+0x1e2>
ffffffff800074c1: eb 00                	jmp	0xffffffff800074c3 <_ZN4core4sync6atomic23atomic_compare_exchange17h8926a8d8ed8b70b4E+0x183>
ffffffff800074c3: 0f b6 45 89          	movzx	eax, byte ptr [rbp - 119]
ffffffff800074c7: 48 83 f8 01          	cmp	rax, 1
ffffffff800074cb: 0f 84 7f 02 00 00    	je	0xffffffff80007750 <_ZN4core4sync6atomic23atomic_compare_exchange17h8926a8d8ed8b70b4E+0x410>
ffffffff800074d1: e9 bb 02 00 00       	jmp	0xffffffff80007791 <_ZN4core4sync6atomic23atomic_compare_exchange17h8926a8d8ed8b70b4E+0x451>
ffffffff800074d6: 48 8b 8d 60 ff ff ff 	mov	rcx, qword ptr [rbp - 160]
ffffffff800074dd: 8a 95 6e ff ff ff    	mov	dl, byte ptr [rbp - 146]
ffffffff800074e3: 8a 85 6f ff ff ff    	mov	al, byte ptr [rbp - 145]
ffffffff800074e9: f0                   	lock
ffffffff800074ea: 0f b0 11             	cmpxchg	byte ptr [rcx], dl
ffffffff800074ed: 88 c1                	mov	cl, al
ffffffff800074ef: 0f 94 c0             	sete	al
ffffffff800074f2: 24 01                	and	al, 1
ffffffff800074f4: 88 4d 80             	mov	byte ptr [rbp - 128], cl
ffffffff800074f7: 88 45 81             	mov	byte ptr [rbp - 127], al
ffffffff800074fa: eb 4a                	jmp	0xffffffff80007546 <_ZN4core4sync6atomic23atomic_compare_exchange17h8926a8d8ed8b70b4E+0x206>
ffffffff800074fc: 48 8b 8d 60 ff ff ff 	mov	rcx, qword ptr [rbp - 160]
ffffffff80007503: 8a 95 6e ff ff ff    	mov	dl, byte ptr [rbp - 146]
ffffffff80007509: 8a 85 6f ff ff ff    	mov	al, byte ptr [rbp - 145]
ffffffff8000750f: f0                   	lock
ffffffff80007510: 0f b0 11             	cmpxchg	byte ptr [rcx], dl
ffffffff80007513: 88 c1                	mov	cl, al
ffffffff80007515: 0f 94 c0             	sete	al
ffffffff80007518: 24 01                	and	al, 1
ffffffff8000751a: 88 4d 80             	mov	byte ptr [rbp - 128], cl
ffffffff8000751d: 88 45 81             	mov	byte ptr [rbp - 127], al
ffffffff80007520: eb 24                	jmp	0xffffffff80007546 <_ZN4core4sync6atomic23atomic_compare_exchange17h8926a8d8ed8b70b4E+0x206>
ffffffff80007522: 48 8b 8d 60 ff ff ff 	mov	rcx, qword ptr [rbp - 160]
ffffffff80007529: 8a 95 6e ff ff ff    	mov	dl, byte ptr [rbp - 146]
ffffffff8000752f: 8a 85 6f ff ff ff    	mov	al, byte ptr [rbp - 145]
ffffffff80007535: f0                   	lock
ffffffff80007536: 0f b0 11             	cmpxchg	byte ptr [rcx], dl
ffffffff80007539: 88 c1                	mov	cl, al
ffffffff8000753b: 0f 94 c0             	sete	al
ffffffff8000753e: 24 01                	and	al, 1
ffffffff80007540: 88 4d 80             	mov	byte ptr [rbp - 128], cl
ffffffff80007543: 88 45 81             	mov	byte ptr [rbp - 127], al
ffffffff80007546: 8a 45 80             	mov	al, byte ptr [rbp - 128]
ffffffff80007549: 88 85 37 ff ff ff    	mov	byte ptr [rbp - 201], al
ffffffff8000754f: 88 45 fe             	mov	byte ptr [rbp - 2], al
ffffffff80007552: 8a 45 81             	mov	al, byte ptr [rbp - 127]
ffffffff80007555: 88 c1                	mov	cl, al
ffffffff80007557: 80 e1 01             	and	cl, 1
ffffffff8000755a: 88 4d ff             	mov	byte ptr [rbp - 1], cl
ffffffff8000755d: a8 01                	test	al, 1
ffffffff8000755f: 0f 85 82 02 00 00    	jne	0xffffffff800077e7 <_ZN4core4sync6atomic23atomic_compare_exchange17h8926a8d8ed8b70b4E+0x4a7>
ffffffff80007565: e9 68 02 00 00       	jmp	0xffffffff800077d2 <_ZN4core4sync6atomic23atomic_compare_exchange17h8926a8d8ed8b70b4E+0x492>
ffffffff8000756a: 48 8b 8d 60 ff ff ff 	mov	rcx, qword ptr [rbp - 160]
ffffffff80007571: 8a 95 6e ff ff ff    	mov	dl, byte ptr [rbp - 146]
ffffffff80007577: 8a 85 6f ff ff ff    	mov	al, byte ptr [rbp - 145]
ffffffff8000757d: f0                   	lock
ffffffff8000757e: 0f b0 11             	cmpxchg	byte ptr [rcx], dl
ffffffff80007581: 88 c1                	mov	cl, al
ffffffff80007583: 0f 94 c0             	sete	al
ffffffff80007586: 24 01                	and	al, 1
ffffffff80007588: 88 4d 80             	mov	byte ptr [rbp - 128], cl
ffffffff8000758b: 88 45 81             	mov	byte ptr [rbp - 127], al
ffffffff8000758e: eb b6                	jmp	0xffffffff80007546 <_ZN4core4sync6atomic23atomic_compare_exchange17h8926a8d8ed8b70b4E+0x206>
ffffffff80007590: 48 8b 8d 60 ff ff ff 	mov	rcx, qword ptr [rbp - 160]
ffffffff80007597: 8a 95 6e ff ff ff    	mov	dl, byte ptr [rbp - 146]
ffffffff8000759d: 8a 85 6f ff ff ff    	mov	al, byte ptr [rbp - 145]
ffffffff800075a3: f0                   	lock
ffffffff800075a4: 0f b0 11             	cmpxchg	byte ptr [rcx], dl
ffffffff800075a7: 88 c1                	mov	cl, al
ffffffff800075a9: 0f 94 c0             	sete	al
ffffffff800075ac: 24 01                	and	al, 1
ffffffff800075ae: 88 4d 80             	mov	byte ptr [rbp - 128], cl
ffffffff800075b1: 88 45 81             	mov	byte ptr [rbp - 127], al
ffffffff800075b4: eb 90                	jmp	0xffffffff80007546 <_ZN4core4sync6atomic23atomic_compare_exchange17h8926a8d8ed8b70b4E+0x206>
ffffffff800075b6: 48 8b 8d 60 ff ff ff 	mov	rcx, qword ptr [rbp - 160]
ffffffff800075bd: 8a 95 6e ff ff ff    	mov	dl, byte ptr [rbp - 146]
ffffffff800075c3: 8a 85 6f ff ff ff    	mov	al, byte ptr [rbp - 145]
ffffffff800075c9: f0                   	lock
ffffffff800075ca: 0f b0 11             	cmpxchg	byte ptr [rcx], dl
ffffffff800075cd: 88 c1                	mov	cl, al
ffffffff800075cf: 0f 94 c0             	sete	al
ffffffff800075d2: 24 01                	and	al, 1
ffffffff800075d4: 88 4d 80             	mov	byte ptr [rbp - 128], cl
ffffffff800075d7: 88 45 81             	mov	byte ptr [rbp - 127], al
ffffffff800075da: e9 67 ff ff ff       	jmp	0xffffffff80007546 <_ZN4core4sync6atomic23atomic_compare_exchange17h8926a8d8ed8b70b4E+0x206>
ffffffff800075df: 48 8b 8d 60 ff ff ff 	mov	rcx, qword ptr [rbp - 160]
ffffffff800075e6: 8a 95 6e ff ff ff    	mov	dl, byte ptr [rbp - 146]
ffffffff800075ec: 8a 85 6f ff ff ff    	mov	al, byte ptr [rbp - 145]
ffffffff800075f2: f0                   	lock
ffffffff800075f3: 0f b0 11             	cmpxchg	byte ptr [rcx], dl
ffffffff800075f6: 88 c1                	mov	cl, al
ffffffff800075f8: 0f 94 c0             	sete	al
ffffffff800075fb: 24 01                	and	al, 1
ffffffff800075fd: 88 4d 80             	mov	byte ptr [rbp - 128], cl
ffffffff80007600: 88 45 81             	mov	byte ptr [rbp - 127], al
ffffffff80007603: e9 3e ff ff ff       	jmp	0xffffffff80007546 <_ZN4core4sync6atomic23atomic_compare_exchange17h8926a8d8ed8b70b4E+0x206>
ffffffff80007608: 48 8b 8d 60 ff ff ff 	mov	rcx, qword ptr [rbp - 160]
ffffffff8000760f: 8a 95 6e ff ff ff    	mov	dl, byte ptr [rbp - 146]
ffffffff80007615: 8a 85 6f ff ff ff    	mov	al, byte ptr [rbp - 145]
ffffffff8000761b: f0                   	lock
ffffffff8000761c: 0f b0 11             	cmpxchg	byte ptr [rcx], dl
ffffffff8000761f: 88 c1                	mov	cl, al
ffffffff80007621: 0f 94 c0             	sete	al
ffffffff80007624: 24 01                	and	al, 1
ffffffff80007626: 88 4d 80             	mov	byte ptr [rbp - 128], cl
ffffffff80007629: 88 45 81             	mov	byte ptr [rbp - 127], al
ffffffff8000762c: e9 15 ff ff ff       	jmp	0xffffffff80007546 <_ZN4core4sync6atomic23atomic_compare_exchange17h8926a8d8ed8b70b4E+0x206>
ffffffff80007631: 48 8b 8d 60 ff ff ff 	mov	rcx, qword ptr [rbp - 160]
ffffffff80007638: 8a 95 6e ff ff ff    	mov	dl, byte ptr [rbp - 146]
ffffffff8000763e: 8a 85 6f ff ff ff    	mov	al, byte ptr [rbp - 145]
ffffffff80007644: f0                   	lock
ffffffff80007645: 0f b0 11             	cmpxchg	byte ptr [rcx], dl
ffffffff80007648: 88 c1                	mov	cl, al
ffffffff8000764a: 0f 94 c0             	sete	al
ffffffff8000764d: 24 01                	and	al, 1
ffffffff8000764f: 88 4d 80             	mov	byte ptr [rbp - 128], cl
ffffffff80007652: 88 45 81             	mov	byte ptr [rbp - 127], al
ffffffff80007655: e9 ec fe ff ff       	jmp	0xffffffff80007546 <_ZN4core4sync6atomic23atomic_compare_exchange17h8926a8d8ed8b70b4E+0x206>
ffffffff8000765a: 48 8b 8d 60 ff ff ff 	mov	rcx, qword ptr [rbp - 160]
ffffffff80007661: 8a 95 6e ff ff ff    	mov	dl, byte ptr [rbp - 146]
ffffffff80007667: 8a 85 6f ff ff ff    	mov	al, byte ptr [rbp - 145]
ffffffff8000766d: f0                   	lock
ffffffff8000766e: 0f b0 11             	cmpxchg	byte ptr [rcx], dl
ffffffff80007671: 88 c1                	mov	cl, al
ffffffff80007673: 0f 94 c0             	sete	al
ffffffff80007676: 24 01                	and	al, 1
ffffffff80007678: 88 4d 80             	mov	byte ptr [rbp - 128], cl
ffffffff8000767b: 88 45 81             	mov	byte ptr [rbp - 127], al
ffffffff8000767e: e9 c3 fe ff ff       	jmp	0xffffffff80007546 <_ZN4core4sync6atomic23atomic_compare_exchange17h8926a8d8ed8b70b4E+0x206>
ffffffff80007683: 48 8b 8d 60 ff ff ff 	mov	rcx, qword ptr [rbp - 160]
ffffffff8000768a: 8a 95 6e ff ff ff    	mov	dl, byte ptr [rbp - 146]
ffffffff80007690: 8a 85 6f ff ff ff    	mov	al, byte ptr [rbp - 145]
ffffffff80007696: f0                   	lock
ffffffff80007697: 0f b0 11             	cmpxchg	byte ptr [rcx], dl
ffffffff8000769a: 88 c1                	mov	cl, al
ffffffff8000769c: 0f 94 c0             	sete	al
ffffffff8000769f: 24 01                	and	al, 1
ffffffff800076a1: 88 4d 80             	mov	byte ptr [rbp - 128], cl
ffffffff800076a4: 88 45 81             	mov	byte ptr [rbp - 127], al
ffffffff800076a7: e9 9a fe ff ff       	jmp	0xffffffff80007546 <_ZN4core4sync6atomic23atomic_compare_exchange17h8926a8d8ed8b70b4E+0x206>
ffffffff800076ac: 48 8b 8d 60 ff ff ff 	mov	rcx, qword ptr [rbp - 160]
ffffffff800076b3: 8a 95 6e ff ff ff    	mov	dl, byte ptr [rbp - 146]
ffffffff800076b9: 8a 85 6f ff ff ff    	mov	al, byte ptr [rbp - 145]
ffffffff800076bf: f0                   	lock
ffffffff800076c0: 0f b0 11             	cmpxchg	byte ptr [rcx], dl
ffffffff800076c3: 88 c1                	mov	cl, al
ffffffff800076c5: 0f 94 c0             	sete	al
ffffffff800076c8: 24 01                	and	al, 1
ffffffff800076ca: 88 4d 80             	mov	byte ptr [rbp - 128], cl
ffffffff800076cd: 88 45 81             	mov	byte ptr [rbp - 127], al
ffffffff800076d0: e9 71 fe ff ff       	jmp	0xffffffff80007546 <_ZN4core4sync6atomic23atomic_compare_exchange17h8926a8d8ed8b70b4E+0x206>
ffffffff800076d5: 48 8b 8d 60 ff ff ff 	mov	rcx, qword ptr [rbp - 160]
ffffffff800076dc: 8a 95 6e ff ff ff    	mov	dl, byte ptr [rbp - 146]
ffffffff800076e2: 8a 85 6f ff ff ff    	mov	al, byte ptr [rbp - 145]
ffffffff800076e8: f0                   	lock
ffffffff800076e9: 0f b0 11             	cmpxchg	byte ptr [rcx], dl
ffffffff800076ec: 88 c1                	mov	cl, al
ffffffff800076ee: 0f 94 c0             	sete	al
ffffffff800076f1: 24 01                	and	al, 1
ffffffff800076f3: 88 4d 80             	mov	byte ptr [rbp - 128], cl
ffffffff800076f6: 88 45 81             	mov	byte ptr [rbp - 127], al
ffffffff800076f9: e9 48 fe ff ff       	jmp	0xffffffff80007546 <_ZN4core4sync6atomic23atomic_compare_exchange17h8926a8d8ed8b70b4E+0x206>
ffffffff800076fe: 48 8b 8d 60 ff ff ff 	mov	rcx, qword ptr [rbp - 160]
ffffffff80007705: 8a 95 6e ff ff ff    	mov	dl, byte ptr [rbp - 146]
ffffffff8000770b: 8a 85 6f ff ff ff    	mov	al, byte ptr [rbp - 145]
ffffffff80007711: f0                   	lock
ffffffff80007712: 0f b0 11             	cmpxchg	byte ptr [rcx], dl
ffffffff80007715: 88 c1                	mov	cl, al
ffffffff80007717: 0f 94 c0             	sete	al
ffffffff8000771a: 24 01                	and	al, 1
ffffffff8000771c: 88 4d 80             	mov	byte ptr [rbp - 128], cl
ffffffff8000771f: 88 45 81             	mov	byte ptr [rbp - 127], al
ffffffff80007722: e9 1f fe ff ff       	jmp	0xffffffff80007546 <_ZN4core4sync6atomic23atomic_compare_exchange17h8926a8d8ed8b70b4E+0x206>
ffffffff80007727: 48 8b 8d 60 ff ff ff 	mov	rcx, qword ptr [rbp - 160]
ffffffff8000772e: 8a 95 6e ff ff ff    	mov	dl, byte ptr [rbp - 146]
ffffffff80007734: 8a 85 6f ff ff ff    	mov	al, byte ptr [rbp - 145]
ffffffff8000773a: f0                   	lock
ffffffff8000773b: 0f b0 11             	cmpxchg	byte ptr [rcx], dl
ffffffff8000773e: 88 c1                	mov	cl, al
ffffffff80007740: 0f 94 c0             	sete	al
ffffffff80007743: 24 01                	and	al, 1
ffffffff80007745: 88 4d 80             	mov	byte ptr [rbp - 128], cl
ffffffff80007748: 88 45 81             	mov	byte ptr [rbp - 127], al
ffffffff8000774b: e9 f6 fd ff ff       	jmp	0xffffffff80007546 <_ZN4core4sync6atomic23atomic_compare_exchange17h8926a8d8ed8b70b4E+0x206>
ffffffff80007750: 48 8d 35 11 a0 00 00 	lea	rsi, [rip + 40977]      # 0xffffffff80011768 <xr6aouzjkjmurg0+0xffffffff80011768>
ffffffff80007757: 48 8d 0d ba a5 ff ff 	lea	rcx, [rip - 23110]      # 0xffffffff80001d18 <str.2+0x98>
ffffffff8000775e: 31 c0                	xor	eax, eax
ffffffff80007760: 41 89 c0             	mov	r8d, eax
ffffffff80007763: 48 8d 7d c0          	lea	rdi, [rbp - 64]
ffffffff80007767: 48 89 bd 28 ff ff ff 	mov	qword ptr [rbp - 216], rdi
ffffffff8000776e: ba 01 00 00 00       	mov	edx, 1
ffffffff80007773: e8 78 e4 ff ff       	call	0xffffffff80005bf0 <_ZN4core3fmt9Arguments6new_v117h4ece5d28621dbecaE>
ffffffff80007778: 48 8b bd 28 ff ff ff 	mov	rdi, qword ptr [rbp - 216]
ffffffff8000777f: 48 8d 35 f2 9f 00 00 	lea	rsi, [rip + 40946]      # 0xffffffff80011778 <xr6aouzjkjmurg0+0xffffffff80011778>
ffffffff80007786: 48 8b 05 93 a9 00 00 	mov	rax, qword ptr [rip + 43411] # 0xffffffff80012120 <xr6aouzjkjmurg0+0xffffffff80012120>
ffffffff8000778d: ff d0                	call	rax
ffffffff8000778f: 0f 0b                	ud2
ffffffff80007791: 48 8d 35 a8 9f 00 00 	lea	rsi, [rip + 40872]      # 0xffffffff80011740 <xr6aouzjkjmurg0+0xffffffff80011740>
ffffffff80007798: 48 8d 0d 79 a5 ff ff 	lea	rcx, [rip - 23175]      # 0xffffffff80001d18 <str.2+0x98>
ffffffff8000779f: 31 c0                	xor	eax, eax
ffffffff800077a1: 41 89 c0             	mov	r8d, eax
ffffffff800077a4: 48 8d 7d 90          	lea	rdi, [rbp - 112]
ffffffff800077a8: 48 89 bd 20 ff ff ff 	mov	qword ptr [rbp - 224], rdi
ffffffff800077af: ba 01 00 00 00       	mov	edx, 1
ffffffff800077b4: e8 37 e4 ff ff       	call	0xffffffff80005bf0 <_ZN4core3fmt9Arguments6new_v117h4ece5d28621dbecaE>
ffffffff800077b9: 48 8b bd 20 ff ff ff 	mov	rdi, qword ptr [rbp - 224]
ffffffff800077c0: 48 8d 35 89 9f 00 00 	lea	rsi, [rip + 40841]      # 0xffffffff80011750 <xr6aouzjkjmurg0+0xffffffff80011750>
ffffffff800077c7: 48 8b 05 52 a9 00 00 	mov	rax, qword ptr [rip + 43346] # 0xffffffff80012120 <xr6aouzjkjmurg0+0xffffffff80012120>
ffffffff800077ce: ff d0                	call	rax
ffffffff800077d0: 0f 0b                	ud2
ffffffff800077d2: 8a 85 37 ff ff ff    	mov	al, byte ptr [rbp - 201]
ffffffff800077d8: 88 85 79 ff ff ff    	mov	byte ptr [rbp - 135], al
ffffffff800077de: c6 85 78 ff ff ff 01 	mov	byte ptr [rbp - 136], 1
ffffffff800077e5: eb 13                	jmp	0xffffffff800077fa <_ZN4core4sync6atomic23atomic_compare_exchange17h8926a8d8ed8b70b4E+0x4ba>
ffffffff800077e7: 8a 85 37 ff ff ff    	mov	al, byte ptr [rbp - 201]
ffffffff800077ed: 88 85 79 ff ff ff    	mov	byte ptr [rbp - 135], al
ffffffff800077f3: c6 85 78 ff ff ff 00 	mov	byte ptr [rbp - 136], 0
ffffffff800077fa: 8a 85 78 ff ff ff    	mov	al, byte ptr [rbp - 136]
ffffffff80007800: 8a 95 79 ff ff ff    	mov	dl, byte ptr [rbp - 135]
ffffffff80007806: 48 81 c4 e0 00 00 00 	add	rsp, 224
ffffffff8000780d: 5d                   	pop	rbp
ffffffff8000780e: c3                   	ret
ffffffff8000780f: cc                   	int3

ffffffff80007810 <_ZN4core3str11validations15next_code_point17hcf16a8bc72c5d123E>:
ffffffff80007810: 55                   	push	rbp
ffffffff80007811: 48 89 e5             	mov	rbp, rsp
ffffffff80007814: 48 81 ec d0 00 00 00 	sub	rsp, 208
ffffffff8000781b: 48 89 bd 48 ff ff ff 	mov	qword ptr [rbp - 184], rdi
ffffffff80007822: 48 89 7d 88          	mov	qword ptr [rbp - 120], rdi
ffffffff80007826: e8 55 1c 00 00       	call	0xffffffff80009480 <_ZN91_$LT$core..slice..iter..Iter$LT$T$GT$$u20$as$u20$core..iter..traits..iterator..Iterator$GT$4next17h908265790dd2bc8fE>
ffffffff8000782b: 48 89 85 60 ff ff ff 	mov	qword ptr [rbp - 160], rax
ffffffff80007832: 48 8b 95 60 ff ff ff 	mov	rdx, qword ptr [rbp - 160]
ffffffff80007839: b8 01 00 00 00       	mov	eax, 1
ffffffff8000783e: 31 c9                	xor	ecx, ecx
ffffffff80007840: 48 83 fa 00          	cmp	rdx, 0
ffffffff80007844: 48 0f 44 c1          	cmove	rax, rcx
ffffffff80007848: 48 83 f8 00          	cmp	rax, 0
ffffffff8000784c: 75 0d                	jne	0xffffffff8000785b <_ZN4core3str11validations15next_code_point17hcf16a8bc72c5d123E+0x4b>
ffffffff8000784e: 48 c7 85 58 ff ff ff 00 00 00 00     	mov	qword ptr [rbp - 168], 0
ffffffff80007859: eb 12                	jmp	0xffffffff8000786d <_ZN4core3str11validations15next_code_point17hcf16a8bc72c5d123E+0x5d>
ffffffff8000785b: 48 8b 85 60 ff ff ff 	mov	rax, qword ptr [rbp - 160]
ffffffff80007862: 48 89 45 a0          	mov	qword ptr [rbp - 96], rax
ffffffff80007866: 48 89 85 58 ff ff ff 	mov	qword ptr [rbp - 168], rax
ffffffff8000786d: 48 8b 95 58 ff ff ff 	mov	rdx, qword ptr [rbp - 168]
ffffffff80007874: 31 c0                	xor	eax, eax
ffffffff80007876: b9 01 00 00 00       	mov	ecx, 1
ffffffff8000787b: 48 83 fa 00          	cmp	rdx, 0
ffffffff8000787f: 48 0f 44 c1          	cmove	rax, rcx
ffffffff80007883: 48 83 f8 00          	cmp	rax, 0
ffffffff80007887: 75 1c                	jne	0xffffffff800078a5 <_ZN4core3str11validations15next_code_point17hcf16a8bc72c5d123E+0x95>
ffffffff80007889: 48 8b 85 58 ff ff ff 	mov	rax, qword ptr [rbp - 168]
ffffffff80007890: 48 89 45 a8          	mov	qword ptr [rbp - 88], rax
ffffffff80007894: 8a 00                	mov	al, byte ptr [rax]
ffffffff80007896: 88 85 47 ff ff ff    	mov	byte ptr [rbp - 185], al
ffffffff8000789c: 88 45 b2             	mov	byte ptr [rbp - 78], al
ffffffff8000789f: 3c 80                	cmp	al, -128
ffffffff800078a1: 72 56                	jb	0xffffffff800078f9 <_ZN4core3str11validations15next_code_point17hcf16a8bc72c5d123E+0xe9>
ffffffff800078a3: eb 0c                	jmp	0xffffffff800078b1 <_ZN4core3str11validations15next_code_point17hcf16a8bc72c5d123E+0xa1>
ffffffff800078a5: c7 85 50 ff ff ff 00 00 00 00	mov	dword ptr [rbp - 176], 0
ffffffff800078af: eb 63                	jmp	0xffffffff80007914 <_ZN4core3str11validations15next_code_point17hcf16a8bc72c5d123E+0x104>
ffffffff800078b1: 48 8b bd 48 ff ff ff 	mov	rdi, qword ptr [rbp - 184]
ffffffff800078b8: 8a 85 47 ff ff ff    	mov	al, byte ptr [rbp - 185]
ffffffff800078be: 88 45 b3             	mov	byte ptr [rbp - 77], al
ffffffff800078c1: 24 1f                	and	al, 31
ffffffff800078c3: 0f b6 c0             	movzx	eax, al
ffffffff800078c6: 89 85 40 ff ff ff    	mov	dword ptr [rbp - 192], eax
ffffffff800078cc: 89 45 b4             	mov	dword ptr [rbp - 76], eax
ffffffff800078cf: e8 ac 1b 00 00       	call	0xffffffff80009480 <_ZN91_$LT$core..slice..iter..Iter$LT$T$GT$$u20$as$u20$core..iter..traits..iterator..Iterator$GT$4next17h908265790dd2bc8fE>
ffffffff800078d4: 48 89 85 68 ff ff ff 	mov	qword ptr [rbp - 152], rax
ffffffff800078db: 48 8b 95 68 ff ff ff 	mov	rdx, qword ptr [rbp - 152]
ffffffff800078e2: b8 01 00 00 00       	mov	eax, 1
ffffffff800078e7: 31 c9                	xor	ecx, ecx
ffffffff800078e9: 48 83 fa 00          	cmp	rdx, 0
ffffffff800078ed: 48 0f 44 c1          	cmove	rax, rcx
ffffffff800078f1: 48 83 f8 00          	cmp	rax, 0
ffffffff800078f5: 74 32                	je	0xffffffff80007929 <_ZN4core3str11validations15next_code_point17hcf16a8bc72c5d123E+0x119>
ffffffff800078f7: eb 37                	jmp	0xffffffff80007930 <_ZN4core3str11validations15next_code_point17hcf16a8bc72c5d123E+0x120>
ffffffff800078f9: 8a 85 47 ff ff ff    	mov	al, byte ptr [rbp - 185]
ffffffff800078ff: 0f b6 c0             	movzx	eax, al
ffffffff80007902: 89 85 54 ff ff ff    	mov	dword ptr [rbp - 172], eax
ffffffff80007908: c7 85 50 ff ff ff 01 00 00 00	mov	dword ptr [rbp - 176], 1
ffffffff80007912: eb 9b                	jmp	0xffffffff800078af <_ZN4core3str11validations15next_code_point17hcf16a8bc72c5d123E+0x9f>
ffffffff80007914: 8b 85 50 ff ff ff    	mov	eax, dword ptr [rbp - 176]
ffffffff8000791a: 8b 95 54 ff ff ff    	mov	edx, dword ptr [rbp - 172]
ffffffff80007920: 48 81 c4 d0 00 00 00 	add	rsp, 208
ffffffff80007927: 5d                   	pop	rbp
ffffffff80007928: c3                   	ret
ffffffff80007929: e8 32 e7 ff ff       	call	0xffffffff80006060 <_ZN4core4hint21unreachable_unchecked17h65fec5232fc3a4e3E>
ffffffff8000792e: 0f 0b                	ud2
ffffffff80007930: 8a 85 47 ff ff ff    	mov	al, byte ptr [rbp - 185]
ffffffff80007936: 8b 8d 40 ff ff ff    	mov	ecx, dword ptr [rbp - 192]
ffffffff8000793c: 48 8b 95 68 ff ff ff 	mov	rdx, qword ptr [rbp - 152]
ffffffff80007943: 48 89 55 b8          	mov	qword ptr [rbp - 72], rdx
ffffffff80007947: 8a 12                	mov	dl, byte ptr [rdx]
ffffffff80007949: 88 95 3f ff ff ff    	mov	byte ptr [rbp - 193], dl
ffffffff8000794f: 88 55 c7             	mov	byte ptr [rbp - 57], dl
ffffffff80007952: 89 4d c8             	mov	dword ptr [rbp - 56], ecx
ffffffff80007955: 88 55 cf             	mov	byte ptr [rbp - 49], dl
ffffffff80007958: c1 e1 06             	shl	ecx, 6
ffffffff8000795b: 80 e2 3f             	and	dl, 63
ffffffff8000795e: 0f b6 d2             	movzx	edx, dl
ffffffff80007961: 09 d1                	or	ecx, edx
ffffffff80007963: 89 8d 74 ff ff ff    	mov	dword ptr [rbp - 140], ecx
ffffffff80007969: 3c e0                	cmp	al, -32
ffffffff8000796b: 73 18                	jae	0xffffffff80007985 <_ZN4core3str11validations15next_code_point17hcf16a8bc72c5d123E+0x175>
ffffffff8000796d: 8b 85 74 ff ff ff    	mov	eax, dword ptr [rbp - 140]
ffffffff80007973: 89 85 54 ff ff ff    	mov	dword ptr [rbp - 172], eax
ffffffff80007979: c7 85 50 ff ff ff 01 00 00 00	mov	dword ptr [rbp - 176], 1
ffffffff80007983: eb 8f                	jmp	0xffffffff80007914 <_ZN4core3str11validations15next_code_point17hcf16a8bc72c5d123E+0x104>
ffffffff80007985: 48 8b bd 48 ff ff ff 	mov	rdi, qword ptr [rbp - 184]
ffffffff8000798c: e8 ef 1a 00 00       	call	0xffffffff80009480 <_ZN91_$LT$core..slice..iter..Iter$LT$T$GT$$u20$as$u20$core..iter..traits..iterator..Iterator$GT$4next17h908265790dd2bc8fE>
ffffffff80007991: 48 89 85 78 ff ff ff 	mov	qword ptr [rbp - 136], rax
ffffffff80007998: 48 8b 95 78 ff ff ff 	mov	rdx, qword ptr [rbp - 136]
ffffffff8000799f: b8 01 00 00 00       	mov	eax, 1
ffffffff800079a4: 31 c9                	xor	ecx, ecx
ffffffff800079a6: 48 83 fa 00          	cmp	rdx, 0
ffffffff800079aa: 48 0f 44 c1          	cmove	rax, rcx
ffffffff800079ae: 48 83 f8 00          	cmp	rax, 0
ffffffff800079b2: 75 07                	jne	0xffffffff800079bb <_ZN4core3str11validations15next_code_point17hcf16a8bc72c5d123E+0x1ab>
ffffffff800079b4: e8 a7 e6 ff ff       	call	0xffffffff80006060 <_ZN4core4hint21unreachable_unchecked17h65fec5232fc3a4e3E>
ffffffff800079b9: 0f 0b                	ud2
ffffffff800079bb: 8a 85 47 ff ff ff    	mov	al, byte ptr [rbp - 185]
ffffffff800079c1: 8b 8d 40 ff ff ff    	mov	ecx, dword ptr [rbp - 192]
ffffffff800079c7: 8a 95 3f ff ff ff    	mov	dl, byte ptr [rbp - 193]
ffffffff800079cd: 48 8b b5 78 ff ff ff 	mov	rsi, qword ptr [rbp - 136]
ffffffff800079d4: 48 89 75 d0          	mov	qword ptr [rbp - 48], rsi
ffffffff800079d8: 40 8a 36             	mov	sil, byte ptr [rsi]
ffffffff800079db: 40 88 75 db          	mov	byte ptr [rbp - 37], sil
ffffffff800079df: 80 e2 3f             	and	dl, 63
ffffffff800079e2: 0f b6 d2             	movzx	edx, dl
ffffffff800079e5: 89 55 dc             	mov	dword ptr [rbp - 36], edx
ffffffff800079e8: 40 88 75 e3          	mov	byte ptr [rbp - 29], sil
ffffffff800079ec: c1 e2 06             	shl	edx, 6
ffffffff800079ef: 40 80 e6 3f          	and	sil, 63
ffffffff800079f3: 40 0f b6 f6          	movzx	esi, sil
ffffffff800079f7: 09 f2                	or	edx, esi
ffffffff800079f9: 89 95 38 ff ff ff    	mov	dword ptr [rbp - 200], edx
ffffffff800079ff: 89 55 e4             	mov	dword ptr [rbp - 28], edx
ffffffff80007a02: c1 e1 0c             	shl	ecx, 12
ffffffff80007a05: 09 d1                	or	ecx, edx
ffffffff80007a07: 89 8d 74 ff ff ff    	mov	dword ptr [rbp - 140], ecx
ffffffff80007a0d: 3c f0                	cmp	al, -16
ffffffff80007a0f: 73 05                	jae	0xffffffff80007a16 <_ZN4core3str11validations15next_code_point17hcf16a8bc72c5d123E+0x206>
ffffffff80007a11: e9 57 ff ff ff       	jmp	0xffffffff8000796d <_ZN4core3str11validations15next_code_point17hcf16a8bc72c5d123E+0x15d>
ffffffff80007a16: 48 8b bd 48 ff ff ff 	mov	rdi, qword ptr [rbp - 184]
ffffffff80007a1d: e8 5e 1a 00 00       	call	0xffffffff80009480 <_ZN91_$LT$core..slice..iter..Iter$LT$T$GT$$u20$as$u20$core..iter..traits..iterator..Iterator$GT$4next17h908265790dd2bc8fE>
ffffffff80007a22: 48 89 45 80          	mov	qword ptr [rbp - 128], rax
ffffffff80007a26: 48 8b 55 80          	mov	rdx, qword ptr [rbp - 128]
ffffffff80007a2a: b8 01 00 00 00       	mov	eax, 1
ffffffff80007a2f: 31 c9                	xor	ecx, ecx
ffffffff80007a31: 48 83 fa 00          	cmp	rdx, 0
ffffffff80007a35: 48 0f 44 c1          	cmove	rax, rcx
ffffffff80007a39: 48 83 f8 00          	cmp	rax, 0
ffffffff80007a3d: 75 07                	jne	0xffffffff80007a46 <_ZN4core3str11validations15next_code_point17hcf16a8bc72c5d123E+0x236>
ffffffff80007a3f: e8 1c e6 ff ff       	call	0xffffffff80006060 <_ZN4core4hint21unreachable_unchecked17h65fec5232fc3a4e3E>
ffffffff80007a44: 0f 0b                	ud2
ffffffff80007a46: 8b 8d 38 ff ff ff    	mov	ecx, dword ptr [rbp - 200]
ffffffff80007a4c: 8b 85 40 ff ff ff    	mov	eax, dword ptr [rbp - 192]
ffffffff80007a52: 48 8b 55 80          	mov	rdx, qword ptr [rbp - 128]
ffffffff80007a56: 48 89 55 e8          	mov	qword ptr [rbp - 24], rdx
ffffffff80007a5a: 8a 12                	mov	dl, byte ptr [rdx]
ffffffff80007a5c: 88 55 f7             	mov	byte ptr [rbp - 9], dl
ffffffff80007a5f: 83 e0 07             	and	eax, 7
ffffffff80007a62: c1 e0 12             	shl	eax, 18
ffffffff80007a65: 89 4d f8             	mov	dword ptr [rbp - 8], ecx
ffffffff80007a68: 88 55 ff             	mov	byte ptr [rbp - 1], dl
ffffffff80007a6b: c1 e1 06             	shl	ecx, 6
ffffffff80007a6e: 80 e2 3f             	and	dl, 63
ffffffff80007a71: 0f b6 d2             	movzx	edx, dl
ffffffff80007a74: 09 d1                	or	ecx, edx
ffffffff80007a76: 09 c8                	or	eax, ecx
ffffffff80007a78: 89 85 74 ff ff ff    	mov	dword ptr [rbp - 140], eax
ffffffff80007a7e: eb 91                	jmp	0xffffffff80007a11 <_ZN4core3str11validations15next_code_point17hcf16a8bc72c5d123E+0x201>

ffffffff80007a80 <_ZN5alloc5boxed16Box$LT$T$C$A$GT$11into_unique17ha9c1c32b16896ce8E>:
ffffffff80007a80: 55                   	push	rbp
ffffffff80007a81: 48 89 e5             	mov	rbp, rsp
ffffffff80007a84: 48 81 ec 80 00 00 00 	sub	rsp, 128
ffffffff80007a8b: 48 89 7d 90          	mov	qword ptr [rbp - 112], rdi
ffffffff80007a8f: 48 8d 45 98          	lea	rax, [rbp - 104]
ffffffff80007a93: 48 89 75 98          	mov	qword ptr [rbp - 104], rsi
ffffffff80007a97: 48 89 45 c8          	mov	qword ptr [rbp - 56], rax
ffffffff80007a9b: 48 8d 45 b8          	lea	rax, [rbp - 72]
ffffffff80007a9f: 48 89 45 d0          	mov	qword ptr [rbp - 48], rax
ffffffff80007aa3: 48 8b 45 98          	mov	rax, qword ptr [rbp - 104]
ffffffff80007aa7: 48 89 45 b8          	mov	qword ptr [rbp - 72], rax
ffffffff80007aab: 48 8b 45 b8          	mov	rax, qword ptr [rbp - 72]
ffffffff80007aaf: 48 89 45 88          	mov	qword ptr [rbp - 120], rax
ffffffff80007ab3: 48 89 45 d8          	mov	qword ptr [rbp - 40], rax
ffffffff80007ab7: 48 89 45 e0          	mov	qword ptr [rbp - 32], rax
ffffffff80007abb: 48 89 45 e8          	mov	qword ptr [rbp - 24], rax
ffffffff80007abf: 48 8b 7d 90          	mov	rdi, qword ptr [rbp - 112]
ffffffff80007ac3: 48 8b 75 98          	mov	rsi, qword ptr [rbp - 104]
ffffffff80007ac7: e8 f4 02 00 00       	call	0xffffffff80007dc0 <_ZN5alloc5boxed16Box$LT$T$C$A$GT$4leak17hdf81b1e76f694c98E>
ffffffff80007acc: 48 89 c1             	mov	rcx, rax
ffffffff80007acf: 48 8b 45 88          	mov	rax, qword ptr [rbp - 120]
ffffffff80007ad3: 48 89 4d f0          	mov	qword ptr [rbp - 16], rcx
ffffffff80007ad7: 48 89 4d f8          	mov	qword ptr [rbp - 8], rcx
ffffffff80007adb: 48 89 4d c0          	mov	qword ptr [rbp - 64], rcx
ffffffff80007adf: 48 8b 4d c0          	mov	rcx, qword ptr [rbp - 64]
ffffffff80007ae3: 48 89 4d b0          	mov	qword ptr [rbp - 80], rcx
ffffffff80007ae7: 48 8b 4d b0          	mov	rcx, qword ptr [rbp - 80]
ffffffff80007aeb: 48 89 4d a0          	mov	qword ptr [rbp - 96], rcx
ffffffff80007aef: 48 89 45 a8          	mov	qword ptr [rbp - 88], rax
ffffffff80007af3: 48 8b 45 a0          	mov	rax, qword ptr [rbp - 96]
ffffffff80007af7: 48 8b 55 a8          	mov	rdx, qword ptr [rbp - 88]
ffffffff80007afb: 48 81 c4 80 00 00 00 	add	rsp, 128
ffffffff80007b02: 5d                   	pop	rbp
ffffffff80007b03: c3                   	ret
ffffffff80007b04: cc                   	int3
ffffffff80007b05: cc                   	int3
ffffffff80007b06: cc                   	int3
ffffffff80007b07: cc                   	int3
ffffffff80007b08: cc                   	int3
ffffffff80007b09: cc                   	int3
ffffffff80007b0a: cc                   	int3
ffffffff80007b0b: cc                   	int3
ffffffff80007b0c: cc                   	int3
ffffffff80007b0d: cc                   	int3
ffffffff80007b0e: cc                   	int3
ffffffff80007b0f: cc                   	int3

ffffffff80007b10 <_ZN5alloc5boxed16Box$LT$T$C$A$GT$13new_uninit_in17ha83790327858ff31E>:
ffffffff80007b10: 55                   	push	rbp
ffffffff80007b11: 48 89 e5             	mov	rbp, rsp
ffffffff80007b14: 48 83 ec 70          	sub	rsp, 112
ffffffff80007b18: 48 89 7d 90          	mov	qword ptr [rbp - 112], rdi
ffffffff80007b1c: 48 89 7d b8          	mov	qword ptr [rbp - 72], rdi
ffffffff80007b20: e8 8b d4 ff ff       	call	0xffffffff80004fb0 <_ZN4core5alloc6layout10size_align17h6873a8c6de4e547fE>
ffffffff80007b25: 48 8b 7d 90          	mov	rdi, qword ptr [rbp - 112]
ffffffff80007b29: 48 89 c1             	mov	rcx, rax
ffffffff80007b2c: 48 89 4d c0          	mov	qword ptr [rbp - 64], rcx
ffffffff80007b30: 48 89 55 c8          	mov	qword ptr [rbp - 56], rdx
ffffffff80007b34: 48 89 4d d0          	mov	qword ptr [rbp - 48], rcx
ffffffff80007b38: 48 89 55 d8          	mov	qword ptr [rbp - 40], rdx
ffffffff80007b3c: 48 89 55 e0          	mov	qword ptr [rbp - 32], rdx
ffffffff80007b40: 48 89 55 e8          	mov	qword ptr [rbp - 24], rdx
ffffffff80007b44: 48 8b 45 e8          	mov	rax, qword ptr [rbp - 24]
ffffffff80007b48: 48 89 4d 98          	mov	qword ptr [rbp - 104], rcx
ffffffff80007b4c: 48 89 45 a0          	mov	qword ptr [rbp - 96], rax
ffffffff80007b50: e8 4b 00 00 00       	call	0xffffffff80007ba0 <_ZN5alloc5boxed16Box$LT$T$C$A$GT$17try_new_uninit_in17h96a3fceff29007fdE>
ffffffff80007b55: 48 89 55 b0          	mov	qword ptr [rbp - 80], rdx
ffffffff80007b59: 48 89 45 a8          	mov	qword ptr [rbp - 88], rax
ffffffff80007b5d: 48 8b 55 a8          	mov	rdx, qword ptr [rbp - 88]
ffffffff80007b61: 31 c0                	xor	eax, eax
ffffffff80007b63: b9 01 00 00 00       	mov	ecx, 1
ffffffff80007b68: 48 83 fa 00          	cmp	rdx, 0
ffffffff80007b6c: 48 0f 44 c1          	cmove	rax, rcx
ffffffff80007b70: 48 83 f8 00          	cmp	rax, 0
ffffffff80007b74: 75 16                	jne	0xffffffff80007b8c <_ZN5alloc5boxed16Box$LT$T$C$A$GT$13new_uninit_in17ha83790327858ff31E+0x7c>
ffffffff80007b76: 48 8b 45 a8          	mov	rax, qword ptr [rbp - 88]
ffffffff80007b7a: 48 8b 55 b0          	mov	rdx, qword ptr [rbp - 80]
ffffffff80007b7e: 48 89 45 f0          	mov	qword ptr [rbp - 16], rax
ffffffff80007b82: 48 89 55 f8          	mov	qword ptr [rbp - 8], rdx
ffffffff80007b86: 48 83 c4 70          	add	rsp, 112
ffffffff80007b8a: 5d                   	pop	rbp
ffffffff80007b8b: c3                   	ret
ffffffff80007b8c: 48 8b 7d 98          	mov	rdi, qword ptr [rbp - 104]
ffffffff80007b90: 48 8b 75 a0          	mov	rsi, qword ptr [rbp - 96]
ffffffff80007b94: 48 8b 05 2d a5 00 00 	mov	rax, qword ptr [rip + 42285] # 0xffffffff800120c8 <xr6aouzjkjmurg0+0xffffffff800120c8>
ffffffff80007b9b: ff d0                	call	rax
ffffffff80007b9d: 0f 0b                	ud2
ffffffff80007b9f: cc                   	int3

ffffffff80007ba0 <_ZN5alloc5boxed16Box$LT$T$C$A$GT$17try_new_uninit_in17h96a3fceff29007fdE>:
ffffffff80007ba0: 55                   	push	rbp
ffffffff80007ba1: 48 89 e5             	mov	rbp, rsp
ffffffff80007ba4: 48 81 ec 30 01 00 00 	sub	rsp, 304
ffffffff80007bab: 48 89 bd d0 fe ff ff 	mov	qword ptr [rbp - 304], rdi
ffffffff80007bb2: e8 f9 d3 ff ff       	call	0xffffffff80004fb0 <_ZN4core5alloc6layout10size_align17h6873a8c6de4e547fE>
ffffffff80007bb7: 48 89 c1             	mov	rcx, rax
ffffffff80007bba: 48 89 8d 60 ff ff ff 	mov	qword ptr [rbp - 160], rcx
ffffffff80007bc1: 48 89 95 68 ff ff ff 	mov	qword ptr [rbp - 152], rdx
ffffffff80007bc8: 48 89 8d 70 ff ff ff 	mov	qword ptr [rbp - 144], rcx
ffffffff80007bcf: 48 89 95 78 ff ff ff 	mov	qword ptr [rbp - 136], rdx
ffffffff80007bd6: 48 89 55 80          	mov	qword ptr [rbp - 128], rdx
ffffffff80007bda: 48 89 55 88          	mov	qword ptr [rbp - 120], rdx
ffffffff80007bde: 48 8b 45 88          	mov	rax, qword ptr [rbp - 120]
ffffffff80007be2: 48 89 8d e8 fe ff ff 	mov	qword ptr [rbp - 280], rcx
ffffffff80007be9: 48 89 85 f0 fe ff ff 	mov	qword ptr [rbp - 272], rax
ffffffff80007bf0: 48 8b b5 e8 fe ff ff 	mov	rsi, qword ptr [rbp - 280]
ffffffff80007bf7: 48 8b 95 f0 fe ff ff 	mov	rdx, qword ptr [rbp - 272]
ffffffff80007bfe: 48 8d bd d0 fe ff ff 	lea	rdi, [rbp - 304]
ffffffff80007c05: e8 06 e5 ff ff       	call	0xffffffff80006110 <_ZN48_$LT$$RF$A$u20$as$u20$core..alloc..Allocator$GT$8allocate17h17468a76c3906da5E>
ffffffff80007c0a: 48 89 95 18 ff ff ff 	mov	qword ptr [rbp - 232], rdx
ffffffff80007c11: 48 89 85 10 ff ff ff 	mov	qword ptr [rbp - 240], rax
ffffffff80007c18: 48 8b 95 10 ff ff ff 	mov	rdx, qword ptr [rbp - 240]
ffffffff80007c1f: 31 c0                	xor	eax, eax
ffffffff80007c21: b9 01 00 00 00       	mov	ecx, 1
ffffffff80007c26: 48 83 fa 00          	cmp	rdx, 0
ffffffff80007c2a: 48 0f 44 c1          	cmove	rax, rcx
ffffffff80007c2e: 48 83 f8 00          	cmp	rax, 0
ffffffff80007c32: 75 26                	jne	0xffffffff80007c5a <_ZN5alloc5boxed16Box$LT$T$C$A$GT$17try_new_uninit_in17h96a3fceff29007fdE+0xba>
ffffffff80007c34: 48 8b 8d 10 ff ff ff 	mov	rcx, qword ptr [rbp - 240]
ffffffff80007c3b: 48 8b 85 18 ff ff ff 	mov	rax, qword ptr [rbp - 232]
ffffffff80007c42: 48 89 4d 90          	mov	qword ptr [rbp - 112], rcx
ffffffff80007c46: 48 89 45 98          	mov	qword ptr [rbp - 104], rax
ffffffff80007c4a: 48 89 8d 00 ff ff ff 	mov	qword ptr [rbp - 256], rcx
ffffffff80007c51: 48 89 85 08 ff ff ff 	mov	qword ptr [rbp - 248], rax
ffffffff80007c58: eb 0b                	jmp	0xffffffff80007c65 <_ZN5alloc5boxed16Box$LT$T$C$A$GT$17try_new_uninit_in17h96a3fceff29007fdE+0xc5>
ffffffff80007c5a: 48 c7 85 00 ff ff ff 00 00 00 00     	mov	qword ptr [rbp - 256], 0
ffffffff80007c65: 48 8b 95 00 ff ff ff 	mov	rdx, qword ptr [rbp - 256]
ffffffff80007c6c: 31 c0                	xor	eax, eax
ffffffff80007c6e: b9 01 00 00 00       	mov	ecx, 1
ffffffff80007c73: 48 83 fa 00          	cmp	rdx, 0
ffffffff80007c77: 48 0f 44 c1          	cmove	rax, rcx
ffffffff80007c7b: 48 83 f8 00          	cmp	rax, 0
ffffffff80007c7f: 0f 85 9b 00 00 00    	jne	0xffffffff80007d20 <_ZN5alloc5boxed16Box$LT$T$C$A$GT$17try_new_uninit_in17h96a3fceff29007fdE+0x180>
ffffffff80007c85: 48 8b 85 00 ff ff ff 	mov	rax, qword ptr [rbp - 256]
ffffffff80007c8c: 48 8b 8d 08 ff ff ff 	mov	rcx, qword ptr [rbp - 248]
ffffffff80007c93: 48 89 45 a0          	mov	qword ptr [rbp - 96], rax
ffffffff80007c97: 48 89 4d a8          	mov	qword ptr [rbp - 88], rcx
ffffffff80007c9b: 48 89 45 b0          	mov	qword ptr [rbp - 80], rax
ffffffff80007c9f: 48 89 4d b8          	mov	qword ptr [rbp - 72], rcx
ffffffff80007ca3: 48 89 45 c0          	mov	qword ptr [rbp - 64], rax
ffffffff80007ca7: 48 89 4d c8          	mov	qword ptr [rbp - 56], rcx
ffffffff80007cab: 48 89 45 d0          	mov	qword ptr [rbp - 48], rax
ffffffff80007caf: 48 89 85 f8 fe ff ff 	mov	qword ptr [rbp - 264], rax
ffffffff80007cb6: 48 8b 8d f8 fe ff ff 	mov	rcx, qword ptr [rbp - 264]
ffffffff80007cbd: 48 89 4d d8          	mov	qword ptr [rbp - 40], rcx
ffffffff80007cc1: 48 89 4d e0          	mov	qword ptr [rbp - 32], rcx
ffffffff80007cc5: 48 8b 85 d0 fe ff ff 	mov	rax, qword ptr [rbp - 304]
ffffffff80007ccc: 48 89 45 e8          	mov	qword ptr [rbp - 24], rax
ffffffff80007cd0: 48 89 4d f0          	mov	qword ptr [rbp - 16], rcx
ffffffff80007cd4: 48 89 4d f8          	mov	qword ptr [rbp - 8], rcx
ffffffff80007cd8: 48 89 8d 38 ff ff ff 	mov	qword ptr [rbp - 200], rcx
ffffffff80007cdf: 48 8b 8d 38 ff ff ff 	mov	rcx, qword ptr [rbp - 200]
ffffffff80007ce6: 48 89 8d 30 ff ff ff 	mov	qword ptr [rbp - 208], rcx
ffffffff80007ced: 48 8b 8d 30 ff ff ff 	mov	rcx, qword ptr [rbp - 208]
ffffffff80007cf4: 48 89 8d 20 ff ff ff 	mov	qword ptr [rbp - 224], rcx
ffffffff80007cfb: 48 89 85 28 ff ff ff 	mov	qword ptr [rbp - 216], rax
ffffffff80007d02: 48 8b 8d 20 ff ff ff 	mov	rcx, qword ptr [rbp - 224]
ffffffff80007d09: 48 8b 85 28 ff ff ff 	mov	rax, qword ptr [rbp - 216]
ffffffff80007d10: 48 89 8d d8 fe ff ff 	mov	qword ptr [rbp - 296], rcx
ffffffff80007d17: 48 89 85 e0 fe ff ff 	mov	qword ptr [rbp - 288], rax
ffffffff80007d1e: eb 0b                	jmp	0xffffffff80007d2b <_ZN5alloc5boxed16Box$LT$T$C$A$GT$17try_new_uninit_in17h96a3fceff29007fdE+0x18b>
ffffffff80007d20: 48 c7 85 d8 fe ff ff 00 00 00 00     	mov	qword ptr [rbp - 296], 0
ffffffff80007d2b: 48 8b 85 d8 fe ff ff 	mov	rax, qword ptr [rbp - 296]
ffffffff80007d32: 48 8b 95 e0 fe ff ff 	mov	rdx, qword ptr [rbp - 288]
ffffffff80007d39: 48 81 c4 30 01 00 00 	add	rsp, 304
ffffffff80007d40: 5d                   	pop	rbp
ffffffff80007d41: c3                   	ret
ffffffff80007d42: cc                   	int3
ffffffff80007d43: cc                   	int3
ffffffff80007d44: cc                   	int3
ffffffff80007d45: cc                   	int3
ffffffff80007d46: cc                   	int3
ffffffff80007d47: cc                   	int3
ffffffff80007d48: cc                   	int3
ffffffff80007d49: cc                   	int3
ffffffff80007d4a: cc                   	int3
ffffffff80007d4b: cc                   	int3
ffffffff80007d4c: cc                   	int3
ffffffff80007d4d: cc                   	int3
ffffffff80007d4e: cc                   	int3
ffffffff80007d4f: cc                   	int3

ffffffff80007d50 <_ZN5alloc5boxed16Box$LT$T$C$A$GT$4leak17h1acaab4f4e673b7cE>:
ffffffff80007d50: 55                   	push	rbp
ffffffff80007d51: 48 89 e5             	mov	rbp, rsp
ffffffff80007d54: 48 83 ec 48          	sub	rsp, 72
ffffffff80007d58: 48 89 7d c8          	mov	qword ptr [rbp - 56], rdi
ffffffff80007d5c: 48 89 75 d0          	mov	qword ptr [rbp - 48], rsi
ffffffff80007d60: 48 89 7d d8          	mov	qword ptr [rbp - 40], rdi
ffffffff80007d64: 48 89 75 e0          	mov	qword ptr [rbp - 32], rsi
ffffffff80007d68: 48 89 7d b8          	mov	qword ptr [rbp - 72], rdi
ffffffff80007d6c: 48 89 75 c0          	mov	qword ptr [rbp - 64], rsi
ffffffff80007d70: 48 8d 45 b8          	lea	rax, [rbp - 72]
ffffffff80007d74: 48 89 45 e8          	mov	qword ptr [rbp - 24], rax
ffffffff80007d78: 48 8b 45 b8          	mov	rax, qword ptr [rbp - 72]
ffffffff80007d7c: 48 89 45 f0          	mov	qword ptr [rbp - 16], rax
ffffffff80007d80: 48 89 45 f8          	mov	qword ptr [rbp - 8], rax
ffffffff80007d84: 48 83 c4 48          	add	rsp, 72
ffffffff80007d88: 5d                   	pop	rbp
ffffffff80007d89: c3                   	ret
ffffffff80007d8a: cc                   	int3
ffffffff80007d8b: cc                   	int3
ffffffff80007d8c: cc                   	int3
ffffffff80007d8d: cc                   	int3
ffffffff80007d8e: cc                   	int3
ffffffff80007d8f: cc                   	int3

ffffffff80007d90 <_ZN5alloc5boxed16Box$LT$T$C$A$GT$4leak17h3d60e18b35b1a275E>:
ffffffff80007d90: 55                   	push	rbp
ffffffff80007d91: 48 89 e5             	mov	rbp, rsp
ffffffff80007d94: 48 83 ec 30          	sub	rsp, 48
ffffffff80007d98: 48 89 7d d8          	mov	qword ptr [rbp - 40], rdi
ffffffff80007d9c: 48 89 7d e0          	mov	qword ptr [rbp - 32], rdi
ffffffff80007da0: 48 89 7d d0          	mov	qword ptr [rbp - 48], rdi
ffffffff80007da4: 48 8d 45 d0          	lea	rax, [rbp - 48]
ffffffff80007da8: 48 89 45 e8          	mov	qword ptr [rbp - 24], rax
ffffffff80007dac: 48 8b 45 d0          	mov	rax, qword ptr [rbp - 48]
ffffffff80007db0: 48 89 45 f0          	mov	qword ptr [rbp - 16], rax
ffffffff80007db4: 48 89 45 f8          	mov	qword ptr [rbp - 8], rax
ffffffff80007db8: 48 83 c4 30          	add	rsp, 48
ffffffff80007dbc: 5d                   	pop	rbp
ffffffff80007dbd: c3                   	ret
ffffffff80007dbe: cc                   	int3
ffffffff80007dbf: cc                   	int3

ffffffff80007dc0 <_ZN5alloc5boxed16Box$LT$T$C$A$GT$4leak17hdf81b1e76f694c98E>:
ffffffff80007dc0: 55                   	push	rbp
ffffffff80007dc1: 48 89 e5             	mov	rbp, rsp
ffffffff80007dc4: 48 83 ec 48          	sub	rsp, 72
ffffffff80007dc8: 48 89 7d c8          	mov	qword ptr [rbp - 56], rdi
ffffffff80007dcc: 48 89 75 d0          	mov	qword ptr [rbp - 48], rsi
ffffffff80007dd0: 48 89 7d d8          	mov	qword ptr [rbp - 40], rdi
ffffffff80007dd4: 48 89 75 e0          	mov	qword ptr [rbp - 32], rsi
ffffffff80007dd8: 48 89 7d b8          	mov	qword ptr [rbp - 72], rdi
ffffffff80007ddc: 48 89 75 c0          	mov	qword ptr [rbp - 64], rsi
ffffffff80007de0: 48 8d 45 b8          	lea	rax, [rbp - 72]
ffffffff80007de4: 48 89 45 e8          	mov	qword ptr [rbp - 24], rax
ffffffff80007de8: 48 8b 45 b8          	mov	rax, qword ptr [rbp - 72]
ffffffff80007dec: 48 89 45 f0          	mov	qword ptr [rbp - 16], rax
ffffffff80007df0: 48 89 45 f8          	mov	qword ptr [rbp - 8], rax
ffffffff80007df4: 48 83 c4 48          	add	rsp, 72
ffffffff80007df8: 5d                   	pop	rbp
ffffffff80007df9: c3                   	ret
ffffffff80007dfa: cc                   	int3
ffffffff80007dfb: cc                   	int3
ffffffff80007dfc: cc                   	int3
ffffffff80007dfd: cc                   	int3
ffffffff80007dfe: cc                   	int3
ffffffff80007dff: cc                   	int3

ffffffff80007e00 <_ZN5alloc5boxed16Box$LT$T$C$A$GT$6new_in17hee856acfc4f54663E>:
ffffffff80007e00: 55                   	push	rbp
ffffffff80007e01: 48 89 e5             	mov	rbp, rsp
ffffffff80007e04: 48 81 e4 00 f0 ff ff 	and	rsp, -4096
ffffffff80007e0b: b8 00 40 00 00       	mov	eax, 16384
ffffffff80007e10: e8 57 81 00 00       	call	0xffffffff8000ff6c <__rust_probestack>
ffffffff80007e15: 48 29 c4             	sub	rsp, rax
ffffffff80007e18: 48 89 b4 24 c0 0f 00 00      	mov	qword ptr [rsp + 4032], rsi
ffffffff80007e20: 48 89 f8             	mov	rax, rdi
ffffffff80007e23: 48 8b bc 24 c0 0f 00 00      	mov	rdi, qword ptr [rsp + 4032]
ffffffff80007e2b: 48 89 84 24 c8 0f 00 00      	mov	qword ptr [rsp + 4040], rax
ffffffff80007e33: 48 89 bc 24 c0 3f 00 00      	mov	qword ptr [rsp + 16320], rdi
ffffffff80007e3b: e8 d0 fc ff ff       	call	0xffffffff80007b10 <_ZN5alloc5boxed16Box$LT$T$C$A$GT$13new_uninit_in17ha83790327858ff31E>
ffffffff80007e40: 48 8b b4 24 c8 0f 00 00      	mov	rsi, qword ptr [rsp + 4040]
ffffffff80007e48: 48 89 84 24 f0 0f 00 00      	mov	qword ptr [rsp + 4080], rax
ffffffff80007e50: 48 89 94 24 f8 0f 00 00      	mov	qword ptr [rsp + 4088], rdx
ffffffff80007e58: 48 89 84 24 c8 3f 00 00      	mov	qword ptr [rsp + 16328], rax
ffffffff80007e60: 48 89 94 24 d0 3f 00 00      	mov	qword ptr [rsp + 16336], rdx
ffffffff80007e68: 48 89 84 24 d8 3f 00 00      	mov	qword ptr [rsp + 16344], rax
ffffffff80007e70: 48 89 84 24 e0 3f 00 00      	mov	qword ptr [rsp + 16352], rax
ffffffff80007e78: 48 8d bc 24 00 10 00 00      	lea	rdi, [rsp + 4096]
ffffffff80007e80: 48 89 bc 24 d0 0f 00 00      	mov	qword ptr [rsp + 4048], rdi
ffffffff80007e88: ba 00 10 00 00       	mov	edx, 4096
ffffffff80007e8d: 48 89 94 24 e0 0f 00 00      	mov	qword ptr [rsp + 4064], rdx
ffffffff80007e95: 48 8b 05 ac a2 00 00 	mov	rax, qword ptr [rip + 41644] # 0xffffffff80012148 <xr6aouzjkjmurg0+0xffffffff80012148>
ffffffff80007e9c: 48 89 84 24 e8 0f 00 00      	mov	qword ptr [rsp + 4072], rax
ffffffff80007ea4: ff d0                	call	rax
ffffffff80007ea6: 48 8b b4 24 d0 0f 00 00      	mov	rsi, qword ptr [rsp + 4048]
ffffffff80007eae: 48 8b 94 24 e0 0f 00 00      	mov	rdx, qword ptr [rsp + 4064]
ffffffff80007eb6: 48 8b 8c 24 f0 0f 00 00      	mov	rcx, qword ptr [rsp + 4080]
ffffffff80007ebe: 48 8b 84 24 e8 0f 00 00      	mov	rax, qword ptr [rsp + 4072]
ffffffff80007ec6: 48 89 8c 24 e8 3f 00 00      	mov	qword ptr [rsp + 16360], rcx
ffffffff80007ece: 48 8d bc 24 00 20 00 00      	lea	rdi, [rsp + 8192]
ffffffff80007ed6: 48 89 bc 24 d8 0f 00 00      	mov	qword ptr [rsp + 4056], rdi
ffffffff80007ede: ff d0                	call	rax
ffffffff80007ee0: 48 8b b4 24 d8 0f 00 00      	mov	rsi, qword ptr [rsp + 4056]
ffffffff80007ee8: 48 8b 94 24 e0 0f 00 00      	mov	rdx, qword ptr [rsp + 4064]
ffffffff80007ef0: 48 8b bc 24 f0 0f 00 00      	mov	rdi, qword ptr [rsp + 4080]
ffffffff80007ef8: 48 8b 84 24 e8 0f 00 00      	mov	rax, qword ptr [rsp + 4072]
ffffffff80007f00: ff d0                	call	rax
ffffffff80007f02: 48 8b bc 24 f0 0f 00 00      	mov	rdi, qword ptr [rsp + 4080]
ffffffff80007f0a: 48 8b b4 24 f8 0f 00 00      	mov	rsi, qword ptr [rsp + 4088]
ffffffff80007f12: e8 09 00 00 00       	call	0xffffffff80007f20 <_ZN5alloc5boxed60Box$LT$core..mem..maybe_uninit..MaybeUninit$LT$T$GT$$C$A$GT$11assume_init17h7f1d5d262e7716caE>
ffffffff80007f17: 48 89 ec             	mov	rsp, rbp
ffffffff80007f1a: 5d                   	pop	rbp
ffffffff80007f1b: c3                   	ret
ffffffff80007f1c: cc                   	int3
ffffffff80007f1d: cc                   	int3
ffffffff80007f1e: cc                   	int3
ffffffff80007f1f: cc                   	int3

ffffffff80007f20 <_ZN5alloc5boxed60Box$LT$core..mem..maybe_uninit..MaybeUninit$LT$T$GT$$C$A$GT$11assume_init17h7f1d5d262e7716caE>:
ffffffff80007f20: 55                   	push	rbp
ffffffff80007f21: 48 89 e5             	mov	rbp, rsp
ffffffff80007f24: 48 81 ec a0 00 00 00 	sub	rsp, 160
ffffffff80007f2b: 48 89 7d 90          	mov	qword ptr [rbp - 112], rdi
ffffffff80007f2f: 48 89 75 98          	mov	qword ptr [rbp - 104], rsi
ffffffff80007f33: 48 89 7d a0          	mov	qword ptr [rbp - 96], rdi
ffffffff80007f37: 48 89 75 a8          	mov	qword ptr [rbp - 88], rsi
ffffffff80007f3b: e8 40 fb ff ff       	call	0xffffffff80007a80 <_ZN5alloc5boxed16Box$LT$T$C$A$GT$11into_unique17ha9c1c32b16896ce8E>
ffffffff80007f40: 48 89 45 b0          	mov	qword ptr [rbp - 80], rax
ffffffff80007f44: 48 89 55 b8          	mov	qword ptr [rbp - 72], rdx
ffffffff80007f48: 48 89 45 c0          	mov	qword ptr [rbp - 64], rax
ffffffff80007f4c: 48 89 45 c8          	mov	qword ptr [rbp - 56], rax
ffffffff80007f50: 48 89 85 70 ff ff ff 	mov	qword ptr [rbp - 144], rax
ffffffff80007f57: 48 89 95 78 ff ff ff 	mov	qword ptr [rbp - 136], rdx
ffffffff80007f5e: 48 8b 8d 70 ff ff ff 	mov	rcx, qword ptr [rbp - 144]
ffffffff80007f65: 48 89 4d d0          	mov	qword ptr [rbp - 48], rcx
ffffffff80007f69: 48 8b 85 78 ff ff ff 	mov	rax, qword ptr [rbp - 136]
ffffffff80007f70: 48 89 45 d8          	mov	qword ptr [rbp - 40], rax
ffffffff80007f74: 48 89 4d e0          	mov	qword ptr [rbp - 32], rcx
ffffffff80007f78: 48 89 45 e8          	mov	qword ptr [rbp - 24], rax
ffffffff80007f7c: 48 89 4d f0          	mov	qword ptr [rbp - 16], rcx
ffffffff80007f80: 48 89 4d f8          	mov	qword ptr [rbp - 8], rcx
ffffffff80007f84: 48 89 4d 88          	mov	qword ptr [rbp - 120], rcx
ffffffff80007f88: 48 8b 4d 88          	mov	rcx, qword ptr [rbp - 120]
ffffffff80007f8c: 48 89 4d 80          	mov	qword ptr [rbp - 128], rcx
ffffffff80007f90: 48 8b 4d 80          	mov	rcx, qword ptr [rbp - 128]
ffffffff80007f94: 48 89 8d 60 ff ff ff 	mov	qword ptr [rbp - 160], rcx
ffffffff80007f9b: 48 89 85 68 ff ff ff 	mov	qword ptr [rbp - 152], rax
ffffffff80007fa2: 48 8b 85 60 ff ff ff 	mov	rax, qword ptr [rbp - 160]
ffffffff80007fa9: 48 8b 95 68 ff ff ff 	mov	rdx, qword ptr [rbp - 152]
ffffffff80007fb0: 48 81 c4 a0 00 00 00 	add	rsp, 160
ffffffff80007fb7: 5d                   	pop	rbp
ffffffff80007fb8: c3                   	ret
ffffffff80007fb9: cc                   	int3
ffffffff80007fba: cc                   	int3
ffffffff80007fbb: cc                   	int3
ffffffff80007fbc: cc                   	int3
ffffffff80007fbd: cc                   	int3
ffffffff80007fbe: cc                   	int3
ffffffff80007fbf: cc                   	int3

ffffffff80007fc0 <_ZN4core6result19Result$LT$T$C$E$GT$5is_ok17h9f7f9a2eecf82cabE>:
ffffffff80007fc0: 55                   	push	rbp
ffffffff80007fc1: 48 89 e5             	mov	rbp, rsp
ffffffff80007fc4: 48 83 ec 10          	sub	rsp, 16
ffffffff80007fc8: 48 89 7d f8          	mov	qword ptr [rbp - 8], rdi
ffffffff80007fcc: 8a 07                	mov	al, byte ptr [rdi]
ffffffff80007fce: 24 01                	and	al, 1
ffffffff80007fd0: 0f b6 c0             	movzx	eax, al
ffffffff80007fd3: 48 83 f8 00          	cmp	rax, 0
ffffffff80007fd7: 75 06                	jne	0xffffffff80007fdf <_ZN4core6result19Result$LT$T$C$E$GT$5is_ok17h9f7f9a2eecf82cabE+0x1f>
ffffffff80007fd9: c6 45 f7 01          	mov	byte ptr [rbp - 9], 1
ffffffff80007fdd: eb 04                	jmp	0xffffffff80007fe3 <_ZN4core6result19Result$LT$T$C$E$GT$5is_ok17h9f7f9a2eecf82cabE+0x23>
ffffffff80007fdf: c6 45 f7 00          	mov	byte ptr [rbp - 9], 0
ffffffff80007fe3: 8a 45 f7             	mov	al, byte ptr [rbp - 9]
ffffffff80007fe6: 24 01                	and	al, 1
ffffffff80007fe8: 0f b6 c0             	movzx	eax, al
ffffffff80007feb: 48 83 c4 10          	add	rsp, 16
ffffffff80007fef: 5d                   	pop	rbp
ffffffff80007ff0: c3                   	ret
ffffffff80007ff1: cc                   	int3
ffffffff80007ff2: cc                   	int3
ffffffff80007ff3: cc                   	int3
ffffffff80007ff4: cc                   	int3
ffffffff80007ff5: cc                   	int3
ffffffff80007ff6: cc                   	int3
ffffffff80007ff7: cc                   	int3
ffffffff80007ff8: cc                   	int3
ffffffff80007ff9: cc                   	int3
ffffffff80007ffa: cc                   	int3
ffffffff80007ffb: cc                   	int3
ffffffff80007ffc: cc                   	int3
ffffffff80007ffd: cc                   	int3
ffffffff80007ffe: cc                   	int3
ffffffff80007fff: cc                   	int3

ffffffff80008000 <_ZN4core6result19Result$LT$T$C$E$GT$6unwrap17h6e6b20e04cb5ca8cE>:
ffffffff80008000: 55                   	push	rbp
ffffffff80008001: 48 89 e5             	mov	rbp, rsp
ffffffff80008004: 48 83 ec 30          	sub	rsp, 48
ffffffff80008008: 48 89 75 d0          	mov	qword ptr [rbp - 48], rsi
ffffffff8000800c: 48 89 7d d8          	mov	qword ptr [rbp - 40], rdi
ffffffff80008010: 48 83 3f 00          	cmp	qword ptr [rdi], 0
ffffffff80008014: 75 1a                	jne	0xffffffff80008030 <_ZN4core6result19Result$LT$T$C$E$GT$6unwrap17h6e6b20e04cb5ca8cE+0x30>
ffffffff80008016: 48 8b 4d d8          	mov	rcx, qword ptr [rbp - 40]
ffffffff8000801a: 48 8b 41 08          	mov	rax, qword ptr [rcx + 8]
ffffffff8000801e: 48 8b 51 10          	mov	rdx, qword ptr [rcx + 16]
ffffffff80008022: 48 89 45 f0          	mov	qword ptr [rbp - 16], rax
ffffffff80008026: 48 89 55 f8          	mov	qword ptr [rbp - 8], rdx
ffffffff8000802a: 48 83 c4 30          	add	rsp, 48
ffffffff8000802e: 5d                   	pop	rbp
ffffffff8000802f: c3                   	ret
ffffffff80008030: 4c 8b 45 d0          	mov	r8, qword ptr [rbp - 48]
ffffffff80008034: 48 8b 4d d8          	mov	rcx, qword ptr [rbp - 40]
ffffffff80008038: 48 8b 41 08          	mov	rax, qword ptr [rcx + 8]
ffffffff8000803c: 48 8b 49 10          	mov	rcx, qword ptr [rcx + 16]
ffffffff80008040: 48 89 4d e8          	mov	qword ptr [rbp - 24], rcx
ffffffff80008044: 48 89 45 e0          	mov	qword ptr [rbp - 32], rax
ffffffff80008048: 48 8d 3d 0d 9e ff ff 	lea	rdi, [rip - 25075]      # 0xffffffff80001e5c <str.2+0x1dc>
ffffffff8000804f: 48 8d 0d 3a 97 00 00 	lea	rcx, [rip + 38714]      # 0xffffffff80011790 <xr6aouzjkjmurg0+0xffffffff80011790>
ffffffff80008056: 48 8b 05 f3 a0 00 00 	mov	rax, qword ptr [rip + 41203] # 0xffffffff80012150 <xr6aouzjkjmurg0+0xffffffff80012150>
ffffffff8000805d: be 2b 00 00 00       	mov	esi, 43
ffffffff80008062: 48 8d 55 e0          	lea	rdx, [rbp - 32]
ffffffff80008066: ff d0                	call	rax
ffffffff80008068: 0f 0b                	ud2
ffffffff8000806a: cc                   	int3
ffffffff8000806b: cc                   	int3
ffffffff8000806c: cc                   	int3
ffffffff8000806d: cc                   	int3
ffffffff8000806e: cc                   	int3
ffffffff8000806f: cc                   	int3

ffffffff80008070 <_ZN4core6result19Result$LT$T$C$E$GT$6unwrap17h6e6d08db786c515dE>:
ffffffff80008070: 55                   	push	rbp
ffffffff80008071: 48 89 e5             	mov	rbp, rsp
ffffffff80008074: 48 83 ec 20          	sub	rsp, 32
ffffffff80008078: 48 89 75 e0          	mov	qword ptr [rbp - 32], rsi
ffffffff8000807c: 40 88 f8             	mov	al, dil
ffffffff8000807f: 24 01                	and	al, 1
ffffffff80008081: 88 45 ef             	mov	byte ptr [rbp - 17], al
ffffffff80008084: 8a 45 ef             	mov	al, byte ptr [rbp - 17]
ffffffff80008087: 24 01                	and	al, 1
ffffffff80008089: 0f b6 c0             	movzx	eax, al
ffffffff8000808c: 48 83 f8 00          	cmp	rax, 0
ffffffff80008090: 75 06                	jne	0xffffffff80008098 <_ZN4core6result19Result$LT$T$C$E$GT$6unwrap17h6e6d08db786c515dE+0x28>
ffffffff80008092: 48 83 c4 20          	add	rsp, 32
ffffffff80008096: 5d                   	pop	rbp
ffffffff80008097: c3                   	ret
ffffffff80008098: 4c 8b 45 e0          	mov	r8, qword ptr [rbp - 32]
ffffffff8000809c: 48 8d 3d b9 9d ff ff 	lea	rdi, [rip - 25159]      # 0xffffffff80001e5c <str.2+0x1dc>
ffffffff800080a3: 48 8d 0d 06 97 00 00 	lea	rcx, [rip + 38662]      # 0xffffffff800117b0 <xr6aouzjkjmurg0+0xffffffff800117b0>
ffffffff800080aa: 48 8b 05 9f a0 00 00 	mov	rax, qword ptr [rip + 41119] # 0xffffffff80012150 <xr6aouzjkjmurg0+0xffffffff80012150>
ffffffff800080b1: be 2b 00 00 00       	mov	esi, 43
ffffffff800080b6: 48 8d 55 f0          	lea	rdx, [rbp - 16]
ffffffff800080ba: ff d0                	call	rax
ffffffff800080bc: 0f 0b                	ud2
ffffffff800080be: cc                   	int3
ffffffff800080bf: cc                   	int3

ffffffff800080c0 <_ZN44_$LT$$RF$T$u20$as$u20$core..fmt..Display$GT$3fmt17hafac2a163a25c5b6E>:
ffffffff800080c0: 55                   	push	rbp
ffffffff800080c1: 48 89 e5             	mov	rbp, rsp
ffffffff800080c4: 48 83 ec 10          	sub	rsp, 16
ffffffff800080c8: 48 89 7d f0          	mov	qword ptr [rbp - 16], rdi
ffffffff800080cc: 48 89 75 f8          	mov	qword ptr [rbp - 8], rsi
ffffffff800080d0: 48 8b 3f             	mov	rdi, qword ptr [rdi]
ffffffff800080d3: 48 8b 05 7e a0 00 00 	mov	rax, qword ptr [rip + 41086] # 0xffffffff80012158 <xr6aouzjkjmurg0+0xffffffff80012158>
ffffffff800080da: ff d0                	call	rax
ffffffff800080dc: 24 01                	and	al, 1
ffffffff800080de: 0f b6 c0             	movzx	eax, al
ffffffff800080e1: 48 83 c4 10          	add	rsp, 16
ffffffff800080e5: 5d                   	pop	rbp
ffffffff800080e6: c3                   	ret
ffffffff800080e7: cc                   	int3
ffffffff800080e8: cc                   	int3
ffffffff800080e9: cc                   	int3
ffffffff800080ea: cc                   	int3
ffffffff800080eb: cc                   	int3
ffffffff800080ec: cc                   	int3
ffffffff800080ed: cc                   	int3
ffffffff800080ee: cc                   	int3
ffffffff800080ef: cc                   	int3

ffffffff800080f0 <_ZN3qos6limine18LiminePtr$LT$T$GT$3get17h3b78091b8e6b8e4cE>:
ffffffff800080f0: 55                   	push	rbp
ffffffff800080f1: 48 89 e5             	mov	rbp, rsp
ffffffff800080f4: 48 83 ec 30          	sub	rsp, 48
ffffffff800080f8: 48 89 7d d8          	mov	qword ptr [rbp - 40], rdi
ffffffff800080fc: 48 89 7d f8          	mov	qword ptr [rbp - 8], rdi
ffffffff80008100: 48 89 7d e0          	mov	qword ptr [rbp - 32], rdi
ffffffff80008104: 48 89 7d e8          	mov	qword ptr [rbp - 24], rdi
ffffffff80008108: 48 8b 07             	mov	rax, qword ptr [rdi]
ffffffff8000810b: 48 89 45 f0          	mov	qword ptr [rbp - 16], rax
ffffffff8000810f: 48 8b 7d f0          	mov	rdi, qword ptr [rbp - 16]
ffffffff80008113: e8 e8 1d 00 00       	call	0xffffffff80009f00 <_ZN4core6option15Option$LT$T$GT$3map17he176b287999c2f33E>
ffffffff80008118: 48 83 c4 30          	add	rsp, 48
ffffffff8000811c: 5d                   	pop	rbp
ffffffff8000811d: c3                   	ret
ffffffff8000811e: cc                   	int3
ffffffff8000811f: cc                   	int3

ffffffff80008120 <_ZN3qos6limine18LiminePtr$LT$T$GT$3get17h3decb96281c86c46E>:
ffffffff80008120: 55                   	push	rbp
ffffffff80008121: 48 89 e5             	mov	rbp, rsp
ffffffff80008124: 48 83 ec 30          	sub	rsp, 48
ffffffff80008128: 48 89 7d d8          	mov	qword ptr [rbp - 40], rdi
ffffffff8000812c: 48 89 7d f8          	mov	qword ptr [rbp - 8], rdi
ffffffff80008130: 48 89 7d e0          	mov	qword ptr [rbp - 32], rdi
ffffffff80008134: 48 89 7d e8          	mov	qword ptr [rbp - 24], rdi
ffffffff80008138: 48 8b 07             	mov	rax, qword ptr [rdi]
ffffffff8000813b: 48 89 45 f0          	mov	qword ptr [rbp - 16], rax
ffffffff8000813f: 48 8b 7d f0          	mov	rdi, qword ptr [rbp - 16]
ffffffff80008143: e8 68 1c 00 00       	call	0xffffffff80009db0 <_ZN4core6option15Option$LT$T$GT$3map17h77d3681668e7bdbfE>
ffffffff80008148: 48 83 c4 30          	add	rsp, 48
ffffffff8000814c: 5d                   	pop	rbp
ffffffff8000814d: c3                   	ret
ffffffff8000814e: cc                   	int3
ffffffff8000814f: cc                   	int3

ffffffff80008150 <_ZN3qos6limine18LiminePtr$LT$T$GT$3get17h4bdc0898c16ceb22E>:
ffffffff80008150: 55                   	push	rbp
ffffffff80008151: 48 89 e5             	mov	rbp, rsp
ffffffff80008154: 48 83 ec 30          	sub	rsp, 48
ffffffff80008158: 48 89 7d d8          	mov	qword ptr [rbp - 40], rdi
ffffffff8000815c: 48 89 7d f8          	mov	qword ptr [rbp - 8], rdi
ffffffff80008160: 48 89 7d e0          	mov	qword ptr [rbp - 32], rdi
ffffffff80008164: 48 89 7d e8          	mov	qword ptr [rbp - 24], rdi
ffffffff80008168: 48 8b 07             	mov	rax, qword ptr [rdi]
ffffffff8000816b: 48 89 45 f0          	mov	qword ptr [rbp - 16], rax
ffffffff8000816f: 48 8b 7d f0          	mov	rdi, qword ptr [rbp - 16]
ffffffff80008173: e8 18 1d 00 00       	call	0xffffffff80009e90 <_ZN4core6option15Option$LT$T$GT$3map17hda05e0329c654badE>
ffffffff80008178: 48 83 c4 30          	add	rsp, 48
ffffffff8000817c: 5d                   	pop	rbp
ffffffff8000817d: c3                   	ret
ffffffff8000817e: cc                   	int3
ffffffff8000817f: cc                   	int3

ffffffff80008180 <_ZN3qos6limine18LiminePtr$LT$T$GT$3get17h97b42e5753601f71E>:
ffffffff80008180: 55                   	push	rbp
ffffffff80008181: 48 89 e5             	mov	rbp, rsp
ffffffff80008184: 48 83 ec 30          	sub	rsp, 48
ffffffff80008188: 48 89 7d d8          	mov	qword ptr [rbp - 40], rdi
ffffffff8000818c: 48 89 7d f8          	mov	qword ptr [rbp - 8], rdi
ffffffff80008190: 48 89 7d e0          	mov	qword ptr [rbp - 32], rdi
ffffffff80008194: 48 89 7d e8          	mov	qword ptr [rbp - 24], rdi
ffffffff80008198: 48 8b 07             	mov	rax, qword ptr [rdi]
ffffffff8000819b: 48 89 45 f0          	mov	qword ptr [rbp - 16], rax
ffffffff8000819f: 48 8b 7d f0          	mov	rdi, qword ptr [rbp - 16]
ffffffff800081a3: e8 78 1c 00 00       	call	0xffffffff80009e20 <_ZN4core6option15Option$LT$T$GT$3map17haab17511d1aab030E>
ffffffff800081a8: 48 83 c4 30          	add	rsp, 48
ffffffff800081ac: 5d                   	pop	rbp
ffffffff800081ad: c3                   	ret
ffffffff800081ae: cc                   	int3
ffffffff800081af: cc                   	int3

ffffffff800081b0 <_ZN3qos6limine18LiminePtr$LT$T$GT$3get28_$u7b$$u7b$closure$u7d$$u7d$17h1ddc1a216915c09aE>:
ffffffff800081b0: 55                   	push	rbp
ffffffff800081b1: 48 89 e5             	mov	rbp, rsp
ffffffff800081b4: 48 83 ec 20          	sub	rsp, 32
ffffffff800081b8: 48 89 7d e0          	mov	qword ptr [rbp - 32], rdi
ffffffff800081bc: 48 8d 45 e0          	lea	rax, [rbp - 32]
ffffffff800081c0: 48 89 45 f0          	mov	qword ptr [rbp - 16], rax
ffffffff800081c4: 48 8b 45 e0          	mov	rax, qword ptr [rbp - 32]
ffffffff800081c8: 48 89 45 f8          	mov	qword ptr [rbp - 8], rax
ffffffff800081cc: 48 83 c4 20          	add	rsp, 32
ffffffff800081d0: 5d                   	pop	rbp
ffffffff800081d1: c3                   	ret
ffffffff800081d2: cc                   	int3
ffffffff800081d3: cc                   	int3
ffffffff800081d4: cc                   	int3
ffffffff800081d5: cc                   	int3
ffffffff800081d6: cc                   	int3
ffffffff800081d7: cc                   	int3
ffffffff800081d8: cc                   	int3
ffffffff800081d9: cc                   	int3
ffffffff800081da: cc                   	int3
ffffffff800081db: cc                   	int3
ffffffff800081dc: cc                   	int3
ffffffff800081dd: cc                   	int3
ffffffff800081de: cc                   	int3
ffffffff800081df: cc                   	int3

ffffffff800081e0 <_ZN3qos6limine18LiminePtr$LT$T$GT$3get28_$u7b$$u7b$closure$u7d$$u7d$17h7744237122776c29E>:
ffffffff800081e0: 55                   	push	rbp
ffffffff800081e1: 48 89 e5             	mov	rbp, rsp
ffffffff800081e4: 48 83 ec 20          	sub	rsp, 32
ffffffff800081e8: 48 89 7d e0          	mov	qword ptr [rbp - 32], rdi
ffffffff800081ec: 48 8d 45 e0          	lea	rax, [rbp - 32]
ffffffff800081f0: 48 89 45 f0          	mov	qword ptr [rbp - 16], rax
ffffffff800081f4: 48 8b 45 e0          	mov	rax, qword ptr [rbp - 32]
ffffffff800081f8: 48 89 45 f8          	mov	qword ptr [rbp - 8], rax
ffffffff800081fc: 48 83 c4 20          	add	rsp, 32
ffffffff80008200: 5d                   	pop	rbp
ffffffff80008201: c3                   	ret
ffffffff80008202: cc                   	int3
ffffffff80008203: cc                   	int3
ffffffff80008204: cc                   	int3
ffffffff80008205: cc                   	int3
ffffffff80008206: cc                   	int3
ffffffff80008207: cc                   	int3
ffffffff80008208: cc                   	int3
ffffffff80008209: cc                   	int3
ffffffff8000820a: cc                   	int3
ffffffff8000820b: cc                   	int3
ffffffff8000820c: cc                   	int3
ffffffff8000820d: cc                   	int3
ffffffff8000820e: cc                   	int3
ffffffff8000820f: cc                   	int3

ffffffff80008210 <_ZN3qos6limine18LiminePtr$LT$T$GT$3get28_$u7b$$u7b$closure$u7d$$u7d$17ha158af6b0290f401E>:
ffffffff80008210: 55                   	push	rbp
ffffffff80008211: 48 89 e5             	mov	rbp, rsp
ffffffff80008214: 48 83 ec 20          	sub	rsp, 32
ffffffff80008218: 48 89 7d e0          	mov	qword ptr [rbp - 32], rdi
ffffffff8000821c: 48 8d 45 e0          	lea	rax, [rbp - 32]
ffffffff80008220: 48 89 45 f0          	mov	qword ptr [rbp - 16], rax
ffffffff80008224: 48 8b 45 e0          	mov	rax, qword ptr [rbp - 32]
ffffffff80008228: 48 89 45 f8          	mov	qword ptr [rbp - 8], rax
ffffffff8000822c: 48 83 c4 20          	add	rsp, 32
ffffffff80008230: 5d                   	pop	rbp
ffffffff80008231: c3                   	ret
ffffffff80008232: cc                   	int3
ffffffff80008233: cc                   	int3
ffffffff80008234: cc                   	int3
ffffffff80008235: cc                   	int3
ffffffff80008236: cc                   	int3
ffffffff80008237: cc                   	int3
ffffffff80008238: cc                   	int3
ffffffff80008239: cc                   	int3
ffffffff8000823a: cc                   	int3
ffffffff8000823b: cc                   	int3
ffffffff8000823c: cc                   	int3
ffffffff8000823d: cc                   	int3
ffffffff8000823e: cc                   	int3
ffffffff8000823f: cc                   	int3

ffffffff80008240 <_ZN3qos6limine18LiminePtr$LT$T$GT$3get28_$u7b$$u7b$closure$u7d$$u7d$17ha19b7cb5102a6dd0E>:
ffffffff80008240: 55                   	push	rbp
ffffffff80008241: 48 89 e5             	mov	rbp, rsp
ffffffff80008244: 48 83 ec 20          	sub	rsp, 32
ffffffff80008248: 48 89 7d e0          	mov	qword ptr [rbp - 32], rdi
ffffffff8000824c: 48 8d 45 e0          	lea	rax, [rbp - 32]
ffffffff80008250: 48 89 45 f0          	mov	qword ptr [rbp - 16], rax
ffffffff80008254: 48 8b 45 e0          	mov	rax, qword ptr [rbp - 32]
ffffffff80008258: 48 89 45 f8          	mov	qword ptr [rbp - 8], rax
ffffffff8000825c: 48 83 c4 20          	add	rsp, 32
ffffffff80008260: 5d                   	pop	rbp
ffffffff80008261: c3                   	ret
ffffffff80008262: cc                   	int3
ffffffff80008263: cc                   	int3
ffffffff80008264: cc                   	int3
ffffffff80008265: cc                   	int3
ffffffff80008266: cc                   	int3
ffffffff80008267: cc                   	int3
ffffffff80008268: cc                   	int3
ffffffff80008269: cc                   	int3
ffffffff8000826a: cc                   	int3
ffffffff8000826b: cc                   	int3
ffffffff8000826c: cc                   	int3
ffffffff8000826d: cc                   	int3
ffffffff8000826e: cc                   	int3
ffffffff8000826f: cc                   	int3

ffffffff80008270 <_ZN58_$LT$qos..paging..VirtAddr$u20$as$u20$core..fmt..Debug$GT$3fmt17h4f66bd878d1827e7E>:
ffffffff80008270: 55                   	push	rbp
ffffffff80008271: 48 89 e5             	mov	rbp, rsp
ffffffff80008274: 48 83 ec 60          	sub	rsp, 96
ffffffff80008278: 48 89 75 a8          	mov	qword ptr [rbp - 88], rsi
ffffffff8000827c: 48 89 7d f0          	mov	qword ptr [rbp - 16], rdi
ffffffff80008280: 48 89 75 f8          	mov	qword ptr [rbp - 8], rsi
ffffffff80008284: e8 77 29 00 00       	call	0xffffffff8000ac00 <_ZN4core3fmt10ArgumentV113new_upper_hex17h175853aa782ea5a2E>
ffffffff80008289: 48 89 45 e0          	mov	qword ptr [rbp - 32], rax
ffffffff8000828d: 48 89 55 e8          	mov	qword ptr [rbp - 24], rdx
ffffffff80008291: 48 89 e0             	mov	rax, rsp
ffffffff80008294: 48 c7 00 01 00 00 00 	mov	qword ptr [rax], 1
ffffffff8000829b: 48 8d 35 2e 95 00 00 	lea	rsi, [rip + 38190]      # 0xffffffff800117d0 <xr6aouzjkjmurg0+0xffffffff800117d0>
ffffffff800082a2: 4c 8d 0d df 9b ff ff 	lea	r9, [rip - 25633]       # 0xffffffff80001e88 <str.2+0x208>
ffffffff800082a9: 48 8d 7d b0          	lea	rdi, [rbp - 80]
ffffffff800082ad: 48 8d 4d e0          	lea	rcx, [rbp - 32]
ffffffff800082b1: 41 b8 01 00 00 00    	mov	r8d, 1
ffffffff800082b7: 4c 89 c2             	mov	rdx, r8
ffffffff800082ba: e8 d1 d8 ff ff       	call	0xffffffff80005b90 <_ZN4core3fmt9Arguments16new_v1_formatted17h36254c4d34d32351E>
ffffffff800082bf: 48 8b 7d a8          	mov	rdi, qword ptr [rbp - 88]
ffffffff800082c3: 48 8b 05 96 9e 00 00 	mov	rax, qword ptr [rip + 40598] # 0xffffffff80012160 <xr6aouzjkjmurg0+0xffffffff80012160>
ffffffff800082ca: 48 8d 75 b0          	lea	rsi, [rbp - 80]
ffffffff800082ce: ff d0                	call	rax
ffffffff800082d0: 24 01                	and	al, 1
ffffffff800082d2: 0f b6 c0             	movzx	eax, al
ffffffff800082d5: 48 83 c4 60          	add	rsp, 96
ffffffff800082d9: 5d                   	pop	rbp
ffffffff800082da: c3                   	ret
ffffffff800082db: cc                   	int3
ffffffff800082dc: cc                   	int3
ffffffff800082dd: cc                   	int3
ffffffff800082de: cc                   	int3
ffffffff800082df: cc                   	int3

ffffffff800082e0 <_ZN3qos6paging8VirtAddr3new17h2288e0c21e0de726E>:
ffffffff800082e0: 55                   	push	rbp
ffffffff800082e1: 48 89 e5             	mov	rbp, rsp
ffffffff800082e4: 48 83 ec 10          	sub	rsp, 16
ffffffff800082e8: 48 89 7d f8          	mov	qword ptr [rbp - 8], rdi
ffffffff800082ec: 48 89 7d f0          	mov	qword ptr [rbp - 16], rdi
ffffffff800082f0: 48 8b 45 f0          	mov	rax, qword ptr [rbp - 16]
ffffffff800082f4: 48 83 c4 10          	add	rsp, 16
ffffffff800082f8: 5d                   	pop	rbp
ffffffff800082f9: c3                   	ret
ffffffff800082fa: cc                   	int3
ffffffff800082fb: cc                   	int3
ffffffff800082fc: cc                   	int3
ffffffff800082fd: cc                   	int3
ffffffff800082fe: cc                   	int3
ffffffff800082ff: cc                   	int3

ffffffff80008300 <_ZN3qos6paging8VirtAddr8as_usize17h475f889e4233a8dfE>:
ffffffff80008300: 55                   	push	rbp
ffffffff80008301: 48 89 e5             	mov	rbp, rsp
ffffffff80008304: 50                   	push	rax
ffffffff80008305: 48 89 7d f8          	mov	qword ptr [rbp - 8], rdi
ffffffff80008309: 48 8b 07             	mov	rax, qword ptr [rdi]
ffffffff8000830c: 48 83 c4 08          	add	rsp, 8
ffffffff80008310: 5d                   	pop	rbp
ffffffff80008311: c3                   	ret
ffffffff80008312: cc                   	int3
ffffffff80008313: cc                   	int3
ffffffff80008314: cc                   	int3
ffffffff80008315: cc                   	int3
ffffffff80008316: cc                   	int3
ffffffff80008317: cc                   	int3
ffffffff80008318: cc                   	int3
ffffffff80008319: cc                   	int3
ffffffff8000831a: cc                   	int3
ffffffff8000831b: cc                   	int3
ffffffff8000831c: cc                   	int3
ffffffff8000831d: cc                   	int3
ffffffff8000831e: cc                   	int3
ffffffff8000831f: cc                   	int3

ffffffff80008320 <_ZN3qos6paging8VirtAddr7as_phys17h2ca0ecf7ad9c36e5E>:
ffffffff80008320: 55                   	push	rbp
ffffffff80008321: 48 89 e5             	mov	rbp, rsp
ffffffff80008324: 48 83 ec 10          	sub	rsp, 16
ffffffff80008328: 48 89 7d f8          	mov	qword ptr [rbp - 8], rdi
ffffffff8000832c: 48 8b 3f             	mov	rdi, qword ptr [rdi]
ffffffff8000832f: e8 ac 01 00 00       	call	0xffffffff800084e0 <_ZN90_$LT$qos..paging..PhysAddr$u20$as$u20$core..convert..From$LT$qos..paging..VirtAddr$GT$$GT$4from17h6a2429bb5988500dE>
ffffffff80008334: 48 83 c4 10          	add	rsp, 16
ffffffff80008338: 5d                   	pop	rbp
ffffffff80008339: c3                   	ret
ffffffff8000833a: cc                   	int3
ffffffff8000833b: cc                   	int3
ffffffff8000833c: cc                   	int3
ffffffff8000833d: cc                   	int3
ffffffff8000833e: cc                   	int3
ffffffff8000833f: cc                   	int3

ffffffff80008340 <_ZN90_$LT$qos..paging..VirtAddr$u20$as$u20$core..convert..From$LT$qos..paging..PhysAddr$GT$$GT$4from17hae4671897eb02fb0E>:
ffffffff80008340: 55                   	push	rbp
ffffffff80008341: 48 89 e5             	mov	rbp, rsp
ffffffff80008344: 48 83 ec 10          	sub	rsp, 16
ffffffff80008348: 48 89 7d f8          	mov	qword ptr [rbp - 8], rdi
ffffffff8000834c: 48 8b 05 b5 c0 00 00 	mov	rax, qword ptr [rip + 49333] # 0xffffffff80014408 <_ZN3qos5utils16HIGH_HALF_OFFSET17ha14ca552b1fcb086E>
ffffffff80008353: 48 01 c7             	add	rdi, rax
ffffffff80008356: 48 89 7d f0          	mov	qword ptr [rbp - 16], rdi
ffffffff8000835a: 0f 92 c0             	setb	al
ffffffff8000835d: a8 01                	test	al, 1
ffffffff8000835f: 75 0f                	jne	0xffffffff80008370 <_ZN90_$LT$qos..paging..VirtAddr$u20$as$u20$core..convert..From$LT$qos..paging..PhysAddr$GT$$GT$4from17hae4671897eb02fb0E+0x30>
ffffffff80008361: 48 8b 7d f0          	mov	rdi, qword ptr [rbp - 16]
ffffffff80008365: e8 76 ff ff ff       	call	0xffffffff800082e0 <_ZN3qos6paging8VirtAddr3new17h2288e0c21e0de726E>
ffffffff8000836a: 48 83 c4 10          	add	rsp, 16
ffffffff8000836e: 5d                   	pop	rbp
ffffffff8000836f: c3                   	ret
ffffffff80008370: 48 8d 3d 59 9b ff ff 	lea	rdi, [rip - 25767]      # 0xffffffff80001ed0 <str.0>
ffffffff80008377: 48 8d 15 62 94 00 00 	lea	rdx, [rip + 37986]      # 0xffffffff800117e0 <xr6aouzjkjmurg0+0xffffffff800117e0>
ffffffff8000837e: 48 8b 05 5b 9d 00 00 	mov	rax, qword ptr [rip + 40283] # 0xffffffff800120e0 <xr6aouzjkjmurg0+0xffffffff800120e0>
ffffffff80008385: be 1c 00 00 00       	mov	esi, 28
ffffffff8000838a: ff d0                	call	rax
ffffffff8000838c: 0f 0b                	ud2
ffffffff8000838e: cc                   	int3
ffffffff8000838f: cc                   	int3

ffffffff80008390 <_ZN58_$LT$qos..paging..PhysAddr$u20$as$u20$core..fmt..Debug$GT$3fmt17h1ee6ca0fb2ab6cf5E>:
ffffffff80008390: 55                   	push	rbp
ffffffff80008391: 48 89 e5             	mov	rbp, rsp
ffffffff80008394: 48 83 ec 60          	sub	rsp, 96
ffffffff80008398: 48 89 75 a8          	mov	qword ptr [rbp - 88], rsi
ffffffff8000839c: 48 89 7d f0          	mov	qword ptr [rbp - 16], rdi
ffffffff800083a0: 48 89 75 f8          	mov	qword ptr [rbp - 8], rsi
ffffffff800083a4: e8 57 28 00 00       	call	0xffffffff8000ac00 <_ZN4core3fmt10ArgumentV113new_upper_hex17h175853aa782ea5a2E>
ffffffff800083a9: 48 89 45 e0          	mov	qword ptr [rbp - 32], rax
ffffffff800083ad: 48 89 55 e8          	mov	qword ptr [rbp - 24], rdx
ffffffff800083b1: 48 89 e0             	mov	rax, rsp
ffffffff800083b4: 48 c7 00 01 00 00 00 	mov	qword ptr [rax], 1
ffffffff800083bb: 48 8d 35 0e 94 00 00 	lea	rsi, [rip + 37902]      # 0xffffffff800117d0 <xr6aouzjkjmurg0+0xffffffff800117d0>
ffffffff800083c2: 4c 8d 0d bf 9a ff ff 	lea	r9, [rip - 25921]       # 0xffffffff80001e88 <str.2+0x208>
ffffffff800083c9: 48 8d 7d b0          	lea	rdi, [rbp - 80]
ffffffff800083cd: 48 8d 4d e0          	lea	rcx, [rbp - 32]
ffffffff800083d1: 41 b8 01 00 00 00    	mov	r8d, 1
ffffffff800083d7: 4c 89 c2             	mov	rdx, r8
ffffffff800083da: e8 b1 d7 ff ff       	call	0xffffffff80005b90 <_ZN4core3fmt9Arguments16new_v1_formatted17h36254c4d34d32351E>
ffffffff800083df: 48 8b 7d a8          	mov	rdi, qword ptr [rbp - 88]
ffffffff800083e3: 48 8b 05 76 9d 00 00 	mov	rax, qword ptr [rip + 40310] # 0xffffffff80012160 <xr6aouzjkjmurg0+0xffffffff80012160>
ffffffff800083ea: 48 8d 75 b0          	lea	rsi, [rbp - 80]
ffffffff800083ee: ff d0                	call	rax
ffffffff800083f0: 24 01                	and	al, 1
ffffffff800083f2: 0f b6 c0             	movzx	eax, al
ffffffff800083f5: 48 83 c4 60          	add	rsp, 96
ffffffff800083f9: 5d                   	pop	rbp
ffffffff800083fa: c3                   	ret
ffffffff800083fb: cc                   	int3
ffffffff800083fc: cc                   	int3
ffffffff800083fd: cc                   	int3
ffffffff800083fe: cc                   	int3
ffffffff800083ff: cc                   	int3

ffffffff80008400 <_ZN3qos6paging8PhysAddr3new17h3ed0755b62cedce2E>:
ffffffff80008400: 55                   	push	rbp
ffffffff80008401: 48 89 e5             	mov	rbp, rsp
ffffffff80008404: 48 83 ec 10          	sub	rsp, 16
ffffffff80008408: 48 89 7d f8          	mov	qword ptr [rbp - 8], rdi
ffffffff8000840c: 48 89 7d f0          	mov	qword ptr [rbp - 16], rdi
ffffffff80008410: 48 8b 45 f0          	mov	rax, qword ptr [rbp - 16]
ffffffff80008414: 48 83 c4 10          	add	rsp, 16
ffffffff80008418: 5d                   	pop	rbp
ffffffff80008419: c3                   	ret
ffffffff8000841a: cc                   	int3
ffffffff8000841b: cc                   	int3
ffffffff8000841c: cc                   	int3
ffffffff8000841d: cc                   	int3
ffffffff8000841e: cc                   	int3
ffffffff8000841f: cc                   	int3

ffffffff80008420 <_ZN3qos6paging8PhysAddr8as_usize17h6cd190c5d5db75baE>:
ffffffff80008420: 55                   	push	rbp
ffffffff80008421: 48 89 e5             	mov	rbp, rsp
ffffffff80008424: 50                   	push	rax
ffffffff80008425: 48 89 7d f8          	mov	qword ptr [rbp - 8], rdi
ffffffff80008429: 48 8b 07             	mov	rax, qword ptr [rdi]
ffffffff8000842c: 48 83 c4 08          	add	rsp, 8
ffffffff80008430: 5d                   	pop	rbp
ffffffff80008431: c3                   	ret
ffffffff80008432: cc                   	int3
ffffffff80008433: cc                   	int3
ffffffff80008434: cc                   	int3
ffffffff80008435: cc                   	int3
ffffffff80008436: cc                   	int3
ffffffff80008437: cc                   	int3
ffffffff80008438: cc                   	int3
ffffffff80008439: cc                   	int3
ffffffff8000843a: cc                   	int3
ffffffff8000843b: cc                   	int3
ffffffff8000843c: cc                   	int3
ffffffff8000843d: cc                   	int3
ffffffff8000843e: cc                   	int3
ffffffff8000843f: cc                   	int3

ffffffff80008440 <_ZN3qos6paging8PhysAddr7as_virt17hc5964947f4fd1c8dE>:
ffffffff80008440: 55                   	push	rbp
ffffffff80008441: 48 89 e5             	mov	rbp, rsp
ffffffff80008444: 48 83 ec 10          	sub	rsp, 16
ffffffff80008448: 48 89 7d f8          	mov	qword ptr [rbp - 8], rdi
ffffffff8000844c: 48 8b 3f             	mov	rdi, qword ptr [rdi]
ffffffff8000844f: e8 ec fe ff ff       	call	0xffffffff80008340 <_ZN90_$LT$qos..paging..VirtAddr$u20$as$u20$core..convert..From$LT$qos..paging..PhysAddr$GT$$GT$4from17hae4671897eb02fb0E>
ffffffff80008454: 48 83 c4 10          	add	rsp, 16
ffffffff80008458: 5d                   	pop	rbp
ffffffff80008459: c3                   	ret
ffffffff8000845a: cc                   	int3
ffffffff8000845b: cc                   	int3
ffffffff8000845c: cc                   	int3
ffffffff8000845d: cc                   	int3
ffffffff8000845e: cc                   	int3
ffffffff8000845f: cc                   	int3

ffffffff80008460 <_ZN3qos6paging8PhysAddr6offset17h02f37f0cd81c9faaE>:
ffffffff80008460: 55                   	push	rbp
ffffffff80008461: 48 89 e5             	mov	rbp, rsp
ffffffff80008464: 48 83 ec 60          	sub	rsp, 96
ffffffff80008468: 48 89 7d e8          	mov	qword ptr [rbp - 24], rdi
ffffffff8000846c: 48 89 75 f0          	mov	qword ptr [rbp - 16], rsi
ffffffff80008470: 48 8b 3f             	mov	rdi, qword ptr [rdi]
ffffffff80008473: e8 d8 11 00 00       	call	0xffffffff80009650 <_ZN4core3num23_$LT$impl$u20$usize$GT$18checked_add_signed17h2b60b76746c094c7E>
ffffffff80008478: 48 89 55 b0          	mov	qword ptr [rbp - 80], rdx
ffffffff8000847c: 48 89 45 a8          	mov	qword ptr [rbp - 88], rax
ffffffff80008480: 48 83 7d a8 00       	cmp	qword ptr [rbp - 88], 0
ffffffff80008485: 75 3b                	jne	0xffffffff800084c2 <_ZN3qos6paging8PhysAddr6offset17h02f37f0cd81c9faaE+0x62>
ffffffff80008487: 48 8d 35 6a 93 00 00 	lea	rsi, [rip + 37738]      # 0xffffffff800117f8 <xr6aouzjkjmurg0+0xffffffff800117f8>
ffffffff8000848e: 48 8d 0d f3 99 ff ff 	lea	rcx, [rip - 26125]      # 0xffffffff80001e88 <str.2+0x208>
ffffffff80008495: 31 c0                	xor	eax, eax
ffffffff80008497: 41 89 c0             	mov	r8d, eax
ffffffff8000849a: 48 8d 7d b8          	lea	rdi, [rbp - 72]
ffffffff8000849e: 48 89 7d a0          	mov	qword ptr [rbp - 96], rdi
ffffffff800084a2: ba 01 00 00 00       	mov	edx, 1
ffffffff800084a7: e8 44 d7 ff ff       	call	0xffffffff80005bf0 <_ZN4core3fmt9Arguments6new_v117h4ece5d28621dbecaE>
ffffffff800084ac: 48 8b 7d a0          	mov	rdi, qword ptr [rbp - 96]
ffffffff800084b0: 48 8d 35 51 93 00 00 	lea	rsi, [rip + 37713]      # 0xffffffff80011808 <xr6aouzjkjmurg0+0xffffffff80011808>
ffffffff800084b7: 48 8b 05 62 9c 00 00 	mov	rax, qword ptr [rip + 40034] # 0xffffffff80012120 <xr6aouzjkjmurg0+0xffffffff80012120>
ffffffff800084be: ff d0                	call	rax
ffffffff800084c0: 0f 0b                	ud2
ffffffff800084c2: 48 8b 7d b0          	mov	rdi, qword ptr [rbp - 80]
ffffffff800084c6: 48 89 7d f8          	mov	qword ptr [rbp - 8], rdi
ffffffff800084ca: e8 31 ff ff ff       	call	0xffffffff80008400 <_ZN3qos6paging8PhysAddr3new17h3ed0755b62cedce2E>
ffffffff800084cf: 48 83 c4 60          	add	rsp, 96
ffffffff800084d3: 5d                   	pop	rbp
ffffffff800084d4: c3                   	ret
ffffffff800084d5: cc                   	int3
ffffffff800084d6: cc                   	int3
ffffffff800084d7: cc                   	int3
ffffffff800084d8: cc                   	int3
ffffffff800084d9: cc                   	int3
ffffffff800084da: cc                   	int3
ffffffff800084db: cc                   	int3
ffffffff800084dc: cc                   	int3
ffffffff800084dd: cc                   	int3
ffffffff800084de: cc                   	int3
ffffffff800084df: cc                   	int3

ffffffff800084e0 <_ZN90_$LT$qos..paging..PhysAddr$u20$as$u20$core..convert..From$LT$qos..paging..VirtAddr$GT$$GT$4from17h6a2429bb5988500dE>:
ffffffff800084e0: 55                   	push	rbp
ffffffff800084e1: 48 89 e5             	mov	rbp, rsp
ffffffff800084e4: 48 83 ec 10          	sub	rsp, 16
ffffffff800084e8: 48 89 7d f8          	mov	qword ptr [rbp - 8], rdi
ffffffff800084ec: 48 8b 05 15 bf 00 00 	mov	rax, qword ptr [rip + 48917] # 0xffffffff80014408 <_ZN3qos5utils16HIGH_HALF_OFFSET17ha14ca552b1fcb086E>
ffffffff800084f3: 48 89 f9             	mov	rcx, rdi
ffffffff800084f6: 48 29 c1             	sub	rcx, rax
ffffffff800084f9: 48 89 4d f0          	mov	qword ptr [rbp - 16], rcx
ffffffff800084fd: 48 39 c7             	cmp	rdi, rax
ffffffff80008500: 0f 92 c0             	setb	al
ffffffff80008503: a8 01                	test	al, 1
ffffffff80008505: 75 0f                	jne	0xffffffff80008516 <_ZN90_$LT$qos..paging..PhysAddr$u20$as$u20$core..convert..From$LT$qos..paging..VirtAddr$GT$$GT$4from17h6a2429bb5988500dE+0x36>
ffffffff80008507: 48 8b 7d f0          	mov	rdi, qword ptr [rbp - 16]
ffffffff8000850b: e8 f0 fe ff ff       	call	0xffffffff80008400 <_ZN3qos6paging8PhysAddr3new17h3ed0755b62cedce2E>
ffffffff80008510: 48 83 c4 10          	add	rsp, 16
ffffffff80008514: 5d                   	pop	rbp
ffffffff80008515: c3                   	ret
ffffffff80008516: 48 8d 3d f3 99 ff ff 	lea	rdi, [rip - 26125]      # 0xffffffff80001f10 <str.1>
ffffffff8000851d: 48 8d 15 fc 92 00 00 	lea	rdx, [rip + 37628]      # 0xffffffff80011820 <xr6aouzjkjmurg0+0xffffffff80011820>
ffffffff80008524: 48 8b 05 b5 9b 00 00 	mov	rax, qword ptr [rip + 39861] # 0xffffffff800120e0 <xr6aouzjkjmurg0+0xffffffff800120e0>
ffffffff8000852b: be 21 00 00 00       	mov	esi, 33
ffffffff80008530: ff d0                	call	rax
ffffffff80008532: 0f 0b                	ud2
ffffffff80008534: cc                   	int3
ffffffff80008535: cc                   	int3
ffffffff80008536: cc                   	int3
ffffffff80008537: cc                   	int3
ffffffff80008538: cc                   	int3
ffffffff80008539: cc                   	int3
ffffffff8000853a: cc                   	int3
ffffffff8000853b: cc                   	int3
ffffffff8000853c: cc                   	int3
ffffffff8000853d: cc                   	int3
ffffffff8000853e: cc                   	int3
ffffffff8000853f: cc                   	int3

ffffffff80008540 <_ZN3qos6paging9PageTable3new17hec5c4d7944dc65b2E>:
ffffffff80008540: 55                   	push	rbp
ffffffff80008541: 48 89 e5             	mov	rbp, rsp
ffffffff80008544: b8 30 10 00 00       	mov	eax, 4144
ffffffff80008549: e8 1e 7a 00 00       	call	0xffffffff8000ff6c <__rust_probestack>
ffffffff8000854e: 48 29 c4             	sub	rsp, rax
ffffffff80008551: 48 89 bd d8 ef ff ff 	mov	qword ptr [rbp - 4136], rdi
ffffffff80008558: 48 89 bd e0 ef ff ff 	mov	qword ptr [rbp - 4128], rdi
ffffffff8000855f: e8 9c 0b 00 00       	call	0xffffffff80009100 <_ZN3qos6paging14PageTableEntry3new17h80bb110a57e734fcE>
ffffffff80008564: 48 89 85 e8 ef ff ff 	mov	qword ptr [rbp - 4120], rax
ffffffff8000856b: 48 8d 85 00 f0 ff ff 	lea	rax, [rbp - 4096]
ffffffff80008572: 48 8d 8d 00 f0 ff ff 	lea	rcx, [rbp - 4096]
ffffffff80008579: 48 81 c1 00 10 00 00 	add	rcx, 4096
ffffffff80008580: 48 89 8d f0 ef ff ff 	mov	qword ptr [rbp - 4112], rcx
ffffffff80008587: 48 89 85 f8 ef ff ff 	mov	qword ptr [rbp - 4104], rax
ffffffff8000858e: 48 8b 8d f0 ef ff ff 	mov	rcx, qword ptr [rbp - 4112]
ffffffff80008595: 48 8b 85 f8 ef ff ff 	mov	rax, qword ptr [rbp - 4104]
ffffffff8000859c: 48 89 85 d0 ef ff ff 	mov	qword ptr [rbp - 4144], rax
ffffffff800085a3: 48 39 c8             	cmp	rax, rcx
ffffffff800085a6: 74 1e                	je	0xffffffff800085c6 <_ZN3qos6paging9PageTable3new17hec5c4d7944dc65b2E+0x86>
ffffffff800085a8: 48 8b 85 d0 ef ff ff 	mov	rax, qword ptr [rbp - 4144]
ffffffff800085af: 48 8b 8d e8 ef ff ff 	mov	rcx, qword ptr [rbp - 4120]
ffffffff800085b6: 48 89 08             	mov	qword ptr [rax], rcx
ffffffff800085b9: 48 83 c0 08          	add	rax, 8
ffffffff800085bd: 48 89 85 f8 ef ff ff 	mov	qword ptr [rbp - 4104], rax
ffffffff800085c4: eb c8                	jmp	0xffffffff8000858e <_ZN3qos6paging9PageTable3new17hec5c4d7944dc65b2E+0x4e>
ffffffff800085c6: 48 8b bd d8 ef ff ff 	mov	rdi, qword ptr [rbp - 4136]
ffffffff800085cd: 48 8d b5 00 f0 ff ff 	lea	rsi, [rbp - 4096]
ffffffff800085d4: ba 00 10 00 00       	mov	edx, 4096
ffffffff800085d9: 48 8b 05 68 9b 00 00 	mov	rax, qword ptr [rip + 39784] # 0xffffffff80012148 <xr6aouzjkjmurg0+0xffffffff80012148>
ffffffff800085e0: ff d0                	call	rax
ffffffff800085e2: 48 8b 85 e0 ef ff ff 	mov	rax, qword ptr [rbp - 4128]
ffffffff800085e9: 48 81 c4 30 10 00 00 	add	rsp, 4144
ffffffff800085f0: 5d                   	pop	rbp
ffffffff800085f1: c3                   	ret
ffffffff800085f2: cc                   	int3
ffffffff800085f3: cc                   	int3
ffffffff800085f4: cc                   	int3
ffffffff800085f5: cc                   	int3
ffffffff800085f6: cc                   	int3
ffffffff800085f7: cc                   	int3
ffffffff800085f8: cc                   	int3
ffffffff800085f9: cc                   	int3
ffffffff800085fa: cc                   	int3
ffffffff800085fb: cc                   	int3
ffffffff800085fc: cc                   	int3
ffffffff800085fd: cc                   	int3
ffffffff800085fe: cc                   	int3
ffffffff800085ff: cc                   	int3

ffffffff80008600 <_ZN3qos6paging9PageTable3map17hd52bdb474094c86bE>:
ffffffff80008600: 55                   	push	rbp
ffffffff80008601: 48 89 e5             	mov	rbp, rsp
ffffffff80008604: 48 81 e4 00 f0 ff ff 	and	rsp, -4096
ffffffff8000860b: b8 00 a0 00 00       	mov	eax, 40960
ffffffff80008610: e8 57 79 00 00       	call	0xffffffff8000ff6c <__rust_probestack>
ffffffff80008615: 48 29 c4             	sub	rsp, rax
ffffffff80008618: 48 89 bc 24 78 0e 00 00      	mov	qword ptr [rsp + 3704], rdi
ffffffff80008620: 48 89 b4 24 90 0e 00 00      	mov	qword ptr [rsp + 3728], rsi
ffffffff80008628: 48 89 94 24 98 0e 00 00      	mov	qword ptr [rsp + 3736], rdx
ffffffff80008630: 48 89 8c 24 a0 0e 00 00      	mov	qword ptr [rsp + 3744], rcx
ffffffff80008638: 48 89 bc 24 28 9f 00 00      	mov	qword ptr [rsp + 40744], rdi
ffffffff80008640: 48 8d bc 24 90 0e 00 00      	lea	rdi, [rsp + 3728]
ffffffff80008648: e8 d3 fd ff ff       	call	0xffffffff80008420 <_ZN3qos6paging8PhysAddr8as_usize17h6cd190c5d5db75baE>
ffffffff8000864d: 48 89 84 24 80 0e 00 00      	mov	qword ptr [rsp + 3712], rax
ffffffff80008655: 48 89 84 24 30 9f 00 00      	mov	qword ptr [rsp + 40752], rax
ffffffff8000865d: 48 8d bc 24 98 0e 00 00      	lea	rdi, [rsp + 3736]
ffffffff80008665: e8 96 fc ff ff       	call	0xffffffff80008300 <_ZN3qos6paging8VirtAddr8as_usize17h475f889e4233a8dfE>
ffffffff8000866a: 48 89 84 24 a8 0e 00 00      	mov	qword ptr [rsp + 3752], rax
ffffffff80008672: 48 8d bc 24 a0 0e 00 00      	lea	rdi, [rsp + 3744]
ffffffff8000867a: e8 81 0c 00 00       	call	0xffffffff80009300 <_ZN3qos6paging5Flags8get_huge17h7dcf34715b147623E>
ffffffff8000867f: 88 84 24 8f 0e 00 00 	mov	byte ptr [rsp + 3727], al
ffffffff80008686: 88 c1                	mov	cl, al
ffffffff80008688: 80 e1 01             	and	cl, 1
ffffffff8000868b: 88 8c 24 3f 9f 00 00 	mov	byte ptr [rsp + 40767], cl
ffffffff80008692: a8 01                	test	al, 1
ffffffff80008694: 75 7a                	jne	0xffffffff80008710 <_ZN3qos6paging9PageTable3map17hd52bdb474094c86bE+0x110>
ffffffff80008696: 48 8b 84 24 80 0e 00 00      	mov	rax, qword ptr [rsp + 3712]
ffffffff8000869e: 25 ff 0f 00 00       	and	eax, 4095
ffffffff800086a3: 48 89 84 24 60 0f 00 00      	mov	qword ptr [rsp + 3936], rax
ffffffff800086ab: 48 8d 84 24 60 0f 00 00      	lea	rax, [rsp + 3936]
ffffffff800086b3: 48 89 84 24 50 0f 00 00      	mov	qword ptr [rsp + 3920], rax
ffffffff800086bb: 48 8d 05 7e 98 ff ff 	lea	rax, [rip - 26498]      # 0xffffffff80001f40 <str.1+0x30>
ffffffff800086c2: 48 89 84 24 58 0f 00 00      	mov	qword ptr [rsp + 3928], rax
ffffffff800086ca: 48 8b 84 24 50 0f 00 00      	mov	rax, qword ptr [rsp + 3920]
ffffffff800086d2: 48 89 84 24 68 0e 00 00      	mov	qword ptr [rsp + 3688], rax
ffffffff800086da: 48 89 84 24 60 9f 00 00      	mov	qword ptr [rsp + 40800], rax
ffffffff800086e2: 48 8b 8c 24 58 0f 00 00      	mov	rcx, qword ptr [rsp + 3928]
ffffffff800086ea: 48 89 8c 24 70 0e 00 00      	mov	qword ptr [rsp + 3696], rcx
ffffffff800086f2: 48 89 8c 24 68 9f 00 00      	mov	qword ptr [rsp + 40808], rcx
ffffffff800086fa: 48 83 38 00          	cmp	qword ptr [rax], 0
ffffffff800086fe: 0f 94 c0             	sete	al
ffffffff80008701: 34 ff                	xor	al, -1
ffffffff80008703: a8 01                	test	al, 1
ffffffff80008705: 0f 85 dc 02 00 00    	jne	0xffffffff800089e7 <_ZN3qos6paging9PageTable3map17hd52bdb474094c86bE+0x3e7>
ffffffff8000870b: e9 61 02 00 00       	jmp	0xffffffff80008971 <_ZN3qos6paging9PageTable3map17hd52bdb474094c86bE+0x371>
ffffffff80008710: 48 8b 84 24 80 0e 00 00      	mov	rax, qword ptr [rsp + 3712]
ffffffff80008718: 25 ff ff 1f 00       	and	eax, 2097151
ffffffff8000871d: 48 89 84 24 c0 0e 00 00      	mov	qword ptr [rsp + 3776], rax
ffffffff80008725: 48 8d 84 24 c0 0e 00 00      	lea	rax, [rsp + 3776]
ffffffff8000872d: 48 89 84 24 b0 0e 00 00      	mov	qword ptr [rsp + 3760], rax
ffffffff80008735: 48 8d 05 04 98 ff ff 	lea	rax, [rip - 26620]      # 0xffffffff80001f40 <str.1+0x30>
ffffffff8000873c: 48 89 84 24 b8 0e 00 00      	mov	qword ptr [rsp + 3768], rax
ffffffff80008744: 48 8b 84 24 b0 0e 00 00      	mov	rax, qword ptr [rsp + 3760]
ffffffff8000874c: 48 89 84 24 58 0e 00 00      	mov	qword ptr [rsp + 3672], rax
ffffffff80008754: 48 89 84 24 40 9f 00 00      	mov	qword ptr [rsp + 40768], rax
ffffffff8000875c: 48 8b 8c 24 b8 0e 00 00      	mov	rcx, qword ptr [rsp + 3768]
ffffffff80008764: 48 89 8c 24 60 0e 00 00      	mov	qword ptr [rsp + 3680], rcx
ffffffff8000876c: 48 89 8c 24 48 9f 00 00      	mov	qword ptr [rsp + 40776], rcx
ffffffff80008774: 48 83 38 00          	cmp	qword ptr [rax], 0
ffffffff80008778: 0f 94 c0             	sete	al
ffffffff8000877b: 34 ff                	xor	al, -1
ffffffff8000877d: a8 01                	test	al, 1
ffffffff8000877f: 75 77                	jne	0xffffffff800087f8 <_ZN3qos6paging9PageTable3map17hd52bdb474094c86bE+0x1f8>
ffffffff80008781: 48 8b 84 24 a8 0e 00 00      	mov	rax, qword ptr [rsp + 3752]
ffffffff80008789: 25 ff ff 1f 00       	and	eax, 2097151
ffffffff8000878e: 48 89 84 24 10 0f 00 00      	mov	qword ptr [rsp + 3856], rax
ffffffff80008796: 48 8d 84 24 10 0f 00 00      	lea	rax, [rsp + 3856]
ffffffff8000879e: 48 89 84 24 00 0f 00 00      	mov	qword ptr [rsp + 3840], rax
ffffffff800087a6: 48 8d 05 93 97 ff ff 	lea	rax, [rip - 26733]      # 0xffffffff80001f40 <str.1+0x30>
ffffffff800087ad: 48 89 84 24 08 0f 00 00      	mov	qword ptr [rsp + 3848], rax
ffffffff800087b5: 48 8b 84 24 00 0f 00 00      	mov	rax, qword ptr [rsp + 3840]
ffffffff800087bd: 48 89 84 24 48 0e 00 00      	mov	qword ptr [rsp + 3656], rax
ffffffff800087c5: 48 89 84 24 50 9f 00 00      	mov	qword ptr [rsp + 40784], rax
ffffffff800087cd: 48 8b 8c 24 08 0f 00 00      	mov	rcx, qword ptr [rsp + 3848]
ffffffff800087d5: 48 89 8c 24 50 0e 00 00      	mov	qword ptr [rsp + 3664], rcx
ffffffff800087dd: 48 89 8c 24 58 9f 00 00      	mov	qword ptr [rsp + 40792], rcx
ffffffff800087e5: 48 83 38 00          	cmp	qword ptr [rax], 0
ffffffff800087e9: 0f 94 c0             	sete	al
ffffffff800087ec: 34 ff                	xor	al, -1
ffffffff800087ee: a8 01                	test	al, 1
ffffffff800087f0: 0f 85 3f 01 00 00    	jne	0xffffffff80008935 <_ZN3qos6paging9PageTable3map17hd52bdb474094c86bE+0x335>
ffffffff800087f6: eb 3c                	jmp	0xffffffff80008834 <_ZN3qos6paging9PageTable3map17hd52bdb474094c86bE+0x234>
ffffffff800087f8: 48 8b 94 24 60 0e 00 00      	mov	rdx, qword ptr [rsp + 3680]
ffffffff80008800: 48 8b b4 24 58 0e 00 00      	mov	rsi, qword ptr [rsp + 3672]
ffffffff80008808: c6 84 24 cf 0e 00 00 00      	mov	byte ptr [rsp + 3791], 0
ffffffff80008810: 48 c7 84 24 e0 0e 00 00 00 00 00 00  	mov	qword ptr [rsp + 3808], 0
ffffffff8000881c: 4c 8d 05 15 90 00 00 	lea	r8, [rip + 36885]       # 0xffffffff80011838 <xr6aouzjkjmurg0+0xffffffff80011838>
ffffffff80008823: 31 ff                	xor	edi, edi
ffffffff80008825: 48 8d 8c 24 d0 0e 00 00      	lea	rcx, [rsp + 3792]
ffffffff8000882d: e8 3e d8 ff ff       	call	0xffffffff80006070 <_ZN4core9panicking13assert_failed17he3670309e5eb6e27E>
ffffffff80008832: 0f 0b                	ud2
ffffffff80008834: 48 8d bc 24 a0 0e 00 00      	lea	rdi, [rsp + 3744]
ffffffff8000883c: be 01 00 00 00       	mov	esi, 1
ffffffff80008841: e8 3a 0a 00 00       	call	0xffffffff80009280 <_ZN3qos6paging5Flags11set_present17h3667dc151d647bd8E>
ffffffff80008846: 31 c0                	xor	eax, eax
ffffffff80008848: 48 8d bc 24 a0 0e 00 00      	lea	rdi, [rsp + 3744]
ffffffff80008850: 31 f6                	xor	esi, esi
ffffffff80008852: e8 d9 0a 00 00       	call	0xffffffff80009330 <_ZN3qos6paging5Flags8set_huge17h3ff58c328fec0fdaE>
ffffffff80008857: 48 8b 84 24 a8 0e 00 00      	mov	rax, qword ptr [rsp + 3752]
ffffffff8000885f: 48 c1 e8 0c          	shr	rax, 12
ffffffff80008863: 48 89 84 24 a8 0e 00 00      	mov	qword ptr [rsp + 3752], rax
ffffffff8000886b: 48 8b 84 24 a8 0e 00 00      	mov	rax, qword ptr [rsp + 3752]
ffffffff80008873: 48 25 ff 01 00 00    	and	rax, 511
ffffffff80008879: 48 89 84 24 28 0e 00 00      	mov	qword ptr [rsp + 3624], rax
ffffffff80008881: 48 89 84 24 80 9f 00 00      	mov	qword ptr [rsp + 40832], rax
ffffffff80008889: 48 8b 84 24 a8 0e 00 00      	mov	rax, qword ptr [rsp + 3752]
ffffffff80008891: 48 c1 e8 09          	shr	rax, 9
ffffffff80008895: 48 89 84 24 a8 0e 00 00      	mov	qword ptr [rsp + 3752], rax
ffffffff8000889d: 48 8b 84 24 a8 0e 00 00      	mov	rax, qword ptr [rsp + 3752]
ffffffff800088a5: 48 25 ff 01 00 00    	and	rax, 511
ffffffff800088ab: 48 89 84 24 30 0e 00 00      	mov	qword ptr [rsp + 3632], rax
ffffffff800088b3: 48 89 84 24 88 9f 00 00      	mov	qword ptr [rsp + 40840], rax
ffffffff800088bb: 48 8b 84 24 a8 0e 00 00      	mov	rax, qword ptr [rsp + 3752]
ffffffff800088c3: 48 c1 e8 09          	shr	rax, 9
ffffffff800088c7: 48 89 84 24 a8 0e 00 00      	mov	qword ptr [rsp + 3752], rax
ffffffff800088cf: 48 8b 84 24 a8 0e 00 00      	mov	rax, qword ptr [rsp + 3752]
ffffffff800088d7: 48 25 ff 01 00 00    	and	rax, 511
ffffffff800088dd: 48 89 84 24 38 0e 00 00      	mov	qword ptr [rsp + 3640], rax
ffffffff800088e5: 48 89 84 24 90 9f 00 00      	mov	qword ptr [rsp + 40848], rax
ffffffff800088ed: 48 8b 84 24 a8 0e 00 00      	mov	rax, qword ptr [rsp + 3752]
ffffffff800088f5: 48 c1 e8 09          	shr	rax, 9
ffffffff800088f9: 48 89 84 24 a8 0e 00 00      	mov	qword ptr [rsp + 3752], rax
ffffffff80008901: 48 8b 84 24 a8 0e 00 00      	mov	rax, qword ptr [rsp + 3752]
ffffffff80008909: 48 25 ff 01 00 00    	and	rax, 511
ffffffff8000890f: 48 89 84 24 40 0e 00 00      	mov	qword ptr [rsp + 3648], rax
ffffffff80008917: 48 89 84 24 98 9f 00 00      	mov	qword ptr [rsp + 40856], rax
ffffffff8000891f: 48 3d 00 02 00 00    	cmp	rax, 512
ffffffff80008925: 0f 92 c0             	setb	al
ffffffff80008928: a8 01                	test	al, 1
ffffffff8000892a: 0f 85 2f 01 00 00    	jne	0xffffffff80008a5f <_ZN3qos6paging9PageTable3map17hd52bdb474094c86bE+0x45f>
ffffffff80008930: e9 73 01 00 00       	jmp	0xffffffff80008aa8 <_ZN3qos6paging9PageTable3map17hd52bdb474094c86bE+0x4a8>
ffffffff80008935: 48 8b 94 24 50 0e 00 00      	mov	rdx, qword ptr [rsp + 3664]
ffffffff8000893d: 48 8b b4 24 48 0e 00 00      	mov	rsi, qword ptr [rsp + 3656]
ffffffff80008945: c6 84 24 1f 0f 00 00 00      	mov	byte ptr [rsp + 3871], 0
ffffffff8000894d: 48 c7 84 24 30 0f 00 00 00 00 00 00  	mov	qword ptr [rsp + 3888], 0
ffffffff80008959: 4c 8d 05 f0 8e 00 00 	lea	r8, [rip + 36592]       # 0xffffffff80011850 <xr6aouzjkjmurg0+0xffffffff80011850>
ffffffff80008960: 31 ff                	xor	edi, edi
ffffffff80008962: 48 8d 8c 24 20 0f 00 00      	lea	rcx, [rsp + 3872]
ffffffff8000896a: e8 01 d7 ff ff       	call	0xffffffff80006070 <_ZN4core9panicking13assert_failed17he3670309e5eb6e27E>
ffffffff8000896f: 0f 0b                	ud2
ffffffff80008971: 48 8b 84 24 a8 0e 00 00      	mov	rax, qword ptr [rsp + 3752]
ffffffff80008979: 25 ff 0f 00 00       	and	eax, 4095
ffffffff8000897e: 48 89 84 24 b0 0f 00 00      	mov	qword ptr [rsp + 4016], rax
ffffffff80008986: 48 8d 84 24 b0 0f 00 00      	lea	rax, [rsp + 4016]
ffffffff8000898e: 48 89 84 24 a0 0f 00 00      	mov	qword ptr [rsp + 4000], rax
ffffffff80008996: 48 8d 05 a3 95 ff ff 	lea	rax, [rip - 27229]      # 0xffffffff80001f40 <str.1+0x30>
ffffffff8000899d: 48 89 84 24 a8 0f 00 00      	mov	qword ptr [rsp + 4008], rax
ffffffff800089a5: 48 8b 84 24 a0 0f 00 00      	mov	rax, qword ptr [rsp + 4000]
ffffffff800089ad: 48 89 84 24 18 0e 00 00      	mov	qword ptr [rsp + 3608], rax
ffffffff800089b5: 48 89 84 24 70 9f 00 00      	mov	qword ptr [rsp + 40816], rax
ffffffff800089bd: 48 8b 8c 24 a8 0f 00 00      	mov	rcx, qword ptr [rsp + 4008]
ffffffff800089c5: 48 89 8c 24 20 0e 00 00      	mov	qword ptr [rsp + 3616], rcx
ffffffff800089cd: 48 89 8c 24 78 9f 00 00      	mov	qword ptr [rsp + 40824], rcx
ffffffff800089d5: 48 83 38 00          	cmp	qword ptr [rax], 0
ffffffff800089d9: 0f 94 c0             	sete	al
ffffffff800089dc: 34 ff                	xor	al, -1
ffffffff800089de: a8 01                	test	al, 1
ffffffff800089e0: 75 41                	jne	0xffffffff80008a23 <_ZN3qos6paging9PageTable3map17hd52bdb474094c86bE+0x423>
ffffffff800089e2: e9 4d fe ff ff       	jmp	0xffffffff80008834 <_ZN3qos6paging9PageTable3map17hd52bdb474094c86bE+0x234>
ffffffff800089e7: 48 8b 94 24 70 0e 00 00      	mov	rdx, qword ptr [rsp + 3696]
ffffffff800089ef: 48 8b b4 24 68 0e 00 00      	mov	rsi, qword ptr [rsp + 3688]
ffffffff800089f7: c6 84 24 6f 0f 00 00 00      	mov	byte ptr [rsp + 3951], 0
ffffffff800089ff: 48 c7 84 24 80 0f 00 00 00 00 00 00  	mov	qword ptr [rsp + 3968], 0
ffffffff80008a0b: 4c 8d 05 56 8e 00 00 	lea	r8, [rip + 36438]       # 0xffffffff80011868 <xr6aouzjkjmurg0+0xffffffff80011868>
ffffffff80008a12: 31 ff                	xor	edi, edi
ffffffff80008a14: 48 8d 8c 24 70 0f 00 00      	lea	rcx, [rsp + 3952]
ffffffff80008a1c: e8 4f d6 ff ff       	call	0xffffffff80006070 <_ZN4core9panicking13assert_failed17he3670309e5eb6e27E>
ffffffff80008a21: 0f 0b                	ud2
ffffffff80008a23: 48 8b 94 24 20 0e 00 00      	mov	rdx, qword ptr [rsp + 3616]
ffffffff80008a2b: 48 8b b4 24 18 0e 00 00      	mov	rsi, qword ptr [rsp + 3608]
ffffffff80008a33: c6 84 24 bf 0f 00 00 00      	mov	byte ptr [rsp + 4031], 0
ffffffff80008a3b: 48 c7 84 24 d0 0f 00 00 00 00 00 00  	mov	qword ptr [rsp + 4048], 0
ffffffff80008a47: 4c 8d 05 32 8e 00 00 	lea	r8, [rip + 36402]       # 0xffffffff80011880 <xr6aouzjkjmurg0+0xffffffff80011880>
ffffffff80008a4e: 31 ff                	xor	edi, edi
ffffffff80008a50: 48 8d 8c 24 c0 0f 00 00      	lea	rcx, [rsp + 4032]
ffffffff80008a58: e8 13 d6 ff ff       	call	0xffffffff80006070 <_ZN4core9panicking13assert_failed17he3670309e5eb6e27E>
ffffffff80008a5d: 0f 0b                	ud2
ffffffff80008a5f: 48 8b bc 24 78 0e 00 00      	mov	rdi, qword ptr [rsp + 3704]
ffffffff80008a67: 48 8b 84 24 40 0e 00 00      	mov	rax, qword ptr [rsp + 3648]
ffffffff80008a6f: 48 c1 e0 03          	shl	rax, 3
ffffffff80008a73: 48 01 c7             	add	rdi, rax
ffffffff80008a76: 48 89 bc 24 10 0e 00 00      	mov	qword ptr [rsp + 3600], rdi
ffffffff80008a7e: 48 89 bc 24 a0 9f 00 00      	mov	qword ptr [rsp + 40864], rdi
ffffffff80008a86: e8 f5 06 00 00       	call	0xffffffff80009180 <_ZN3qos6paging14PageTableEntry9get_flags17h870bd2f1c507dc2eE>
ffffffff80008a8b: 48 89 84 24 f0 0f 00 00      	mov	qword ptr [rsp + 4080], rax
ffffffff80008a93: 48 8d bc 24 f0 0f 00 00      	lea	rdi, [rsp + 4080]
ffffffff80008a9b: e8 b0 07 00 00       	call	0xffffffff80009250 <_ZN3qos6paging5Flags11get_present17hc153be68562db5fbE>
ffffffff80008aa0: 34 ff                	xor	al, -1
ffffffff80008aa2: a8 01                	test	al, 1
ffffffff80008aa4: 75 65                	jne	0xffffffff80008b0b <_ZN3qos6paging9PageTable3map17hd52bdb474094c86bE+0x50b>
ffffffff80008aa6: eb 1f                	jmp	0xffffffff80008ac7 <_ZN3qos6paging9PageTable3map17hd52bdb474094c86bE+0x4c7>
ffffffff80008aa8: 48 8b bc 24 40 0e 00 00      	mov	rdi, qword ptr [rsp + 3648]
ffffffff80008ab0: 48 8d 15 e1 8d 00 00 	lea	rdx, [rip + 36321]      # 0xffffffff80011898 <xr6aouzjkjmurg0+0xffffffff80011898>
ffffffff80008ab7: 48 8b 05 aa 96 00 00 	mov	rax, qword ptr [rip + 38570] # 0xffffffff80012168 <xr6aouzjkjmurg0+0xffffffff80012168>
ffffffff80008abe: be 00 02 00 00       	mov	esi, 512
ffffffff80008ac3: ff d0                	call	rax
ffffffff80008ac5: 0f 0b                	ud2
ffffffff80008ac7: 48 8b bc 24 10 0e 00 00      	mov	rdi, qword ptr [rsp + 3600]
ffffffff80008acf: e8 4c 06 00 00       	call	0xffffffff80009120 <_ZN3qos6paging14PageTableEntry8get_addr17hb971fd0cac08e798E>
ffffffff80008ad4: 48 89 84 24 e8 3f 00 00      	mov	qword ptr [rsp + 16360], rax
ffffffff80008adc: 48 8d bc 24 e8 3f 00 00      	lea	rdi, [rsp + 16360]
ffffffff80008ae4: e8 57 f9 ff ff       	call	0xffffffff80008440 <_ZN3qos6paging8PhysAddr7as_virt17hc5964947f4fd1c8dE>
ffffffff80008ae9: 48 89 84 24 e0 3f 00 00      	mov	qword ptr [rsp + 16352], rax
ffffffff80008af1: 48 8d bc 24 e0 3f 00 00      	lea	rdi, [rsp + 16352]
ffffffff80008af9: e8 02 f8 ff ff       	call	0xffffffff80008300 <_ZN3qos6paging8VirtAddr8as_usize17h475f889e4233a8dfE>
ffffffff80008afe: 48 89 84 24 f8 0f 00 00      	mov	qword ptr [rsp + 4088], rax
ffffffff80008b06: e9 35 01 00 00       	jmp	0xffffffff80008c40 <_ZN3qos6paging9PageTable3map17hd52bdb474094c86bE+0x640>
ffffffff80008b0b: 48 8b bc 24 10 0e 00 00      	mov	rdi, qword ptr [rsp + 3600]
ffffffff80008b13: 48 8b b4 24 a0 0e 00 00      	mov	rsi, qword ptr [rsp + 3744]
ffffffff80008b1b: e8 80 06 00 00       	call	0xffffffff800091a0 <_ZN3qos6paging14PageTableEntry9set_flags17h2d30be4a5c2853ecE>
ffffffff80008b20: e8 db 05 00 00       	call	0xffffffff80009100 <_ZN3qos6paging14PageTableEntry3new17h80bb110a57e734fcE>
ffffffff80008b25: 48 89 84 24 f8 0d 00 00      	mov	qword ptr [rsp + 3576], rax
ffffffff80008b2d: 48 8d 84 24 d8 2f 00 00      	lea	rax, [rsp + 12248]
ffffffff80008b35: 48 8d 8c 24 d8 2f 00 00      	lea	rcx, [rsp + 12248]
ffffffff80008b3d: 48 81 c1 00 10 00 00 	add	rcx, 4096
ffffffff80008b44: 48 89 8c 24 00 0e 00 00      	mov	qword ptr [rsp + 3584], rcx
ffffffff80008b4c: 48 89 84 24 08 0e 00 00      	mov	qword ptr [rsp + 3592], rax
ffffffff80008b54: 48 8b 8c 24 00 0e 00 00      	mov	rcx, qword ptr [rsp + 3584]
ffffffff80008b5c: 48 8b 84 24 08 0e 00 00      	mov	rax, qword ptr [rsp + 3592]
ffffffff80008b64: 48 89 84 24 f0 0d 00 00      	mov	qword ptr [rsp + 3568], rax
ffffffff80008b6c: 48 39 c8             	cmp	rax, rcx
ffffffff80008b6f: 74 21                	je	0xffffffff80008b92 <_ZN3qos6paging9PageTable3map17hd52bdb474094c86bE+0x592>
ffffffff80008b71: 48 8b 84 24 f0 0d 00 00      	mov	rax, qword ptr [rsp + 3568]
ffffffff80008b79: 48 8b 8c 24 f8 0d 00 00      	mov	rcx, qword ptr [rsp + 3576]
ffffffff80008b81: 48 89 08             	mov	qword ptr [rax], rcx
ffffffff80008b84: 48 83 c0 08          	add	rax, 8
ffffffff80008b88: 48 89 84 24 08 0e 00 00      	mov	qword ptr [rsp + 3592], rax
ffffffff80008b90: eb c2                	jmp	0xffffffff80008b54 <_ZN3qos6paging9PageTable3map17hd52bdb474094c86bE+0x554>
ffffffff80008b92: 48 8d bc 24 00 10 00 00      	lea	rdi, [rsp + 4096]
ffffffff80008b9a: 48 8d b4 24 d8 2f 00 00      	lea	rsi, [rsp + 12248]
ffffffff80008ba2: ba 00 10 00 00       	mov	edx, 4096
ffffffff80008ba7: 48 8b 05 9a 95 00 00 	mov	rax, qword ptr [rip + 38298] # 0xffffffff80012148 <xr6aouzjkjmurg0+0xffffffff80012148>
ffffffff80008bae: ff d0                	call	rax
ffffffff80008bb0: be 00 10 00 00       	mov	esi, 4096
ffffffff80008bb5: 48 89 f7             	mov	rdi, rsi
ffffffff80008bb8: e8 63 ad ff ff       	call	0xffffffff80003920 <_ZN5alloc5alloc15exchange_malloc17hd31e2f2b892716b6E>
ffffffff80008bbd: 48 89 c7             	mov	rdi, rax
ffffffff80008bc0: 48 89 bc 24 e0 0d 00 00      	mov	qword ptr [rsp + 3552], rdi
ffffffff80008bc8: 48 8d b4 24 00 10 00 00      	lea	rsi, [rsp + 4096]
ffffffff80008bd0: ba 00 10 00 00       	mov	edx, 4096
ffffffff80008bd5: 48 8b 05 6c 95 00 00 	mov	rax, qword ptr [rip + 38252] # 0xffffffff80012148 <xr6aouzjkjmurg0+0xffffffff80012148>
ffffffff80008bdc: ff d0                	call	rax
ffffffff80008bde: 48 8b bc 24 e0 0d 00 00      	mov	rdi, qword ptr [rsp + 3552]
ffffffff80008be6: 48 89 bc 24 a8 9f 00 00      	mov	qword ptr [rsp + 40872], rdi
ffffffff80008bee: e8 9d f1 ff ff       	call	0xffffffff80007d90 <_ZN5alloc5boxed16Box$LT$T$C$A$GT$4leak17h3d60e18b35b1a275E>
ffffffff80008bf3: 48 89 c7             	mov	rdi, rax
ffffffff80008bf6: 48 89 bc 24 e8 0d 00 00      	mov	qword ptr [rsp + 3560], rdi
ffffffff80008bfe: 48 89 bc 24 b0 9f 00 00      	mov	qword ptr [rsp + 40880], rdi
ffffffff80008c06: e8 d5 f6 ff ff       	call	0xffffffff800082e0 <_ZN3qos6paging8VirtAddr3new17h2288e0c21e0de726E>
ffffffff80008c0b: 48 89 84 24 d8 3f 00 00      	mov	qword ptr [rsp + 16344], rax
ffffffff80008c13: 48 8d bc 24 d8 3f 00 00      	lea	rdi, [rsp + 16344]
ffffffff80008c1b: e8 00 f7 ff ff       	call	0xffffffff80008320 <_ZN3qos6paging8VirtAddr7as_phys17h2ca0ecf7ad9c36e5E>
ffffffff80008c20: 48 8b bc 24 10 0e 00 00      	mov	rdi, qword ptr [rsp + 3600]
ffffffff80008c28: 48 89 c6             	mov	rsi, rax
ffffffff80008c2b: e8 20 05 00 00       	call	0xffffffff80009150 <_ZN3qos6paging14PageTableEntry8set_addr17he02485948d264251E>
ffffffff80008c30: 48 8b 84 24 e8 0d 00 00      	mov	rax, qword ptr [rsp + 3560]
ffffffff80008c38: 48 89 84 24 f8 0f 00 00      	mov	qword ptr [rsp + 4088], rax
ffffffff80008c40: 48 8b 84 24 38 0e 00 00      	mov	rax, qword ptr [rsp + 3640]
ffffffff80008c48: 48 3d 00 02 00 00    	cmp	rax, 512
ffffffff80008c4e: 0f 92 c0             	setb	al
ffffffff80008c51: a8 01                	test	al, 1
ffffffff80008c53: 75 02                	jne	0xffffffff80008c57 <_ZN3qos6paging9PageTable3map17hd52bdb474094c86bE+0x657>
ffffffff80008c55: eb 46                	jmp	0xffffffff80008c9d <_ZN3qos6paging9PageTable3map17hd52bdb474094c86bE+0x69d>
ffffffff80008c57: 48 8b bc 24 38 0e 00 00      	mov	rdi, qword ptr [rsp + 3640]
ffffffff80008c5f: 48 c1 e7 03          	shl	rdi, 3
ffffffff80008c63: 48 03 bc 24 f8 0f 00 00      	add	rdi, qword ptr [rsp + 4088]
ffffffff80008c6b: 48 89 bc 24 d8 0d 00 00      	mov	qword ptr [rsp + 3544], rdi
ffffffff80008c73: 48 89 bc 24 b8 9f 00 00      	mov	qword ptr [rsp + 40888], rdi
ffffffff80008c7b: e8 00 05 00 00       	call	0xffffffff80009180 <_ZN3qos6paging14PageTableEntry9get_flags17h870bd2f1c507dc2eE>
ffffffff80008c80: 48 89 84 24 f0 3f 00 00      	mov	qword ptr [rsp + 16368], rax
ffffffff80008c88: 48 8d bc 24 f0 3f 00 00      	lea	rdi, [rsp + 16368]
ffffffff80008c90: e8 bb 05 00 00       	call	0xffffffff80009250 <_ZN3qos6paging5Flags11get_present17hc153be68562db5fbE>
ffffffff80008c95: 34 ff                	xor	al, -1
ffffffff80008c97: a8 01                	test	al, 1
ffffffff80008c99: 75 65                	jne	0xffffffff80008d00 <_ZN3qos6paging9PageTable3map17hd52bdb474094c86bE+0x700>
ffffffff80008c9b: eb 1f                	jmp	0xffffffff80008cbc <_ZN3qos6paging9PageTable3map17hd52bdb474094c86bE+0x6bc>
ffffffff80008c9d: 48 8b bc 24 38 0e 00 00      	mov	rdi, qword ptr [rsp + 3640]
ffffffff80008ca5: 48 8d 15 04 8c 00 00 	lea	rdx, [rip + 35844]      # 0xffffffff800118b0 <xr6aouzjkjmurg0+0xffffffff800118b0>
ffffffff80008cac: 48 8b 05 b5 94 00 00 	mov	rax, qword ptr [rip + 38069] # 0xffffffff80012168 <xr6aouzjkjmurg0+0xffffffff80012168>
ffffffff80008cb3: be 00 02 00 00       	mov	esi, 512
ffffffff80008cb8: ff d0                	call	rax
ffffffff80008cba: 0f 0b                	ud2
ffffffff80008cbc: 48 8b bc 24 10 0e 00 00      	mov	rdi, qword ptr [rsp + 3600]
ffffffff80008cc4: e8 57 04 00 00       	call	0xffffffff80009120 <_ZN3qos6paging14PageTableEntry8get_addr17hb971fd0cac08e798E>
ffffffff80008cc9: 48 89 84 24 e8 6f 00 00      	mov	qword ptr [rsp + 28648], rax
ffffffff80008cd1: 48 8d bc 24 e8 6f 00 00      	lea	rdi, [rsp + 28648]
ffffffff80008cd9: e8 62 f7 ff ff       	call	0xffffffff80008440 <_ZN3qos6paging8PhysAddr7as_virt17hc5964947f4fd1c8dE>
ffffffff80008cde: 48 89 84 24 e0 6f 00 00      	mov	qword ptr [rsp + 28640], rax
ffffffff80008ce6: 48 8d bc 24 e0 6f 00 00      	lea	rdi, [rsp + 28640]
ffffffff80008cee: e8 0d f6 ff ff       	call	0xffffffff80008300 <_ZN3qos6paging8VirtAddr8as_usize17h475f889e4233a8dfE>
ffffffff80008cf3: 48 89 84 24 f8 3f 00 00      	mov	qword ptr [rsp + 16376], rax
ffffffff80008cfb: e9 35 01 00 00       	jmp	0xffffffff80008e35 <_ZN3qos6paging9PageTable3map17hd52bdb474094c86bE+0x835>
ffffffff80008d00: 48 8b bc 24 d8 0d 00 00      	mov	rdi, qword ptr [rsp + 3544]
ffffffff80008d08: 48 8b b4 24 a0 0e 00 00      	mov	rsi, qword ptr [rsp + 3744]
ffffffff80008d10: e8 8b 04 00 00       	call	0xffffffff800091a0 <_ZN3qos6paging14PageTableEntry9set_flags17h2d30be4a5c2853ecE>
ffffffff80008d15: e8 e6 03 00 00       	call	0xffffffff80009100 <_ZN3qos6paging14PageTableEntry3new17h80bb110a57e734fcE>
ffffffff80008d1a: 48 89 84 24 c0 0d 00 00      	mov	qword ptr [rsp + 3520], rax
ffffffff80008d22: 48 8d 84 24 d8 5f 00 00      	lea	rax, [rsp + 24536]
ffffffff80008d2a: 48 8d 8c 24 d8 5f 00 00      	lea	rcx, [rsp + 24536]
ffffffff80008d32: 48 81 c1 00 10 00 00 	add	rcx, 4096
ffffffff80008d39: 48 89 8c 24 c8 0d 00 00      	mov	qword ptr [rsp + 3528], rcx
ffffffff80008d41: 48 89 84 24 d0 0d 00 00      	mov	qword ptr [rsp + 3536], rax
ffffffff80008d49: 48 8b 8c 24 c8 0d 00 00      	mov	rcx, qword ptr [rsp + 3528]
ffffffff80008d51: 48 8b 84 24 d0 0d 00 00      	mov	rax, qword ptr [rsp + 3536]
ffffffff80008d59: 48 89 84 24 b8 0d 00 00      	mov	qword ptr [rsp + 3512], rax
ffffffff80008d61: 48 39 c8             	cmp	rax, rcx
ffffffff80008d64: 74 21                	je	0xffffffff80008d87 <_ZN3qos6paging9PageTable3map17hd52bdb474094c86bE+0x787>
ffffffff80008d66: 48 8b 84 24 b8 0d 00 00      	mov	rax, qword ptr [rsp + 3512]
ffffffff80008d6e: 48 8b 8c 24 c0 0d 00 00      	mov	rcx, qword ptr [rsp + 3520]
ffffffff80008d76: 48 89 08             	mov	qword ptr [rax], rcx
ffffffff80008d79: 48 83 c0 08          	add	rax, 8
ffffffff80008d7d: 48 89 84 24 d0 0d 00 00      	mov	qword ptr [rsp + 3536], rax
ffffffff80008d85: eb c2                	jmp	0xffffffff80008d49 <_ZN3qos6paging9PageTable3map17hd52bdb474094c86bE+0x749>
ffffffff80008d87: 48 8d bc 24 00 40 00 00      	lea	rdi, [rsp + 16384]
ffffffff80008d8f: 48 8d b4 24 d8 5f 00 00      	lea	rsi, [rsp + 24536]
ffffffff80008d97: ba 00 10 00 00       	mov	edx, 4096
ffffffff80008d9c: 48 8b 05 a5 93 00 00 	mov	rax, qword ptr [rip + 37797] # 0xffffffff80012148 <xr6aouzjkjmurg0+0xffffffff80012148>
ffffffff80008da3: ff d0                	call	rax
ffffffff80008da5: be 00 10 00 00       	mov	esi, 4096
ffffffff80008daa: 48 89 f7             	mov	rdi, rsi
ffffffff80008dad: e8 6e ab ff ff       	call	0xffffffff80003920 <_ZN5alloc5alloc15exchange_malloc17hd31e2f2b892716b6E>
ffffffff80008db2: 48 89 c7             	mov	rdi, rax
ffffffff80008db5: 48 89 bc 24 a8 0d 00 00      	mov	qword ptr [rsp + 3496], rdi
ffffffff80008dbd: 48 8d b4 24 00 40 00 00      	lea	rsi, [rsp + 16384]
ffffffff80008dc5: ba 00 10 00 00       	mov	edx, 4096
ffffffff80008dca: 48 8b 05 77 93 00 00 	mov	rax, qword ptr [rip + 37751] # 0xffffffff80012148 <xr6aouzjkjmurg0+0xffffffff80012148>
ffffffff80008dd1: ff d0                	call	rax
ffffffff80008dd3: 48 8b bc 24 a8 0d 00 00      	mov	rdi, qword ptr [rsp + 3496]
ffffffff80008ddb: 48 89 bc 24 c0 9f 00 00      	mov	qword ptr [rsp + 40896], rdi
ffffffff80008de3: e8 a8 ef ff ff       	call	0xffffffff80007d90 <_ZN5alloc5boxed16Box$LT$T$C$A$GT$4leak17h3d60e18b35b1a275E>
ffffffff80008de8: 48 89 c7             	mov	rdi, rax
ffffffff80008deb: 48 89 bc 24 b0 0d 00 00      	mov	qword ptr [rsp + 3504], rdi
ffffffff80008df3: 48 89 bc 24 c8 9f 00 00      	mov	qword ptr [rsp + 40904], rdi
ffffffff80008dfb: e8 e0 f4 ff ff       	call	0xffffffff800082e0 <_ZN3qos6paging8VirtAddr3new17h2288e0c21e0de726E>
ffffffff80008e00: 48 89 84 24 d8 6f 00 00      	mov	qword ptr [rsp + 28632], rax
ffffffff80008e08: 48 8d bc 24 d8 6f 00 00      	lea	rdi, [rsp + 28632]
ffffffff80008e10: e8 0b f5 ff ff       	call	0xffffffff80008320 <_ZN3qos6paging8VirtAddr7as_phys17h2ca0ecf7ad9c36e5E>
ffffffff80008e15: 48 8b bc 24 d8 0d 00 00      	mov	rdi, qword ptr [rsp + 3544]
ffffffff80008e1d: 48 89 c6             	mov	rsi, rax
ffffffff80008e20: e8 2b 03 00 00       	call	0xffffffff80009150 <_ZN3qos6paging14PageTableEntry8set_addr17he02485948d264251E>
ffffffff80008e25: 48 8b 84 24 b0 0d 00 00      	mov	rax, qword ptr [rsp + 3504]
ffffffff80008e2d: 48 89 84 24 f8 3f 00 00      	mov	qword ptr [rsp + 16376], rax
ffffffff80008e35: 48 8b 84 24 30 0e 00 00      	mov	rax, qword ptr [rsp + 3632]
ffffffff80008e3d: 48 3d 00 02 00 00    	cmp	rax, 512
ffffffff80008e43: 0f 92 c0             	setb	al
ffffffff80008e46: a8 01                	test	al, 1
ffffffff80008e48: 75 02                	jne	0xffffffff80008e4c <_ZN3qos6paging9PageTable3map17hd52bdb474094c86bE+0x84c>
ffffffff80008e4a: eb 41                	jmp	0xffffffff80008e8d <_ZN3qos6paging9PageTable3map17hd52bdb474094c86bE+0x88d>
ffffffff80008e4c: 48 8b bc 24 30 0e 00 00      	mov	rdi, qword ptr [rsp + 3632]
ffffffff80008e54: 48 c1 e7 03          	shl	rdi, 3
ffffffff80008e58: 48 03 bc 24 f8 3f 00 00      	add	rdi, qword ptr [rsp + 16376]
ffffffff80008e60: 48 89 bc 24 a0 0d 00 00      	mov	qword ptr [rsp + 3488], rdi
ffffffff80008e68: 48 89 bc 24 d0 9f 00 00      	mov	qword ptr [rsp + 40912], rdi
ffffffff80008e70: e8 0b 03 00 00       	call	0xffffffff80009180 <_ZN3qos6paging14PageTableEntry9get_flags17h870bd2f1c507dc2eE>
ffffffff80008e75: 48 89 c1             	mov	rcx, rax
ffffffff80008e78: 8a 84 24 8f 0e 00 00 	mov	al, byte ptr [rsp + 3727]
ffffffff80008e7f: 48 89 8c 24 f0 6f 00 00      	mov	qword ptr [rsp + 28656], rcx
ffffffff80008e87: a8 01                	test	al, 1
ffffffff80008e89: 75 3a                	jne	0xffffffff80008ec5 <_ZN3qos6paging9PageTable3map17hd52bdb474094c86bE+0x8c5>
ffffffff80008e8b: eb 1f                	jmp	0xffffffff80008eac <_ZN3qos6paging9PageTable3map17hd52bdb474094c86bE+0x8ac>
ffffffff80008e8d: 48 8b bc 24 30 0e 00 00      	mov	rdi, qword ptr [rsp + 3632]
ffffffff80008e95: 48 8d 15 2c 8a 00 00 	lea	rdx, [rip + 35372]      # 0xffffffff800118c8 <xr6aouzjkjmurg0+0xffffffff800118c8>
ffffffff80008e9c: 48 8b 05 c5 92 00 00 	mov	rax, qword ptr [rip + 37573] # 0xffffffff80012168 <xr6aouzjkjmurg0+0xffffffff80012168>
ffffffff80008ea3: be 00 02 00 00       	mov	esi, 512
ffffffff80008ea8: ff d0                	call	rax
ffffffff80008eaa: 0f 0b                	ud2
ffffffff80008eac: 48 8d bc 24 f0 6f 00 00      	lea	rdi, [rsp + 28656]
ffffffff80008eb4: e8 97 03 00 00       	call	0xffffffff80009250 <_ZN3qos6paging5Flags11get_present17hc153be68562db5fbE>
ffffffff80008eb9: 34 ff                	xor	al, -1
ffffffff80008ebb: a8 01                	test	al, 1
ffffffff80008ebd: 0f 85 87 00 00 00    	jne	0xffffffff80008f4a <_ZN3qos6paging9PageTable3map17hd52bdb474094c86bE+0x94a>
ffffffff80008ec3: eb 41                	jmp	0xffffffff80008f06 <_ZN3qos6paging9PageTable3map17hd52bdb474094c86bE+0x906>
ffffffff80008ec5: 48 8d bc 24 a0 0e 00 00      	lea	rdi, [rsp + 3744]
ffffffff80008ecd: be 01 00 00 00       	mov	esi, 1
ffffffff80008ed2: e8 59 04 00 00       	call	0xffffffff80009330 <_ZN3qos6paging5Flags8set_huge17h3ff58c328fec0fdaE>
ffffffff80008ed7: 48 8b bc 24 a0 0d 00 00      	mov	rdi, qword ptr [rsp + 3488]
ffffffff80008edf: 48 8b b4 24 a0 0e 00 00      	mov	rsi, qword ptr [rsp + 3744]
ffffffff80008ee7: e8 b4 02 00 00       	call	0xffffffff800091a0 <_ZN3qos6paging14PageTableEntry9set_flags17h2d30be4a5c2853ecE>
ffffffff80008eec: 48 8b bc 24 a0 0d 00 00      	mov	rdi, qword ptr [rsp + 3488]
ffffffff80008ef4: 48 8b b4 24 90 0e 00 00      	mov	rsi, qword ptr [rsp + 3728]
ffffffff80008efc: e8 4f 02 00 00       	call	0xffffffff80009150 <_ZN3qos6paging14PageTableEntry8set_addr17he02485948d264251E>
ffffffff80008f01: 48 89 ec             	mov	rsp, rbp
ffffffff80008f04: 5d                   	pop	rbp
ffffffff80008f05: c3                   	ret
ffffffff80008f06: 48 8b bc 24 a0 0d 00 00      	mov	rdi, qword ptr [rsp + 3488]
ffffffff80008f0e: e8 0d 02 00 00       	call	0xffffffff80009120 <_ZN3qos6paging14PageTableEntry8get_addr17hb971fd0cac08e798E>
ffffffff80008f13: 48 89 84 24 20 9f 00 00      	mov	qword ptr [rsp + 40736], rax
ffffffff80008f1b: 48 8d bc 24 20 9f 00 00      	lea	rdi, [rsp + 40736]
ffffffff80008f23: e8 18 f5 ff ff       	call	0xffffffff80008440 <_ZN3qos6paging8PhysAddr7as_virt17hc5964947f4fd1c8dE>
ffffffff80008f28: 48 89 84 24 18 9f 00 00      	mov	qword ptr [rsp + 40728], rax
ffffffff80008f30: 48 8d bc 24 18 9f 00 00      	lea	rdi, [rsp + 40728]
ffffffff80008f38: e8 c3 f3 ff ff       	call	0xffffffff80008300 <_ZN3qos6paging8VirtAddr8as_usize17h475f889e4233a8dfE>
ffffffff80008f3d: 48 89 84 24 f8 6f 00 00      	mov	qword ptr [rsp + 28664], rax
ffffffff80008f45: e9 35 01 00 00       	jmp	0xffffffff8000907f <_ZN3qos6paging9PageTable3map17hd52bdb474094c86bE+0xa7f>
ffffffff80008f4a: 48 8b bc 24 a0 0d 00 00      	mov	rdi, qword ptr [rsp + 3488]
ffffffff80008f52: 48 8b b4 24 a0 0e 00 00      	mov	rsi, qword ptr [rsp + 3744]
ffffffff80008f5a: e8 41 02 00 00       	call	0xffffffff800091a0 <_ZN3qos6paging14PageTableEntry9set_flags17h2d30be4a5c2853ecE>
ffffffff80008f5f: e8 9c 01 00 00       	call	0xffffffff80009100 <_ZN3qos6paging14PageTableEntry3new17h80bb110a57e734fcE>
ffffffff80008f64: 48 89 84 24 88 0d 00 00      	mov	qword ptr [rsp + 3464], rax
ffffffff80008f6c: 48 8d 84 24 10 8f 00 00      	lea	rax, [rsp + 36624]
ffffffff80008f74: 48 8d 8c 24 10 8f 00 00      	lea	rcx, [rsp + 36624]
ffffffff80008f7c: 48 81 c1 00 10 00 00 	add	rcx, 4096
ffffffff80008f83: 48 89 8c 24 90 0d 00 00      	mov	qword ptr [rsp + 3472], rcx
ffffffff80008f8b: 48 89 84 24 98 0d 00 00      	mov	qword ptr [rsp + 3480], rax
ffffffff80008f93: 48 8b 8c 24 90 0d 00 00      	mov	rcx, qword ptr [rsp + 3472]
ffffffff80008f9b: 48 8b 84 24 98 0d 00 00      	mov	rax, qword ptr [rsp + 3480]
ffffffff80008fa3: 48 89 84 24 80 0d 00 00      	mov	qword ptr [rsp + 3456], rax
ffffffff80008fab: 48 39 c8             	cmp	rax, rcx
ffffffff80008fae: 74 21                	je	0xffffffff80008fd1 <_ZN3qos6paging9PageTable3map17hd52bdb474094c86bE+0x9d1>
ffffffff80008fb0: 48 8b 84 24 80 0d 00 00      	mov	rax, qword ptr [rsp + 3456]
ffffffff80008fb8: 48 8b 8c 24 88 0d 00 00      	mov	rcx, qword ptr [rsp + 3464]
ffffffff80008fc0: 48 89 08             	mov	qword ptr [rax], rcx
ffffffff80008fc3: 48 83 c0 08          	add	rax, 8
ffffffff80008fc7: 48 89 84 24 98 0d 00 00      	mov	qword ptr [rsp + 3480], rax
ffffffff80008fcf: eb c2                	jmp	0xffffffff80008f93 <_ZN3qos6paging9PageTable3map17hd52bdb474094c86bE+0x993>
ffffffff80008fd1: 48 8d bc 24 00 70 00 00      	lea	rdi, [rsp + 28672]
ffffffff80008fd9: 48 8d b4 24 10 8f 00 00      	lea	rsi, [rsp + 36624]
ffffffff80008fe1: ba 00 10 00 00       	mov	edx, 4096
ffffffff80008fe6: 48 8b 05 5b 91 00 00 	mov	rax, qword ptr [rip + 37211] # 0xffffffff80012148 <xr6aouzjkjmurg0+0xffffffff80012148>
ffffffff80008fed: ff d0                	call	rax
ffffffff80008fef: be 00 10 00 00       	mov	esi, 4096
ffffffff80008ff4: 48 89 f7             	mov	rdi, rsi
ffffffff80008ff7: e8 24 a9 ff ff       	call	0xffffffff80003920 <_ZN5alloc5alloc15exchange_malloc17hd31e2f2b892716b6E>
ffffffff80008ffc: 48 89 c7             	mov	rdi, rax
ffffffff80008fff: 48 89 bc 24 70 0d 00 00      	mov	qword ptr [rsp + 3440], rdi
ffffffff80009007: 48 8d b4 24 00 70 00 00      	lea	rsi, [rsp + 28672]
ffffffff8000900f: ba 00 10 00 00       	mov	edx, 4096
ffffffff80009014: 48 8b 05 2d 91 00 00 	mov	rax, qword ptr [rip + 37165] # 0xffffffff80012148 <xr6aouzjkjmurg0+0xffffffff80012148>
ffffffff8000901b: ff d0                	call	rax
ffffffff8000901d: 48 8b bc 24 70 0d 00 00      	mov	rdi, qword ptr [rsp + 3440]
ffffffff80009025: 48 89 bc 24 d8 9f 00 00      	mov	qword ptr [rsp + 40920], rdi
ffffffff8000902d: e8 5e ed ff ff       	call	0xffffffff80007d90 <_ZN5alloc5boxed16Box$LT$T$C$A$GT$4leak17h3d60e18b35b1a275E>
ffffffff80009032: 48 89 c7             	mov	rdi, rax
ffffffff80009035: 48 89 bc 24 78 0d 00 00      	mov	qword ptr [rsp + 3448], rdi
ffffffff8000903d: 48 89 bc 24 e0 9f 00 00      	mov	qword ptr [rsp + 40928], rdi
ffffffff80009045: e8 96 f2 ff ff       	call	0xffffffff800082e0 <_ZN3qos6paging8VirtAddr3new17h2288e0c21e0de726E>
ffffffff8000904a: 48 89 84 24 10 9f 00 00      	mov	qword ptr [rsp + 40720], rax
ffffffff80009052: 48 8d bc 24 10 9f 00 00      	lea	rdi, [rsp + 40720]
ffffffff8000905a: e8 c1 f2 ff ff       	call	0xffffffff80008320 <_ZN3qos6paging8VirtAddr7as_phys17h2ca0ecf7ad9c36e5E>
ffffffff8000905f: 48 8b bc 24 a0 0d 00 00      	mov	rdi, qword ptr [rsp + 3488]
ffffffff80009067: 48 89 c6             	mov	rsi, rax
ffffffff8000906a: e8 e1 00 00 00       	call	0xffffffff80009150 <_ZN3qos6paging14PageTableEntry8set_addr17he02485948d264251E>
ffffffff8000906f: 48 8b 84 24 78 0d 00 00      	mov	rax, qword ptr [rsp + 3448]
ffffffff80009077: 48 89 84 24 f8 6f 00 00      	mov	qword ptr [rsp + 28664], rax
ffffffff8000907f: 48 8b 84 24 28 0e 00 00      	mov	rax, qword ptr [rsp + 3624]
ffffffff80009087: 48 3d 00 02 00 00    	cmp	rax, 512
ffffffff8000908d: 0f 92 c0             	setb	al
ffffffff80009090: a8 01                	test	al, 1
ffffffff80009092: 75 02                	jne	0xffffffff80009096 <_ZN3qos6paging9PageTable3map17hd52bdb474094c86bE+0xa96>
ffffffff80009094: eb 4b                	jmp	0xffffffff800090e1 <_ZN3qos6paging9PageTable3map17hd52bdb474094c86bE+0xae1>
ffffffff80009096: 48 8b bc 24 28 0e 00 00      	mov	rdi, qword ptr [rsp + 3624]
ffffffff8000909e: 48 c1 e7 03          	shl	rdi, 3
ffffffff800090a2: 48 03 bc 24 f8 6f 00 00      	add	rdi, qword ptr [rsp + 28664]
ffffffff800090aa: 48 89 bc 24 68 0d 00 00      	mov	qword ptr [rsp + 3432], rdi
ffffffff800090b2: 48 89 bc 24 e8 9f 00 00      	mov	qword ptr [rsp + 40936], rdi
ffffffff800090ba: 48 8b b4 24 a0 0e 00 00      	mov	rsi, qword ptr [rsp + 3744]
ffffffff800090c2: e8 d9 00 00 00       	call	0xffffffff800091a0 <_ZN3qos6paging14PageTableEntry9set_flags17h2d30be4a5c2853ecE>
ffffffff800090c7: 48 8b bc 24 68 0d 00 00      	mov	rdi, qword ptr [rsp + 3432]
ffffffff800090cf: 48 8b b4 24 90 0e 00 00      	mov	rsi, qword ptr [rsp + 3728]
ffffffff800090d7: e8 74 00 00 00       	call	0xffffffff80009150 <_ZN3qos6paging14PageTableEntry8set_addr17he02485948d264251E>
ffffffff800090dc: e9 20 fe ff ff       	jmp	0xffffffff80008f01 <_ZN3qos6paging9PageTable3map17hd52bdb474094c86bE+0x901>
ffffffff800090e1: 48 8b bc 24 28 0e 00 00      	mov	rdi, qword ptr [rsp + 3624]
ffffffff800090e9: 48 8d 15 f0 87 00 00 	lea	rdx, [rip + 34800]      # 0xffffffff800118e0 <xr6aouzjkjmurg0+0xffffffff800118e0>
ffffffff800090f0: 48 8b 05 71 90 00 00 	mov	rax, qword ptr [rip + 36977] # 0xffffffff80012168 <xr6aouzjkjmurg0+0xffffffff80012168>
ffffffff800090f7: be 00 02 00 00       	mov	esi, 512
ffffffff800090fc: ff d0                	call	rax
ffffffff800090fe: 0f 0b                	ud2

ffffffff80009100 <_ZN3qos6paging14PageTableEntry3new17h80bb110a57e734fcE>:
ffffffff80009100: 55                   	push	rbp
ffffffff80009101: 48 89 e5             	mov	rbp, rsp
ffffffff80009104: 50                   	push	rax
ffffffff80009105: 48 c7 45 f8 00 00 00 00      	mov	qword ptr [rbp - 8], 0
ffffffff8000910d: 48 8b 45 f8          	mov	rax, qword ptr [rbp - 8]
ffffffff80009111: 48 83 c4 08          	add	rsp, 8
ffffffff80009115: 5d                   	pop	rbp
ffffffff80009116: c3                   	ret
ffffffff80009117: cc                   	int3
ffffffff80009118: cc                   	int3
ffffffff80009119: cc                   	int3
ffffffff8000911a: cc                   	int3
ffffffff8000911b: cc                   	int3
ffffffff8000911c: cc                   	int3
ffffffff8000911d: cc                   	int3
ffffffff8000911e: cc                   	int3
ffffffff8000911f: cc                   	int3

ffffffff80009120 <_ZN3qos6paging14PageTableEntry8get_addr17hb971fd0cac08e798E>:
ffffffff80009120: 55                   	push	rbp
ffffffff80009121: 48 89 e5             	mov	rbp, rsp
ffffffff80009124: 48 83 ec 10          	sub	rsp, 16
ffffffff80009128: 48 89 f8             	mov	rax, rdi
ffffffff8000912b: 48 89 45 f8          	mov	qword ptr [rbp - 8], rax
ffffffff8000912f: 48 bf 00 f0 ff ff ff ff ff 0f	movabs	rdi, 1152921504606842880
ffffffff80009139: 48 23 38             	and	rdi, qword ptr [rax]
ffffffff8000913c: e8 bf f2 ff ff       	call	0xffffffff80008400 <_ZN3qos6paging8PhysAddr3new17h3ed0755b62cedce2E>
ffffffff80009141: 48 83 c4 10          	add	rsp, 16
ffffffff80009145: 5d                   	pop	rbp
ffffffff80009146: c3                   	ret
ffffffff80009147: cc                   	int3
ffffffff80009148: cc                   	int3
ffffffff80009149: cc                   	int3
ffffffff8000914a: cc                   	int3
ffffffff8000914b: cc                   	int3
ffffffff8000914c: cc                   	int3
ffffffff8000914d: cc                   	int3
ffffffff8000914e: cc                   	int3
ffffffff8000914f: cc                   	int3

ffffffff80009150 <_ZN3qos6paging14PageTableEntry8set_addr17he02485948d264251E>:
ffffffff80009150: 55                   	push	rbp
ffffffff80009151: 48 89 e5             	mov	rbp, rsp
ffffffff80009154: 48 83 ec 20          	sub	rsp, 32
ffffffff80009158: 48 89 7d e8          	mov	qword ptr [rbp - 24], rdi
ffffffff8000915c: 48 89 75 f0          	mov	qword ptr [rbp - 16], rsi
ffffffff80009160: 48 89 7d f8          	mov	qword ptr [rbp - 8], rdi
ffffffff80009164: 48 8d 7d f0          	lea	rdi, [rbp - 16]
ffffffff80009168: e8 b3 f2 ff ff       	call	0xffffffff80008420 <_ZN3qos6paging8PhysAddr8as_usize17h6cd190c5d5db75baE>
ffffffff8000916d: 48 8b 7d e8          	mov	rdi, qword ptr [rbp - 24]
ffffffff80009171: 48 0b 07             	or	rax, qword ptr [rdi]
ffffffff80009174: 48 89 07             	mov	qword ptr [rdi], rax
ffffffff80009177: 48 83 c4 20          	add	rsp, 32
ffffffff8000917b: 5d                   	pop	rbp
ffffffff8000917c: c3                   	ret
ffffffff8000917d: cc                   	int3
ffffffff8000917e: cc                   	int3
ffffffff8000917f: cc                   	int3

ffffffff80009180 <_ZN3qos6paging14PageTableEntry9get_flags17h870bd2f1c507dc2eE>:
ffffffff80009180: 55                   	push	rbp
ffffffff80009181: 48 89 e5             	mov	rbp, rsp
ffffffff80009184: 48 83 ec 10          	sub	rsp, 16
ffffffff80009188: 48 89 7d f8          	mov	qword ptr [rbp - 8], rdi
ffffffff8000918c: 48 8b 3f             	mov	rdi, qword ptr [rdi]
ffffffff8000918f: e8 6c 00 00 00       	call	0xffffffff80009200 <_ZN3qos6paging5Flags19from_bits_truncated17h002d6e40ad244aaaE>
ffffffff80009194: 48 83 c4 10          	add	rsp, 16
ffffffff80009198: 5d                   	pop	rbp
ffffffff80009199: c3                   	ret
ffffffff8000919a: cc                   	int3
ffffffff8000919b: cc                   	int3
ffffffff8000919c: cc                   	int3
ffffffff8000919d: cc                   	int3
ffffffff8000919e: cc                   	int3
ffffffff8000919f: cc                   	int3

ffffffff800091a0 <_ZN3qos6paging14PageTableEntry9set_flags17h2d30be4a5c2853ecE>:
ffffffff800091a0: 55                   	push	rbp
ffffffff800091a1: 48 89 e5             	mov	rbp, rsp
ffffffff800091a4: 48 83 ec 20          	sub	rsp, 32
ffffffff800091a8: 48 89 75 e0          	mov	qword ptr [rbp - 32], rsi
ffffffff800091ac: 48 89 f8             	mov	rax, rdi
ffffffff800091af: 48 8b 7d e0          	mov	rdi, qword ptr [rbp - 32]
ffffffff800091b3: 48 89 45 e8          	mov	qword ptr [rbp - 24], rax
ffffffff800091b7: 48 89 45 f0          	mov	qword ptr [rbp - 16], rax
ffffffff800091bb: 48 89 7d f8          	mov	qword ptr [rbp - 8], rdi
ffffffff800091bf: e8 6c 00 00 00       	call	0xffffffff80009230 <_ZN3qos6paging5Flags10into_inner17ha7f4f31f09d23126E>
ffffffff800091c4: 48 8b 7d e8          	mov	rdi, qword ptr [rbp - 24]
ffffffff800091c8: 48 0b 07             	or	rax, qword ptr [rdi]
ffffffff800091cb: 48 89 07             	mov	qword ptr [rdi], rax
ffffffff800091ce: 48 83 c4 20          	add	rsp, 32
ffffffff800091d2: 5d                   	pop	rbp
ffffffff800091d3: c3                   	ret
ffffffff800091d4: cc                   	int3
ffffffff800091d5: cc                   	int3
ffffffff800091d6: cc                   	int3
ffffffff800091d7: cc                   	int3
ffffffff800091d8: cc                   	int3
ffffffff800091d9: cc                   	int3
ffffffff800091da: cc                   	int3
ffffffff800091db: cc                   	int3
ffffffff800091dc: cc                   	int3
ffffffff800091dd: cc                   	int3
ffffffff800091de: cc                   	int3
ffffffff800091df: cc                   	int3

ffffffff800091e0 <_ZN3qos6paging5Flags3new17hbf62153df1664206E>:
ffffffff800091e0: 55                   	push	rbp
ffffffff800091e1: 48 89 e5             	mov	rbp, rsp
ffffffff800091e4: 50                   	push	rax
ffffffff800091e5: 48 c7 45 f8 00 00 00 00      	mov	qword ptr [rbp - 8], 0
ffffffff800091ed: 48 8b 45 f8          	mov	rax, qword ptr [rbp - 8]
ffffffff800091f1: 48 83 c4 08          	add	rsp, 8
ffffffff800091f5: 5d                   	pop	rbp
ffffffff800091f6: c3                   	ret
ffffffff800091f7: cc                   	int3
ffffffff800091f8: cc                   	int3
ffffffff800091f9: cc                   	int3
ffffffff800091fa: cc                   	int3
ffffffff800091fb: cc                   	int3
ffffffff800091fc: cc                   	int3
ffffffff800091fd: cc                   	int3
ffffffff800091fe: cc                   	int3
ffffffff800091ff: cc                   	int3

ffffffff80009200 <_ZN3qos6paging5Flags19from_bits_truncated17h002d6e40ad244aaaE>:
ffffffff80009200: 55                   	push	rbp
ffffffff80009201: 48 89 e5             	mov	rbp, rsp
ffffffff80009204: 48 83 ec 10          	sub	rsp, 16
ffffffff80009208: 48 89 7d f8          	mov	qword ptr [rbp - 8], rdi
ffffffff8000920c: 48 b8 ff 01 00 00 00 00 00 80	movabs	rax, -9223372036854775297
ffffffff80009216: 48 21 c7             	and	rdi, rax
ffffffff80009219: 48 89 7d f0          	mov	qword ptr [rbp - 16], rdi
ffffffff8000921d: 48 8b 45 f0          	mov	rax, qword ptr [rbp - 16]
ffffffff80009221: 48 83 c4 10          	add	rsp, 16
ffffffff80009225: 5d                   	pop	rbp
ffffffff80009226: c3                   	ret
ffffffff80009227: cc                   	int3
ffffffff80009228: cc                   	int3
ffffffff80009229: cc                   	int3
ffffffff8000922a: cc                   	int3
ffffffff8000922b: cc                   	int3
ffffffff8000922c: cc                   	int3
ffffffff8000922d: cc                   	int3
ffffffff8000922e: cc                   	int3
ffffffff8000922f: cc                   	int3

ffffffff80009230 <_ZN3qos6paging5Flags10into_inner17ha7f4f31f09d23126E>:
ffffffff80009230: 55                   	push	rbp
ffffffff80009231: 48 89 e5             	mov	rbp, rsp
ffffffff80009234: 50                   	push	rax
ffffffff80009235: 48 89 f8             	mov	rax, rdi
ffffffff80009238: 48 89 45 f8          	mov	qword ptr [rbp - 8], rax
ffffffff8000923c: 48 83 c4 08          	add	rsp, 8
ffffffff80009240: 5d                   	pop	rbp
ffffffff80009241: c3                   	ret
ffffffff80009242: cc                   	int3
ffffffff80009243: cc                   	int3
ffffffff80009244: cc                   	int3
ffffffff80009245: cc                   	int3
ffffffff80009246: cc                   	int3
ffffffff80009247: cc                   	int3
ffffffff80009248: cc                   	int3
ffffffff80009249: cc                   	int3
ffffffff8000924a: cc                   	int3
ffffffff8000924b: cc                   	int3
ffffffff8000924c: cc                   	int3
ffffffff8000924d: cc                   	int3
ffffffff8000924e: cc                   	int3
ffffffff8000924f: cc                   	int3

ffffffff80009250 <_ZN3qos6paging5Flags11get_present17hc153be68562db5fbE>:
ffffffff80009250: 55                   	push	rbp
ffffffff80009251: 48 89 e5             	mov	rbp, rsp
ffffffff80009254: 50                   	push	rax
ffffffff80009255: 48 89 7d f8          	mov	qword ptr [rbp - 8], rdi
ffffffff80009259: 48 8b 07             	mov	rax, qword ptr [rdi]
ffffffff8000925c: 48 83 e0 01          	and	rax, 1
ffffffff80009260: 48 c1 e8 00          	shr	rax, 0
ffffffff80009264: 48 83 f8 00          	cmp	rax, 0
ffffffff80009268: 0f 95 c0             	setne	al
ffffffff8000926b: 24 01                	and	al, 1
ffffffff8000926d: 0f b6 c0             	movzx	eax, al
ffffffff80009270: 48 83 c4 08          	add	rsp, 8
ffffffff80009274: 5d                   	pop	rbp
ffffffff80009275: c3                   	ret
ffffffff80009276: cc                   	int3
ffffffff80009277: cc                   	int3
ffffffff80009278: cc                   	int3
ffffffff80009279: cc                   	int3
ffffffff8000927a: cc                   	int3
ffffffff8000927b: cc                   	int3
ffffffff8000927c: cc                   	int3
ffffffff8000927d: cc                   	int3
ffffffff8000927e: cc                   	int3
ffffffff8000927f: cc                   	int3

ffffffff80009280 <_ZN3qos6paging5Flags11set_present17h3667dc151d647bd8E>:
ffffffff80009280: 55                   	push	rbp
ffffffff80009281: 48 89 e5             	mov	rbp, rsp
ffffffff80009284: 48 83 ec 18          	sub	rsp, 24
ffffffff80009288: 40 88 f0             	mov	al, sil
ffffffff8000928b: 48 89 7d e8          	mov	qword ptr [rbp - 24], rdi
ffffffff8000928f: 88 c1                	mov	cl, al
ffffffff80009291: 80 e1 01             	and	cl, 1
ffffffff80009294: 88 4d f7             	mov	byte ptr [rbp - 9], cl
ffffffff80009297: 24 01                	and	al, 1
ffffffff80009299: 0f b6 c0             	movzx	eax, al
ffffffff8000929c: 48 83 e0 01          	and	rax, 1
ffffffff800092a0: 48 c1 e0 00          	shl	rax, 0
ffffffff800092a4: 48 89 45 f8          	mov	qword ptr [rbp - 8], rax
ffffffff800092a8: 48 8b 0f             	mov	rcx, qword ptr [rdi]
ffffffff800092ab: 48 83 e1 fe          	and	rcx, -2
ffffffff800092af: 48 89 0f             	mov	qword ptr [rdi], rcx
ffffffff800092b2: 48 0b 07             	or	rax, qword ptr [rdi]
ffffffff800092b5: 48 89 07             	mov	qword ptr [rdi], rax
ffffffff800092b8: 48 83 c4 18          	add	rsp, 24
ffffffff800092bc: 5d                   	pop	rbp
ffffffff800092bd: c3                   	ret
ffffffff800092be: cc                   	int3
ffffffff800092bf: cc                   	int3

ffffffff800092c0 <_ZN3qos6paging5Flags6set_rw17h988084ce0620e5baE>:
ffffffff800092c0: 55                   	push	rbp
ffffffff800092c1: 48 89 e5             	mov	rbp, rsp
ffffffff800092c4: 48 83 ec 18          	sub	rsp, 24
ffffffff800092c8: 40 88 f0             	mov	al, sil
ffffffff800092cb: 48 89 7d e8          	mov	qword ptr [rbp - 24], rdi
ffffffff800092cf: 88 c1                	mov	cl, al
ffffffff800092d1: 80 e1 01             	and	cl, 1
ffffffff800092d4: 88 4d f7             	mov	byte ptr [rbp - 9], cl
ffffffff800092d7: 24 01                	and	al, 1
ffffffff800092d9: 0f b6 c0             	movzx	eax, al
ffffffff800092dc: 48 83 e0 01          	and	rax, 1
ffffffff800092e0: 48 c1 e0 01          	shl	rax, 1
ffffffff800092e4: 48 89 45 f8          	mov	qword ptr [rbp - 8], rax
ffffffff800092e8: 48 8b 0f             	mov	rcx, qword ptr [rdi]
ffffffff800092eb: 48 83 e1 fd          	and	rcx, -3
ffffffff800092ef: 48 89 0f             	mov	qword ptr [rdi], rcx
ffffffff800092f2: 48 0b 07             	or	rax, qword ptr [rdi]
ffffffff800092f5: 48 89 07             	mov	qword ptr [rdi], rax
ffffffff800092f8: 48 83 c4 18          	add	rsp, 24
ffffffff800092fc: 5d                   	pop	rbp
ffffffff800092fd: c3                   	ret
ffffffff800092fe: cc                   	int3
ffffffff800092ff: cc                   	int3

ffffffff80009300 <_ZN3qos6paging5Flags8get_huge17h7dcf34715b147623E>:
ffffffff80009300: 55                   	push	rbp
ffffffff80009301: 48 89 e5             	mov	rbp, rsp
ffffffff80009304: 50                   	push	rax
ffffffff80009305: 48 89 7d f8          	mov	qword ptr [rbp - 8], rdi
ffffffff80009309: 48 8b 07             	mov	rax, qword ptr [rdi]
ffffffff8000930c: 48 25 80 00 00 00    	and	rax, 128
ffffffff80009312: 48 c1 e8 07          	shr	rax, 7
ffffffff80009316: 48 83 f8 00          	cmp	rax, 0
ffffffff8000931a: 0f 95 c0             	setne	al
ffffffff8000931d: 24 01                	and	al, 1
ffffffff8000931f: 0f b6 c0             	movzx	eax, al
ffffffff80009322: 48 83 c4 08          	add	rsp, 8
ffffffff80009326: 5d                   	pop	rbp
ffffffff80009327: c3                   	ret
ffffffff80009328: cc                   	int3
ffffffff80009329: cc                   	int3
ffffffff8000932a: cc                   	int3
ffffffff8000932b: cc                   	int3
ffffffff8000932c: cc                   	int3
ffffffff8000932d: cc                   	int3
ffffffff8000932e: cc                   	int3
ffffffff8000932f: cc                   	int3

ffffffff80009330 <_ZN3qos6paging5Flags8set_huge17h3ff58c328fec0fdaE>:
ffffffff80009330: 55                   	push	rbp
ffffffff80009331: 48 89 e5             	mov	rbp, rsp
ffffffff80009334: 48 83 ec 18          	sub	rsp, 24
ffffffff80009338: 40 88 f0             	mov	al, sil
ffffffff8000933b: 48 89 7d e8          	mov	qword ptr [rbp - 24], rdi
ffffffff8000933f: 88 c1                	mov	cl, al
ffffffff80009341: 80 e1 01             	and	cl, 1
ffffffff80009344: 88 4d f7             	mov	byte ptr [rbp - 9], cl
ffffffff80009347: 24 01                	and	al, 1
ffffffff80009349: 0f b6 c0             	movzx	eax, al
ffffffff8000934c: 48 83 e0 01          	and	rax, 1
ffffffff80009350: 48 c1 e0 07          	shl	rax, 7
ffffffff80009354: 48 89 45 f8          	mov	qword ptr [rbp - 8], rax
ffffffff80009358: 48 8b 0f             	mov	rcx, qword ptr [rdi]
ffffffff8000935b: 48 81 e1 7f ff ff ff 	and	rcx, -129
ffffffff80009362: 48 89 0f             	mov	qword ptr [rdi], rcx
ffffffff80009365: 48 0b 07             	or	rax, qword ptr [rdi]
ffffffff80009368: 48 89 07             	mov	qword ptr [rdi], rax
ffffffff8000936b: 48 83 c4 18          	add	rsp, 24
ffffffff8000936f: 5d                   	pop	rbp
ffffffff80009370: c3                   	ret
ffffffff80009371: cc                   	int3
ffffffff80009372: cc                   	int3
ffffffff80009373: cc                   	int3
ffffffff80009374: cc                   	int3
ffffffff80009375: cc                   	int3
ffffffff80009376: cc                   	int3
ffffffff80009377: cc                   	int3
ffffffff80009378: cc                   	int3
ffffffff80009379: cc                   	int3
ffffffff8000937a: cc                   	int3
ffffffff8000937b: cc                   	int3
ffffffff8000937c: cc                   	int3
ffffffff8000937d: cc                   	int3
ffffffff8000937e: cc                   	int3
ffffffff8000937f: cc                   	int3

ffffffff80009380 <_ZN4core5slice4iter13Iter$LT$T$GT$3new17h3649172ee6b44a3bE>:
ffffffff80009380: 55                   	push	rbp
ffffffff80009381: 48 89 e5             	mov	rbp, rsp
ffffffff80009384: 48 81 ec c0 00 00 00 	sub	rsp, 192
ffffffff8000938b: 48 89 b5 40 ff ff ff 	mov	qword ptr [rbp - 192], rsi
ffffffff80009392: 48 89 bd 48 ff ff ff 	mov	qword ptr [rbp - 184], rdi
ffffffff80009399: 48 89 bd 70 ff ff ff 	mov	qword ptr [rbp - 144], rdi
ffffffff800093a0: 48 89 b5 78 ff ff ff 	mov	qword ptr [rbp - 136], rsi
ffffffff800093a7: 48 89 7d 80          	mov	qword ptr [rbp - 128], rdi
ffffffff800093ab: 48 89 75 88          	mov	qword ptr [rbp - 120], rsi
ffffffff800093af: 48 89 7d 90          	mov	qword ptr [rbp - 112], rdi
ffffffff800093b3: e8 08 cc ff ff       	call	0xffffffff80005fc0 <_ZN4core3ptr9const_ptr33_$LT$impl$u20$$BP$const$u20$T$GT$7is_null17h4b230f72155e1e02E>
ffffffff800093b8: 31 c0                	xor	eax, eax
ffffffff800093ba: a8 01                	test	al, 1
ffffffff800093bc: 75 2a                	jne	0xffffffff800093e8 <_ZN4core5slice4iter13Iter$LT$T$GT$3new17h3649172ee6b44a3bE+0x68>
ffffffff800093be: 48 8b 8d 40 ff ff ff 	mov	rcx, qword ptr [rbp - 192]
ffffffff800093c5: 48 8b 85 48 ff ff ff 	mov	rax, qword ptr [rbp - 184]
ffffffff800093cc: 48 89 45 d8          	mov	qword ptr [rbp - 40], rax
ffffffff800093d0: 48 89 4d e0          	mov	qword ptr [rbp - 32], rcx
ffffffff800093d4: 48 89 45 e8          	mov	qword ptr [rbp - 24], rax
ffffffff800093d8: 48 89 4d f0          	mov	qword ptr [rbp - 16], rcx
ffffffff800093dc: 48 01 c8             	add	rax, rcx
ffffffff800093df: 48 89 85 60 ff ff ff 	mov	qword ptr [rbp - 160], rax
ffffffff800093e6: eb 44                	jmp	0xffffffff8000942c <_ZN4core5slice4iter13Iter$LT$T$GT$3new17h3649172ee6b44a3bE+0xac>
ffffffff800093e8: 48 8b b5 48 ff ff ff 	mov	rsi, qword ptr [rbp - 184]
ffffffff800093ef: 48 8b 8d 40 ff ff ff 	mov	rcx, qword ptr [rbp - 192]
ffffffff800093f6: 48 89 75 98          	mov	qword ptr [rbp - 104], rsi
ffffffff800093fa: 48 89 4d a0          	mov	qword ptr [rbp - 96], rcx
ffffffff800093fe: 48 89 75 a8          	mov	qword ptr [rbp - 88], rsi
ffffffff80009402: 48 89 75 b0          	mov	qword ptr [rbp - 80], rsi
ffffffff80009406: 48 89 4d b8          	mov	qword ptr [rbp - 72], rcx
ffffffff8000940a: 48 89 75 c0          	mov	qword ptr [rbp - 64], rsi
ffffffff8000940e: 48 89 4d c8          	mov	qword ptr [rbp - 56], rcx
ffffffff80009412: 48 89 f0             	mov	rax, rsi
ffffffff80009415: 48 01 c8             	add	rax, rcx
ffffffff80009418: 48 89 45 d0          	mov	qword ptr [rbp - 48], rax
ffffffff8000941c: 48 8b 7d d0          	mov	rdi, qword ptr [rbp - 48]
ffffffff80009420: e8 5b cb ff ff       	call	0xffffffff80005f80 <_ZN4core3ptr9const_ptr33_$LT$impl$u20$$BP$const$u20$T$GT$16with_metadata_of17h964b73a8e4b06f34E>
ffffffff80009425: 48 89 85 60 ff ff ff 	mov	qword ptr [rbp - 160], rax
ffffffff8000942c: 48 8b 85 48 ff ff ff 	mov	rax, qword ptr [rbp - 184]
ffffffff80009433: 48 89 45 f8          	mov	qword ptr [rbp - 8], rax
ffffffff80009437: 48 89 85 68 ff ff ff 	mov	qword ptr [rbp - 152], rax
ffffffff8000943e: 48 8b 85 60 ff ff ff 	mov	rax, qword ptr [rbp - 160]
ffffffff80009445: 48 8b 8d 68 ff ff ff 	mov	rcx, qword ptr [rbp - 152]
ffffffff8000944c: 48 89 8d 58 ff ff ff 	mov	qword ptr [rbp - 168], rcx
ffffffff80009453: 48 89 85 50 ff ff ff 	mov	qword ptr [rbp - 176], rax
ffffffff8000945a: 48 8b 85 50 ff ff ff 	mov	rax, qword ptr [rbp - 176]
ffffffff80009461: 48 8b 95 58 ff ff ff 	mov	rdx, qword ptr [rbp - 168]
ffffffff80009468: 48 81 c4 c0 00 00 00 	add	rsp, 192
ffffffff8000946f: 5d                   	pop	rbp
ffffffff80009470: c3                   	ret
ffffffff80009471: cc                   	int3
ffffffff80009472: cc                   	int3
ffffffff80009473: cc                   	int3
ffffffff80009474: cc                   	int3
ffffffff80009475: cc                   	int3
ffffffff80009476: cc                   	int3
ffffffff80009477: cc                   	int3
ffffffff80009478: cc                   	int3
ffffffff80009479: cc                   	int3
ffffffff8000947a: cc                   	int3
ffffffff8000947b: cc                   	int3
ffffffff8000947c: cc                   	int3
ffffffff8000947d: cc                   	int3
ffffffff8000947e: cc                   	int3
ffffffff8000947f: cc                   	int3

ffffffff80009480 <_ZN91_$LT$core..slice..iter..Iter$LT$T$GT$$u20$as$u20$core..iter..traits..iterator..Iterator$GT$4next17h908265790dd2bc8fE>:
ffffffff80009480: 55                   	push	rbp
ffffffff80009481: 48 89 e5             	mov	rbp, rsp
ffffffff80009484: 48 81 ec b0 00 00 00 	sub	rsp, 176
ffffffff8000948b: 48 89 bd 58 ff ff ff 	mov	qword ptr [rbp - 168], rdi
ffffffff80009492: 48 89 bd 78 ff ff ff 	mov	qword ptr [rbp - 136], rdi
ffffffff80009499: 48 8b 7f 08          	mov	rdi, qword ptr [rdi + 8]
ffffffff8000949d: 48 89 7d 80          	mov	qword ptr [rbp - 128], rdi
ffffffff800094a1: e8 9a 03 00 00       	call	0xffffffff80009840 <_ZN4core3ptr7mut_ptr31_$LT$impl$u20$$BP$mut$u20$T$GT$7is_null17ha79a1cd5f5a43489E>
ffffffff800094a6: b0 01                	mov	al, 1
ffffffff800094a8: a8 01                	test	al, 1
ffffffff800094aa: 75 16                	jne	0xffffffff800094c2 <_ZN91_$LT$core..slice..iter..Iter$LT$T$GT$$u20$as$u20$core..iter..traits..iterator..Iterator$GT$4next17h908265790dd2bc8fE+0x42>
ffffffff800094ac: 48 8b 8d 58 ff ff ff 	mov	rcx, qword ptr [rbp - 168]
ffffffff800094b3: 48 8b 41 08          	mov	rax, qword ptr [rcx + 8]
ffffffff800094b7: 48 89 45 88          	mov	qword ptr [rbp - 120], rax
ffffffff800094bb: 48 3b 01             	cmp	rax, qword ptr [rcx]
ffffffff800094be: 74 26                	je	0xffffffff800094e6 <_ZN91_$LT$core..slice..iter..Iter$LT$T$GT$$u20$as$u20$core..iter..traits..iterator..Iterator$GT$4next17h908265790dd2bc8fE+0x66>
ffffffff800094c0: eb 11                	jmp	0xffffffff800094d3 <_ZN91_$LT$core..slice..iter..Iter$LT$T$GT$$u20$as$u20$core..iter..traits..iterator..Iterator$GT$4next17h908265790dd2bc8fE+0x53>
ffffffff800094c2: 48 8b 85 58 ff ff ff 	mov	rax, qword ptr [rbp - 168]
ffffffff800094c9: 48 8b 38             	mov	rdi, qword ptr [rax]
ffffffff800094cc: e8 ef ca ff ff       	call	0xffffffff80005fc0 <_ZN4core3ptr9const_ptr33_$LT$impl$u20$$BP$const$u20$T$GT$7is_null17h4b230f72155e1e02E>
ffffffff800094d1: eb d9                	jmp	0xffffffff800094ac <_ZN91_$LT$core..slice..iter..Iter$LT$T$GT$$u20$as$u20$core..iter..traits..iterator..Iterator$GT$4next17h908265790dd2bc8fE+0x2c>
ffffffff800094d3: 48 8b 85 58 ff ff ff 	mov	rax, qword ptr [rbp - 168]
ffffffff800094da: 48 89 45 90          	mov	qword ptr [rbp - 112], rax
ffffffff800094de: 31 c0                	xor	eax, eax
ffffffff800094e0: a8 01                	test	al, 1
ffffffff800094e2: 75 1d                	jne	0xffffffff80009501 <_ZN91_$LT$core..slice..iter..Iter$LT$T$GT$$u20$as$u20$core..iter..traits..iterator..Iterator$GT$4next17h908265790dd2bc8fE+0x81>
ffffffff800094e4: eb 67                	jmp	0xffffffff8000954d <_ZN91_$LT$core..slice..iter..Iter$LT$T$GT$$u20$as$u20$core..iter..traits..iterator..Iterator$GT$4next17h908265790dd2bc8fE+0xcd>
ffffffff800094e6: 48 c7 85 60 ff ff ff 00 00 00 00     	mov	qword ptr [rbp - 160], 0
ffffffff800094f1: 48 8b 85 60 ff ff ff 	mov	rax, qword ptr [rbp - 160]
ffffffff800094f8: 48 81 c4 b0 00 00 00 	add	rsp, 176
ffffffff800094ff: 5d                   	pop	rbp
ffffffff80009500: c3                   	ret
ffffffff80009501: 48 8b 85 58 ff ff ff 	mov	rax, qword ptr [rbp - 168]
ffffffff80009508: 48 8b 30             	mov	rsi, qword ptr [rax]
ffffffff8000950b: 48 89 75 d0          	mov	qword ptr [rbp - 48], rsi
ffffffff8000950f: 48 89 75 d8          	mov	qword ptr [rbp - 40], rsi
ffffffff80009513: 48 89 75 e0          	mov	qword ptr [rbp - 32], rsi
ffffffff80009517: 48 89 75 e8          	mov	qword ptr [rbp - 24], rsi
ffffffff8000951b: 48 89 f0             	mov	rax, rsi
ffffffff8000951e: 48 83 c0 ff          	add	rax, -1
ffffffff80009522: 48 89 45 f0          	mov	qword ptr [rbp - 16], rax
ffffffff80009526: 48 8b 7d f0          	mov	rdi, qword ptr [rbp - 16]
ffffffff8000952a: e8 51 ca ff ff       	call	0xffffffff80005f80 <_ZN4core3ptr9const_ptr33_$LT$impl$u20$$BP$const$u20$T$GT$16with_metadata_of17h964b73a8e4b06f34E>
ffffffff8000952f: 48 89 c1             	mov	rcx, rax
ffffffff80009532: 48 8b 85 58 ff ff ff 	mov	rax, qword ptr [rbp - 168]
ffffffff80009539: 48 89 08             	mov	qword ptr [rax], rcx
ffffffff8000953c: 48 8b 40 08          	mov	rax, qword ptr [rax + 8]
ffffffff80009540: 48 89 45 f8          	mov	qword ptr [rbp - 8], rax
ffffffff80009544: 48 89 85 68 ff ff ff 	mov	qword ptr [rbp - 152], rax
ffffffff8000954b: eb 4c                	jmp	0xffffffff80009599 <_ZN91_$LT$core..slice..iter..Iter$LT$T$GT$$u20$as$u20$core..iter..traits..iterator..Iterator$GT$4next17h908265790dd2bc8fE+0x119>
ffffffff8000954d: 48 8b 8d 58 ff ff ff 	mov	rcx, qword ptr [rbp - 168]
ffffffff80009554: 48 8b 41 08          	mov	rax, qword ptr [rcx + 8]
ffffffff80009558: 48 89 45 98          	mov	qword ptr [rbp - 104], rax
ffffffff8000955c: 48 89 45 a0          	mov	qword ptr [rbp - 96], rax
ffffffff80009560: 48 8b 51 08          	mov	rdx, qword ptr [rcx + 8]
ffffffff80009564: 48 89 55 a8          	mov	qword ptr [rbp - 88], rdx
ffffffff80009568: 48 89 55 b0          	mov	qword ptr [rbp - 80], rdx
ffffffff8000956c: 48 89 55 b8          	mov	qword ptr [rbp - 72], rdx
ffffffff80009570: 48 83 c2 01          	add	rdx, 1
ffffffff80009574: 48 89 55 c0          	mov	qword ptr [rbp - 64], rdx
ffffffff80009578: 48 8b 55 c0          	mov	rdx, qword ptr [rbp - 64]
ffffffff8000957c: 48 89 55 c8          	mov	qword ptr [rbp - 56], rdx
ffffffff80009580: 48 89 95 70 ff ff ff 	mov	qword ptr [rbp - 144], rdx
ffffffff80009587: 48 8b 95 70 ff ff ff 	mov	rdx, qword ptr [rbp - 144]
ffffffff8000958e: 48 89 51 08          	mov	qword ptr [rcx + 8], rdx
ffffffff80009592: 48 89 85 68 ff ff ff 	mov	qword ptr [rbp - 152], rax
ffffffff80009599: 48 8b 85 68 ff ff ff 	mov	rax, qword ptr [rbp - 152]
ffffffff800095a0: 48 89 85 60 ff ff ff 	mov	qword ptr [rbp - 160], rax
ffffffff800095a7: e9 45 ff ff ff       	jmp	0xffffffff800094f1 <_ZN91_$LT$core..slice..iter..Iter$LT$T$GT$$u20$as$u20$core..iter..traits..iterator..Iterator$GT$4next17h908265790dd2bc8fE+0x71>
ffffffff800095ac: cc                   	int3
ffffffff800095ad: cc                   	int3
ffffffff800095ae: cc                   	int3
ffffffff800095af: cc                   	int3

ffffffff800095b0 <_ZN4core3num23_$LT$impl$u20$usize$GT$13checked_ilog217h2f3a0d64006680d9E>:
ffffffff800095b0: 55                   	push	rbp
ffffffff800095b1: 48 89 e5             	mov	rbp, rsp
ffffffff800095b4: 48 83 ec 50          	sub	rsp, 80
ffffffff800095b8: 48 89 7d b0          	mov	qword ptr [rbp - 80], rdi
ffffffff800095bc: 48 89 7d d0          	mov	qword ptr [rbp - 48], rdi
ffffffff800095c0: 48 89 7d d8          	mov	qword ptr [rbp - 40], rdi
ffffffff800095c4: 48 83 ff 00          	cmp	rdi, 0
ffffffff800095c8: 75 0a                	jne	0xffffffff800095d4 <_ZN4core3num23_$LT$impl$u20$usize$GT$13checked_ilog217h2f3a0d64006680d9E+0x24>
ffffffff800095ca: 48 c7 45 c0 00 00 00 00      	mov	qword ptr [rbp - 64], 0
ffffffff800095d2: eb 10                	jmp	0xffffffff800095e4 <_ZN4core3num23_$LT$impl$u20$usize$GT$13checked_ilog217h2f3a0d64006680d9E+0x34>
ffffffff800095d4: 48 8b 45 b0          	mov	rax, qword ptr [rbp - 80]
ffffffff800095d8: 48 89 45 c8          	mov	qword ptr [rbp - 56], rax
ffffffff800095dc: 48 8b 45 c8          	mov	rax, qword ptr [rbp - 56]
ffffffff800095e0: 48 89 45 c0          	mov	qword ptr [rbp - 64], rax
ffffffff800095e4: b8 01 00 00 00       	mov	eax, 1
ffffffff800095e9: 31 c9                	xor	ecx, ecx
ffffffff800095eb: 48 83 7d c0 00       	cmp	qword ptr [rbp - 64], 0
ffffffff800095f0: 48 0f 44 c1          	cmove	rax, rcx
ffffffff800095f4: 48 83 f8 01          	cmp	rax, 1
ffffffff800095f8: 75 35                	jne	0xffffffff8000962f <_ZN4core3num23_$LT$impl$u20$usize$GT$13checked_ilog217h2f3a0d64006680d9E+0x7f>
ffffffff800095fa: 48 8b 45 c0          	mov	rax, qword ptr [rbp - 64]
ffffffff800095fe: 48 89 45 e0          	mov	qword ptr [rbp - 32], rax
ffffffff80009602: 48 89 45 e8          	mov	qword ptr [rbp - 24], rax
ffffffff80009606: 48 89 45 f0          	mov	qword ptr [rbp - 16], rax
ffffffff8000960a: 48 0f bd c0          	bsr	rax, rax
ffffffff8000960e: 48 83 f0 3f          	xor	rax, 63
ffffffff80009612: 48 89 45 f8          	mov	qword ptr [rbp - 8], rax
ffffffff80009616: 48 8b 45 f8          	mov	rax, qword ptr [rbp - 8]
ffffffff8000961a: 89 c1                	mov	ecx, eax
ffffffff8000961c: b8 3f 00 00 00       	mov	eax, 63
ffffffff80009621: 29 c8                	sub	eax, ecx
ffffffff80009623: 89 45 bc             	mov	dword ptr [rbp - 68], eax
ffffffff80009626: c7 45 b8 01 00 00 00 	mov	dword ptr [rbp - 72], 1
ffffffff8000962d: eb 07                	jmp	0xffffffff80009636 <_ZN4core3num23_$LT$impl$u20$usize$GT$13checked_ilog217h2f3a0d64006680d9E+0x86>
ffffffff8000962f: c7 45 b8 00 00 00 00 	mov	dword ptr [rbp - 72], 0
ffffffff80009636: 8b 45 b8             	mov	eax, dword ptr [rbp - 72]
ffffffff80009639: 8b 55 bc             	mov	edx, dword ptr [rbp - 68]
ffffffff8000963c: 48 83 c4 50          	add	rsp, 80
ffffffff80009640: 5d                   	pop	rbp
ffffffff80009641: c3                   	ret
ffffffff80009642: cc                   	int3
ffffffff80009643: cc                   	int3
ffffffff80009644: cc                   	int3
ffffffff80009645: cc                   	int3
ffffffff80009646: cc                   	int3
ffffffff80009647: cc                   	int3
ffffffff80009648: cc                   	int3
ffffffff80009649: cc                   	int3
ffffffff8000964a: cc                   	int3
ffffffff8000964b: cc                   	int3
ffffffff8000964c: cc                   	int3
ffffffff8000964d: cc                   	int3
ffffffff8000964e: cc                   	int3
ffffffff8000964f: cc                   	int3

ffffffff80009650 <_ZN4core3num23_$LT$impl$u20$usize$GT$18checked_add_signed17h2b60b76746c094c7E>:
ffffffff80009650: 55                   	push	rbp
ffffffff80009651: 48 89 e5             	mov	rbp, rsp
ffffffff80009654: 48 83 ec 40          	sub	rsp, 64
ffffffff80009658: 48 89 7d e0          	mov	qword ptr [rbp - 32], rdi
ffffffff8000965c: 48 89 75 e8          	mov	qword ptr [rbp - 24], rsi
ffffffff80009660: e8 4b 00 00 00       	call	0xffffffff800096b0 <_ZN4core3num23_$LT$impl$u20$usize$GT$22overflowing_add_signed17h9dac1a6e8b538111E>
ffffffff80009665: 48 89 45 c8          	mov	qword ptr [rbp - 56], rax
ffffffff80009669: 48 89 45 f0          	mov	qword ptr [rbp - 16], rax
ffffffff8000966d: 88 d0                	mov	al, dl
ffffffff8000966f: 24 01                	and	al, 1
ffffffff80009671: 88 45 fe             	mov	byte ptr [rbp - 2], al
ffffffff80009674: 80 e2 01             	and	dl, 1
ffffffff80009677: 88 55 ff             	mov	byte ptr [rbp - 1], dl
ffffffff8000967a: f6 45 ff 01          	test	byte ptr [rbp - 1], 1
ffffffff8000967e: 75 12                	jne	0xffffffff80009692 <_ZN4core3num23_$LT$impl$u20$usize$GT$18checked_add_signed17h2b60b76746c094c7E+0x42>
ffffffff80009680: 48 8b 45 c8          	mov	rax, qword ptr [rbp - 56]
ffffffff80009684: 48 89 45 d8          	mov	qword ptr [rbp - 40], rax
ffffffff80009688: 48 c7 45 d0 01 00 00 00      	mov	qword ptr [rbp - 48], 1
ffffffff80009690: eb 08                	jmp	0xffffffff8000969a <_ZN4core3num23_$LT$impl$u20$usize$GT$18checked_add_signed17h2b60b76746c094c7E+0x4a>
ffffffff80009692: 48 c7 45 d0 00 00 00 00      	mov	qword ptr [rbp - 48], 0
ffffffff8000969a: 48 8b 45 d0          	mov	rax, qword ptr [rbp - 48]
ffffffff8000969e: 48 8b 55 d8          	mov	rdx, qword ptr [rbp - 40]
ffffffff800096a2: 48 83 c4 40          	add	rsp, 64
ffffffff800096a6: 5d                   	pop	rbp
ffffffff800096a7: c3                   	ret
ffffffff800096a8: cc                   	int3
ffffffff800096a9: cc                   	int3
ffffffff800096aa: cc                   	int3
ffffffff800096ab: cc                   	int3
ffffffff800096ac: cc                   	int3
ffffffff800096ad: cc                   	int3
ffffffff800096ae: cc                   	int3
ffffffff800096af: cc                   	int3

ffffffff800096b0 <_ZN4core3num23_$LT$impl$u20$usize$GT$22overflowing_add_signed17h9dac1a6e8b538111E>:
ffffffff800096b0: 55                   	push	rbp
ffffffff800096b1: 48 89 e5             	mov	rbp, rsp
ffffffff800096b4: 48 83 ec 70          	sub	rsp, 112
ffffffff800096b8: 48 89 7d b0          	mov	qword ptr [rbp - 80], rdi
ffffffff800096bc: 48 89 75 b8          	mov	qword ptr [rbp - 72], rsi
ffffffff800096c0: 48 89 7d c0          	mov	qword ptr [rbp - 64], rdi
ffffffff800096c4: 48 89 75 c8          	mov	qword ptr [rbp - 56], rsi
ffffffff800096c8: 48 01 f7             	add	rdi, rsi
ffffffff800096cb: 48 89 7d d0          	mov	qword ptr [rbp - 48], rdi
ffffffff800096cf: 0f 92 45 d8          	setb	byte ptr [rbp - 40]
ffffffff800096d3: 48 8b 4d d0          	mov	rcx, qword ptr [rbp - 48]
ffffffff800096d7: 8a 45 d8             	mov	al, byte ptr [rbp - 40]
ffffffff800096da: 48 89 4d e0          	mov	qword ptr [rbp - 32], rcx
ffffffff800096de: 88 45 ef             	mov	byte ptr [rbp - 17], al
ffffffff800096e1: 48 89 4d a0          	mov	qword ptr [rbp - 96], rcx
ffffffff800096e5: 88 45 a8             	mov	byte ptr [rbp - 88], al
ffffffff800096e8: 48 8b 4d a0          	mov	rcx, qword ptr [rbp - 96]
ffffffff800096ec: 48 89 4d f0          	mov	qword ptr [rbp - 16], rcx
ffffffff800096f0: 8a 45 a8             	mov	al, byte ptr [rbp - 88]
ffffffff800096f3: 88 45 ff             	mov	byte ptr [rbp - 1], al
ffffffff800096f6: 48 85 f6             	test	rsi, rsi
ffffffff800096f9: 0f 98 c2             	sets	dl
ffffffff800096fc: 30 d0                	xor	al, dl
ffffffff800096fe: 48 89 4d 90          	mov	qword ptr [rbp - 112], rcx
ffffffff80009702: 88 45 98             	mov	byte ptr [rbp - 104], al
ffffffff80009705: 48 8b 45 90          	mov	rax, qword ptr [rbp - 112]
ffffffff80009709: 8a 55 98             	mov	dl, byte ptr [rbp - 104]
ffffffff8000970c: 48 83 c4 70          	add	rsp, 112
ffffffff80009710: 5d                   	pop	rbp
ffffffff80009711: c3                   	ret
ffffffff80009712: cc                   	int3
ffffffff80009713: cc                   	int3
ffffffff80009714: cc                   	int3
ffffffff80009715: cc                   	int3
ffffffff80009716: cc                   	int3
ffffffff80009717: cc                   	int3
ffffffff80009718: cc                   	int3
ffffffff80009719: cc                   	int3
ffffffff8000971a: cc                   	int3
ffffffff8000971b: cc                   	int3
ffffffff8000971c: cc                   	int3
ffffffff8000971d: cc                   	int3
ffffffff8000971e: cc                   	int3
ffffffff8000971f: cc                   	int3

ffffffff80009720 <_ZN4core3num23_$LT$impl$u20$usize$GT$5ilog217h102bea41413d7033E>:
ffffffff80009720: 55                   	push	rbp
ffffffff80009721: 48 89 e5             	mov	rbp, rsp
ffffffff80009724: 48 83 ec 30          	sub	rsp, 48
ffffffff80009728: 48 89 75 d8          	mov	qword ptr [rbp - 40], rsi
ffffffff8000972c: 48 89 7d e8          	mov	qword ptr [rbp - 24], rdi
ffffffff80009730: e8 7b fe ff ff       	call	0xffffffff800095b0 <_ZN4core3num23_$LT$impl$u20$usize$GT$13checked_ilog217h2f3a0d64006680d9E>
ffffffff80009735: 89 55 e4             	mov	dword ptr [rbp - 28], edx
ffffffff80009738: 89 45 e0             	mov	dword ptr [rbp - 32], eax
ffffffff8000973b: 48 8d 05 16 88 ff ff 	lea	rax, [rip - 30698]      # 0xffffffff80001f58 <str.1+0x48>
ffffffff80009742: 48 89 45 f0          	mov	qword ptr [rbp - 16], rax
ffffffff80009746: 48 c7 45 f8 2e 00 00 00      	mov	qword ptr [rbp - 8], 46
ffffffff8000974e: 8b 45 e0             	mov	eax, dword ptr [rbp - 32]
ffffffff80009751: 48 83 f8 00          	cmp	rax, 0
ffffffff80009755: 75 1b                	jne	0xffffffff80009772 <_ZN4core3num23_$LT$impl$u20$usize$GT$5ilog217h102bea41413d7033E+0x52>
ffffffff80009757: 48 8b 55 d8          	mov	rdx, qword ptr [rbp - 40]
ffffffff8000975b: 48 8d 3d f6 87 ff ff 	lea	rdi, [rip - 30730]      # 0xffffffff80001f58 <str.1+0x48>
ffffffff80009762: 48 8b 05 07 8a 00 00 	mov	rax, qword ptr [rip + 35335] # 0xffffffff80012170 <xr6aouzjkjmurg0+0xffffffff80012170>
ffffffff80009769: be 2e 00 00 00       	mov	esi, 46
ffffffff8000976e: ff d0                	call	rax
ffffffff80009770: 0f 0b                	ud2
ffffffff80009772: 8b 45 e4             	mov	eax, dword ptr [rbp - 28]
ffffffff80009775: 48 83 c4 30          	add	rsp, 48
ffffffff80009779: 5d                   	pop	rbp
ffffffff8000977a: c3                   	ret
ffffffff8000977b: cc                   	int3
ffffffff8000977c: cc                   	int3
ffffffff8000977d: cc                   	int3
ffffffff8000977e: cc                   	int3
ffffffff8000977f: cc                   	int3

ffffffff80009780 <_ZN4core3ptr7mut_ptr31_$LT$impl$u20$$BP$mut$u20$T$GT$16with_metadata_of17h6a119271fff58cf2E>:
ffffffff80009780: 55                   	push	rbp
ffffffff80009781: 48 89 e5             	mov	rbp, rsp
ffffffff80009784: 48 83 ec 40          	sub	rsp, 64
ffffffff80009788: 48 89 7d d8          	mov	qword ptr [rbp - 40], rdi
ffffffff8000978c: 48 89 75 e0          	mov	qword ptr [rbp - 32], rsi
ffffffff80009790: 48 89 7d f0          	mov	qword ptr [rbp - 16], rdi
ffffffff80009794: 48 89 75 f8          	mov	qword ptr [rbp - 8], rsi
ffffffff80009798: 48 89 75 c0          	mov	qword ptr [rbp - 64], rsi
ffffffff8000979c: 48 89 7d d0          	mov	qword ptr [rbp - 48], rdi
ffffffff800097a0: 48 8b 45 d0          	mov	rax, qword ptr [rbp - 48]
ffffffff800097a4: 48 89 45 c8          	mov	qword ptr [rbp - 56], rax
ffffffff800097a8: 48 8b 45 c8          	mov	rax, qword ptr [rbp - 56]
ffffffff800097ac: 48 83 c4 40          	add	rsp, 64
ffffffff800097b0: 5d                   	pop	rbp
ffffffff800097b1: c3                   	ret
ffffffff800097b2: cc                   	int3
ffffffff800097b3: cc                   	int3
ffffffff800097b4: cc                   	int3
ffffffff800097b5: cc                   	int3
ffffffff800097b6: cc                   	int3
ffffffff800097b7: cc                   	int3
ffffffff800097b8: cc                   	int3
ffffffff800097b9: cc                   	int3
ffffffff800097ba: cc                   	int3
ffffffff800097bb: cc                   	int3
ffffffff800097bc: cc                   	int3
ffffffff800097bd: cc                   	int3
ffffffff800097be: cc                   	int3
ffffffff800097bf: cc                   	int3

ffffffff800097c0 <_ZN4core3ptr7mut_ptr31_$LT$impl$u20$$BP$mut$u20$T$GT$7is_null17h8dc6c1c8bcb1e546E>:
ffffffff800097c0: 55                   	push	rbp
ffffffff800097c1: 48 89 e5             	mov	rbp, rsp
ffffffff800097c4: 48 83 ec 50          	sub	rsp, 80
ffffffff800097c8: 48 89 7d d0          	mov	qword ptr [rbp - 48], rdi
ffffffff800097cc: 48 89 75 d8          	mov	qword ptr [rbp - 40], rsi
ffffffff800097d0: 48 c7 45 e8 00 00 00 00      	mov	qword ptr [rbp - 24], 0
ffffffff800097d8: 48 8b 45 e8          	mov	rax, qword ptr [rbp - 24]
ffffffff800097dc: 48 89 45 f0          	mov	qword ptr [rbp - 16], rax
ffffffff800097e0: 48 89 45 c8          	mov	qword ptr [rbp - 56], rax
ffffffff800097e4: 48 8b 45 c8          	mov	rax, qword ptr [rbp - 56]
ffffffff800097e8: 48 89 45 c0          	mov	qword ptr [rbp - 64], rax
ffffffff800097ec: 48 8b 75 c0          	mov	rsi, qword ptr [rbp - 64]
ffffffff800097f0: 48 8b 05 81 89 00 00 	mov	rax, qword ptr [rip + 35201] # 0xffffffff80012178 <xr6aouzjkjmurg0+0xffffffff80012178>
ffffffff800097f7: ff d0                	call	rax
ffffffff800097f9: 88 45 bf             	mov	byte ptr [rbp - 65], al
ffffffff800097fc: b8 01 00 00 00       	mov	eax, 1
ffffffff80009801: 31 c9                	xor	ecx, ecx
ffffffff80009803: 80 7d bf 02          	cmp	byte ptr [rbp - 65], 2
ffffffff80009807: 48 0f 44 c1          	cmove	rax, rcx
ffffffff8000980b: 48 83 f8 00          	cmp	rax, 0
ffffffff8000980f: 75 06                	jne	0xffffffff80009817 <_ZN4core3ptr7mut_ptr31_$LT$impl$u20$$BP$mut$u20$T$GT$7is_null17h8dc6c1c8bcb1e546E+0x57>
ffffffff80009811: c6 45 be 00          	mov	byte ptr [rbp - 66], 0
ffffffff80009815: eb 10                	jmp	0xffffffff80009827 <_ZN4core3ptr7mut_ptr31_$LT$impl$u20$$BP$mut$u20$T$GT$7is_null17h8dc6c1c8bcb1e546E+0x67>
ffffffff80009817: 8a 45 bf             	mov	al, byte ptr [rbp - 65]
ffffffff8000981a: 88 c1                	mov	cl, al
ffffffff8000981c: 80 e1 01             	and	cl, 1
ffffffff8000981f: 88 4d ff             	mov	byte ptr [rbp - 1], cl
ffffffff80009822: 24 01                	and	al, 1
ffffffff80009824: 88 45 be             	mov	byte ptr [rbp - 66], al
ffffffff80009827: 8a 45 be             	mov	al, byte ptr [rbp - 66]
ffffffff8000982a: 24 01                	and	al, 1
ffffffff8000982c: 0f b6 c0             	movzx	eax, al
ffffffff8000982f: 48 83 c4 50          	add	rsp, 80
ffffffff80009833: 5d                   	pop	rbp
ffffffff80009834: c3                   	ret
ffffffff80009835: cc                   	int3
ffffffff80009836: cc                   	int3
ffffffff80009837: cc                   	int3
ffffffff80009838: cc                   	int3
ffffffff80009839: cc                   	int3
ffffffff8000983a: cc                   	int3
ffffffff8000983b: cc                   	int3
ffffffff8000983c: cc                   	int3
ffffffff8000983d: cc                   	int3
ffffffff8000983e: cc                   	int3
ffffffff8000983f: cc                   	int3

ffffffff80009840 <_ZN4core3ptr7mut_ptr31_$LT$impl$u20$$BP$mut$u20$T$GT$7is_null17ha79a1cd5f5a43489E>:
ffffffff80009840: 55                   	push	rbp
ffffffff80009841: 48 89 e5             	mov	rbp, rsp
ffffffff80009844: 48 83 ec 40          	sub	rsp, 64
ffffffff80009848: 48 89 7d d8          	mov	qword ptr [rbp - 40], rdi
ffffffff8000984c: 48 c7 45 e8 00 00 00 00      	mov	qword ptr [rbp - 24], 0
ffffffff80009854: 48 8b 45 e8          	mov	rax, qword ptr [rbp - 24]
ffffffff80009858: 48 89 45 f0          	mov	qword ptr [rbp - 16], rax
ffffffff8000985c: 48 89 45 d0          	mov	qword ptr [rbp - 48], rax
ffffffff80009860: 48 8b 45 d0          	mov	rax, qword ptr [rbp - 48]
ffffffff80009864: 48 89 45 c8          	mov	qword ptr [rbp - 56], rax
ffffffff80009868: 48 8b 75 c8          	mov	rsi, qword ptr [rbp - 56]
ffffffff8000986c: 48 8b 05 05 89 00 00 	mov	rax, qword ptr [rip + 35077] # 0xffffffff80012178 <xr6aouzjkjmurg0+0xffffffff80012178>
ffffffff80009873: ff d0                	call	rax
ffffffff80009875: 88 45 c7             	mov	byte ptr [rbp - 57], al
ffffffff80009878: b8 01 00 00 00       	mov	eax, 1
ffffffff8000987d: 31 c9                	xor	ecx, ecx
ffffffff8000987f: 80 7d c7 02          	cmp	byte ptr [rbp - 57], 2
ffffffff80009883: 48 0f 44 c1          	cmove	rax, rcx
ffffffff80009887: 48 83 f8 00          	cmp	rax, 0
ffffffff8000988b: 75 06                	jne	0xffffffff80009893 <_ZN4core3ptr7mut_ptr31_$LT$impl$u20$$BP$mut$u20$T$GT$7is_null17ha79a1cd5f5a43489E+0x53>
ffffffff8000988d: c6 45 c6 00          	mov	byte ptr [rbp - 58], 0
ffffffff80009891: eb 10                	jmp	0xffffffff800098a3 <_ZN4core3ptr7mut_ptr31_$LT$impl$u20$$BP$mut$u20$T$GT$7is_null17ha79a1cd5f5a43489E+0x63>
ffffffff80009893: 8a 45 c7             	mov	al, byte ptr [rbp - 57]
ffffffff80009896: 88 c1                	mov	cl, al
ffffffff80009898: 80 e1 01             	and	cl, 1
ffffffff8000989b: 88 4d ff             	mov	byte ptr [rbp - 1], cl
ffffffff8000989e: 24 01                	and	al, 1
ffffffff800098a0: 88 45 c6             	mov	byte ptr [rbp - 58], al
ffffffff800098a3: 8a 45 c6             	mov	al, byte ptr [rbp - 58]
ffffffff800098a6: 24 01                	and	al, 1
ffffffff800098a8: 0f b6 c0             	movzx	eax, al
ffffffff800098ab: 48 83 c4 40          	add	rsp, 64
ffffffff800098af: 5d                   	pop	rbp
ffffffff800098b0: c3                   	ret
ffffffff800098b1: cc                   	int3
ffffffff800098b2: cc                   	int3
ffffffff800098b3: cc                   	int3
ffffffff800098b4: cc                   	int3
ffffffff800098b5: cc                   	int3
ffffffff800098b6: cc                   	int3
ffffffff800098b7: cc                   	int3
ffffffff800098b8: cc                   	int3
ffffffff800098b9: cc                   	int3
ffffffff800098ba: cc                   	int3
ffffffff800098bb: cc                   	int3
ffffffff800098bc: cc                   	int3
ffffffff800098bd: cc                   	int3
ffffffff800098be: cc                   	int3
ffffffff800098bf: cc                   	int3

ffffffff800098c0 <_ZN3qos4main17h5f2d368ec6d50b56E>:
ffffffff800098c0: 55                   	push	rbp
ffffffff800098c1: 48 89 e5             	mov	rbp, rsp
ffffffff800098c4: eb 00                	jmp	0xffffffff800098c6 <_ZN3qos4main17h5f2d368ec6d50b56E+0x6>
ffffffff800098c6: eb fe                	jmp	0xffffffff800098c6 <_ZN3qos4main17h5f2d368ec6d50b56E+0x6>
ffffffff800098c8: cc                   	int3
ffffffff800098c9: cc                   	int3
ffffffff800098ca: cc                   	int3
ffffffff800098cb: cc                   	int3
ffffffff800098cc: cc                   	int3
ffffffff800098cd: cc                   	int3
ffffffff800098ce: cc                   	int3
ffffffff800098cf: cc                   	int3

ffffffff800098d0 <_ZN4core4char7methods15encode_utf8_raw17h6ea87864e051bdf2E>:
ffffffff800098d0: 55                   	push	rbp
ffffffff800098d1: 48 89 e5             	mov	rbp, rsp
ffffffff800098d4: 48 81 ec f0 01 00 00 	sub	rsp, 496
ffffffff800098db: 48 89 95 20 fe ff ff 	mov	qword ptr [rbp - 480], rdx
ffffffff800098e2: 48 89 b5 18 fe ff ff 	mov	qword ptr [rbp - 488], rsi
ffffffff800098e9: 89 bd 3c fe ff ff    	mov	dword ptr [rbp - 452], edi
ffffffff800098ef: 48 89 b5 00 ff ff ff 	mov	qword ptr [rbp - 256], rsi
ffffffff800098f6: 48 89 95 08 ff ff ff 	mov	qword ptr [rbp - 248], rdx
ffffffff800098fd: 8b bd 3c fe ff ff    	mov	edi, dword ptr [rbp - 452]
ffffffff80009903: e8 c8 03 00 00       	call	0xffffffff80009cd0 <_ZN4core4char7methods8len_utf817h7405e4749878996aE>
ffffffff80009908: 48 8b bd 18 fe ff ff 	mov	rdi, qword ptr [rbp - 488]
ffffffff8000990f: 48 8b b5 20 fe ff ff 	mov	rsi, qword ptr [rbp - 480]
ffffffff80009916: 48 89 85 40 fe ff ff 	mov	qword ptr [rbp - 448], rax
ffffffff8000991d: 48 8b 85 40 fe ff ff 	mov	rax, qword ptr [rbp - 448]
ffffffff80009924: 48 89 85 28 fe ff ff 	mov	qword ptr [rbp - 472], rax
ffffffff8000992b: 48 89 bd 18 ff ff ff 	mov	qword ptr [rbp - 232], rdi
ffffffff80009932: 48 89 b5 20 ff ff ff 	mov	qword ptr [rbp - 224], rsi
ffffffff80009939: 48 8d 15 b8 7f 00 00 	lea	rdx, [rip + 32696]      # 0xffffffff800118f8 <xr6aouzjkjmurg0+0xffffffff800118f8>
ffffffff80009940: e8 cb 0c 00 00       	call	0xffffffff8000a610 <_ZN97_$LT$core..ops..range..RangeFull$u20$as$u20$core..slice..index..SliceIndex$LT$$u5b$T$u5d$$GT$$GT$9index_mut17hdd4b728b45fb6f54E>
ffffffff80009945: 48 8b 8d 28 fe ff ff 	mov	rcx, qword ptr [rbp - 472]
ffffffff8000994c: 48 89 8d 48 fe ff ff 	mov	qword ptr [rbp - 440], rcx
ffffffff80009953: 48 89 85 50 fe ff ff 	mov	qword ptr [rbp - 432], rax
ffffffff8000995a: 48 89 95 58 fe ff ff 	mov	qword ptr [rbp - 424], rdx
ffffffff80009961: 48 8b 85 48 fe ff ff 	mov	rax, qword ptr [rbp - 440]
ffffffff80009968: 48 ff c8             	dec	rax
ffffffff8000996b: 48 89 85 30 fe ff ff 	mov	qword ptr [rbp - 464], rax
ffffffff80009972: 48 83 e8 03          	sub	rax, 3
ffffffff80009976: 77 17                	ja	0xffffffff8000998f <_ZN4core4char7methods15encode_utf8_raw17h6ea87864e051bdf2E+0xbf>
ffffffff80009978: 48 8b 85 30 fe ff ff 	mov	rax, qword ptr [rbp - 464]
ffffffff8000997f: 48 8d 0d 02 86 ff ff 	lea	rcx, [rip - 31230]      # 0xffffffff80001f88 <str.1+0x78>
ffffffff80009986: 48 63 04 81          	movsxd	rax, dword ptr [rcx + 4*rax]
ffffffff8000998a: 48 01 c8             	add	rax, rcx
ffffffff8000998d: ff e0                	jmp	rax
ffffffff8000998f: 48 8b 8d 20 fe ff ff 	mov	rcx, qword ptr [rbp - 480]
ffffffff80009996: 48 8d b5 40 fe ff ff 	lea	rsi, [rbp - 448]
ffffffff8000999d: 48 89 75 88          	mov	qword ptr [rbp - 120], rsi
ffffffff800099a1: 48 89 75 90          	mov	qword ptr [rbp - 112], rsi
ffffffff800099a5: 48 8b 05 d4 87 00 00 	mov	rax, qword ptr [rip + 34772] # 0xffffffff80012180 <xr6aouzjkjmurg0+0xffffffff80012180>
ffffffff800099ac: 48 89 45 98          	mov	qword ptr [rbp - 104], rax
ffffffff800099b0: 48 89 45 a0          	mov	qword ptr [rbp - 96], rax
ffffffff800099b4: 48 8b 55 a0          	mov	rdx, qword ptr [rbp - 96]
ffffffff800099b8: 48 89 75 a8          	mov	qword ptr [rbp - 88], rsi
ffffffff800099bc: 48 8b 75 a8          	mov	rsi, qword ptr [rbp - 88]
ffffffff800099c0: 48 89 b5 c0 fe ff ff 	mov	qword ptr [rbp - 320], rsi
ffffffff800099c7: 48 89 95 c8 fe ff ff 	mov	qword ptr [rbp - 312], rdx
ffffffff800099ce: 48 8d b5 3c fe ff ff 	lea	rsi, [rbp - 452]
ffffffff800099d5: 48 89 75 b0          	mov	qword ptr [rbp - 80], rsi
ffffffff800099d9: 48 89 75 b8          	mov	qword ptr [rbp - 72], rsi
ffffffff800099dd: 48 8b 15 a4 87 00 00 	mov	rdx, qword ptr [rip + 34724] # 0xffffffff80012188 <xr6aouzjkjmurg0+0xffffffff80012188>
ffffffff800099e4: 48 89 55 c0          	mov	qword ptr [rbp - 64], rdx
ffffffff800099e8: 48 89 55 c8          	mov	qword ptr [rbp - 56], rdx
ffffffff800099ec: 48 8b 55 c8          	mov	rdx, qword ptr [rbp - 56]
ffffffff800099f0: 48 89 75 d0          	mov	qword ptr [rbp - 48], rsi
ffffffff800099f4: 48 8b 75 d0          	mov	rsi, qword ptr [rbp - 48]
ffffffff800099f8: 48 89 b5 d0 fe ff ff 	mov	qword ptr [rbp - 304], rsi
ffffffff800099ff: 48 89 95 d8 fe ff ff 	mov	qword ptr [rbp - 296], rdx
ffffffff80009a06: 48 89 8d f0 fe ff ff 	mov	qword ptr [rbp - 272], rcx
ffffffff80009a0d: 48 8d 8d f0 fe ff ff 	lea	rcx, [rbp - 272]
ffffffff80009a14: 48 89 4d d8          	mov	qword ptr [rbp - 40], rcx
ffffffff80009a18: 48 89 4d e0          	mov	qword ptr [rbp - 32], rcx
ffffffff80009a1c: 48 89 45 e8          	mov	qword ptr [rbp - 24], rax
ffffffff80009a20: 48 89 45 f0          	mov	qword ptr [rbp - 16], rax
ffffffff80009a24: 48 8b 45 f0          	mov	rax, qword ptr [rbp - 16]
ffffffff80009a28: 48 89 4d f8          	mov	qword ptr [rbp - 8], rcx
ffffffff80009a2c: 48 8b 4d f8          	mov	rcx, qword ptr [rbp - 8]
ffffffff80009a30: 48 89 8d e0 fe ff ff 	mov	qword ptr [rbp - 288], rcx
ffffffff80009a37: 48 89 85 e8 fe ff ff 	mov	qword ptr [rbp - 280], rax
ffffffff80009a3e: 48 8b 8d c0 fe ff ff 	mov	rcx, qword ptr [rbp - 320]
ffffffff80009a45: 48 8b 85 c8 fe ff ff 	mov	rax, qword ptr [rbp - 312]
ffffffff80009a4c: 48 89 8d 90 fe ff ff 	mov	qword ptr [rbp - 368], rcx
ffffffff80009a53: 48 89 85 98 fe ff ff 	mov	qword ptr [rbp - 360], rax
ffffffff80009a5a: 48 8b 8d d0 fe ff ff 	mov	rcx, qword ptr [rbp - 304]
ffffffff80009a61: 48 8b 85 d8 fe ff ff 	mov	rax, qword ptr [rbp - 296]
ffffffff80009a68: 48 89 8d a0 fe ff ff 	mov	qword ptr [rbp - 352], rcx
ffffffff80009a6f: 48 89 85 a8 fe ff ff 	mov	qword ptr [rbp - 344], rax
ffffffff80009a76: 48 8b 8d e0 fe ff ff 	mov	rcx, qword ptr [rbp - 288]
ffffffff80009a7d: 48 8b 85 e8 fe ff ff 	mov	rax, qword ptr [rbp - 280]
ffffffff80009a84: 48 89 8d b0 fe ff ff 	mov	qword ptr [rbp - 336], rcx
ffffffff80009a8b: 48 89 85 b8 fe ff ff 	mov	qword ptr [rbp - 328], rax
ffffffff80009a92: 48 8d 35 8f 7e 00 00 	lea	rsi, [rip + 32399]      # 0xffffffff80011928 <xr6aouzjkjmurg0+0xffffffff80011928>
ffffffff80009a99: 48 8d bd 60 fe ff ff 	lea	rdi, [rbp - 416]
ffffffff80009aa0: 48 89 bd 10 fe ff ff 	mov	qword ptr [rbp - 496], rdi
ffffffff80009aa7: 48 8d 8d 90 fe ff ff 	lea	rcx, [rbp - 368]
ffffffff80009aae: 41 b8 03 00 00 00    	mov	r8d, 3
ffffffff80009ab4: 4c 89 c2             	mov	rdx, r8
ffffffff80009ab7: e8 34 c1 ff ff       	call	0xffffffff80005bf0 <_ZN4core3fmt9Arguments6new_v117h4ece5d28621dbecaE>
ffffffff80009abc: 48 8b bd 10 fe ff ff 	mov	rdi, qword ptr [rbp - 496]
ffffffff80009ac3: 48 8d 35 8e 7e 00 00 	lea	rsi, [rip + 32398]      # 0xffffffff80011958 <xr6aouzjkjmurg0+0xffffffff80011958>
ffffffff80009aca: 48 8b 05 4f 86 00 00 	mov	rax, qword ptr [rip + 34383] # 0xffffffff80012120 <xr6aouzjkjmurg0+0xffffffff80012120>
ffffffff80009ad1: ff d0                	call	rax
ffffffff80009ad3: 0f 0b                	ud2
ffffffff80009ad5: 48 83 bd 58 fe ff ff 01      	cmp	qword ptr [rbp - 424], 1
ffffffff80009add: 0f 83 ca 01 00 00    	jae	0xffffffff80009cad <_ZN4core4char7methods15encode_utf8_raw17h6ea87864e051bdf2E+0x3dd>
ffffffff80009ae3: e9 a7 fe ff ff       	jmp	0xffffffff8000998f <_ZN4core4char7methods15encode_utf8_raw17h6ea87864e051bdf2E+0xbf>
ffffffff80009ae8: 48 83 bd 58 fe ff ff 02      	cmp	qword ptr [rbp - 424], 2
ffffffff80009af0: 0f 83 6f 01 00 00    	jae	0xffffffff80009c65 <_ZN4core4char7methods15encode_utf8_raw17h6ea87864e051bdf2E+0x395>
ffffffff80009af6: e9 94 fe ff ff       	jmp	0xffffffff8000998f <_ZN4core4char7methods15encode_utf8_raw17h6ea87864e051bdf2E+0xbf>
ffffffff80009afb: 48 83 bd 58 fe ff ff 03      	cmp	qword ptr [rbp - 424], 3
ffffffff80009b03: 0f 83 eb 00 00 00    	jae	0xffffffff80009bf4 <_ZN4core4char7methods15encode_utf8_raw17h6ea87864e051bdf2E+0x324>
ffffffff80009b09: e9 81 fe ff ff       	jmp	0xffffffff8000998f <_ZN4core4char7methods15encode_utf8_raw17h6ea87864e051bdf2E+0xbf>
ffffffff80009b0e: 48 83 bd 58 fe ff ff 04      	cmp	qword ptr [rbp - 424], 4
ffffffff80009b16: 0f 82 73 fe ff ff    	jb	0xffffffff8000998f <_ZN4core4char7methods15encode_utf8_raw17h6ea87864e051bdf2E+0xbf>
ffffffff80009b1c: 48 8b b5 50 fe ff ff 	mov	rsi, qword ptr [rbp - 432]
ffffffff80009b23: 48 89 b5 28 ff ff ff 	mov	qword ptr [rbp - 216], rsi
ffffffff80009b2a: 48 8b 95 50 fe ff ff 	mov	rdx, qword ptr [rbp - 432]
ffffffff80009b31: 48 89 d0             	mov	rax, rdx
ffffffff80009b34: 48 83 c0 01          	add	rax, 1
ffffffff80009b38: 48 89 85 30 ff ff ff 	mov	qword ptr [rbp - 208], rax
ffffffff80009b3f: 48 8b 8d 50 fe ff ff 	mov	rcx, qword ptr [rbp - 432]
ffffffff80009b46: 48 89 c8             	mov	rax, rcx
ffffffff80009b49: 48 83 c0 02          	add	rax, 2
ffffffff80009b4d: 48 89 85 38 ff ff ff 	mov	qword ptr [rbp - 200], rax
ffffffff80009b54: 48 8b 85 50 fe ff ff 	mov	rax, qword ptr [rbp - 432]
ffffffff80009b5b: 48 89 c7             	mov	rdi, rax
ffffffff80009b5e: 48 83 c7 03          	add	rdi, 3
ffffffff80009b62: 48 89 bd 40 ff ff ff 	mov	qword ptr [rbp - 192], rdi
ffffffff80009b69: 8b bd 3c fe ff ff    	mov	edi, dword ptr [rbp - 452]
ffffffff80009b6f: c1 ef 12             	shr	edi, 18
ffffffff80009b72: 83 e7 07             	and	edi, 7
ffffffff80009b75: 40 80 cf f0          	or	dil, -16
ffffffff80009b79: 40 88 3e             	mov	byte ptr [rsi], dil
ffffffff80009b7c: 8b b5 3c fe ff ff    	mov	esi, dword ptr [rbp - 452]
ffffffff80009b82: c1 ee 0c             	shr	esi, 12
ffffffff80009b85: 83 e6 3f             	and	esi, 63
ffffffff80009b88: 40 80 ce 80          	or	sil, -128
ffffffff80009b8c: 40 88 72 01          	mov	byte ptr [rdx + 1], sil
ffffffff80009b90: 8b 95 3c fe ff ff    	mov	edx, dword ptr [rbp - 452]
ffffffff80009b96: c1 ea 06             	shr	edx, 6
ffffffff80009b99: 83 e2 3f             	and	edx, 63
ffffffff80009b9c: 80 ca 80             	or	dl, -128
ffffffff80009b9f: 88 51 02             	mov	byte ptr [rcx + 2], dl
ffffffff80009ba2: 8b 8d 3c fe ff ff    	mov	ecx, dword ptr [rbp - 452]
ffffffff80009ba8: 83 e1 3f             	and	ecx, 63
ffffffff80009bab: 80 c9 80             	or	cl, -128
ffffffff80009bae: 88 48 03             	mov	byte ptr [rax + 3], cl
ffffffff80009bb1: 48 8b 95 20 fe ff ff 	mov	rdx, qword ptr [rbp - 480]
ffffffff80009bb8: 48 8b b5 18 fe ff ff 	mov	rsi, qword ptr [rbp - 488]
ffffffff80009bbf: 48 89 b5 78 ff ff ff 	mov	qword ptr [rbp - 136], rsi
ffffffff80009bc6: 48 89 55 80          	mov	qword ptr [rbp - 128], rdx
ffffffff80009bca: 48 8b 85 40 fe ff ff 	mov	rax, qword ptr [rbp - 448]
ffffffff80009bd1: 48 89 85 f8 fe ff ff 	mov	qword ptr [rbp - 264], rax
ffffffff80009bd8: 48 8b bd f8 fe ff ff 	mov	rdi, qword ptr [rbp - 264]
ffffffff80009bdf: 48 8d 0d 2a 7d 00 00 	lea	rcx, [rip + 32042]      # 0xffffffff80011910 <xr6aouzjkjmurg0+0xffffffff80011910>
ffffffff80009be6: e8 35 09 00 00       	call	0xffffffff8000a520 <_ZN108_$LT$core..ops..range..RangeTo$LT$usize$GT$$u20$as$u20$core..slice..index..SliceIndex$LT$$u5b$T$u5d$$GT$$GT$9index_mut17hf96440fc2d151774E>
ffffffff80009beb: 48 81 c4 f0 01 00 00 	add	rsp, 496
ffffffff80009bf2: 5d                   	pop	rbp
ffffffff80009bf3: c3                   	ret
ffffffff80009bf4: 48 8b 95 50 fe ff ff 	mov	rdx, qword ptr [rbp - 432]
ffffffff80009bfb: 48 89 95 48 ff ff ff 	mov	qword ptr [rbp - 184], rdx
ffffffff80009c02: 48 8b 8d 50 fe ff ff 	mov	rcx, qword ptr [rbp - 432]
ffffffff80009c09: 48 89 c8             	mov	rax, rcx
ffffffff80009c0c: 48 83 c0 01          	add	rax, 1
ffffffff80009c10: 48 89 85 50 ff ff ff 	mov	qword ptr [rbp - 176], rax
ffffffff80009c17: 48 8b 85 50 fe ff ff 	mov	rax, qword ptr [rbp - 432]
ffffffff80009c1e: 48 89 c6             	mov	rsi, rax
ffffffff80009c21: 48 83 c6 02          	add	rsi, 2
ffffffff80009c25: 48 89 b5 58 ff ff ff 	mov	qword ptr [rbp - 168], rsi
ffffffff80009c2c: 8b b5 3c fe ff ff    	mov	esi, dword ptr [rbp - 452]
ffffffff80009c32: c1 ee 0c             	shr	esi, 12
ffffffff80009c35: 83 e6 0f             	and	esi, 15
ffffffff80009c38: 40 80 ce e0          	or	sil, -32
ffffffff80009c3c: 40 88 32             	mov	byte ptr [rdx], sil
ffffffff80009c3f: 8b 95 3c fe ff ff    	mov	edx, dword ptr [rbp - 452]
ffffffff80009c45: c1 ea 06             	shr	edx, 6
ffffffff80009c48: 83 e2 3f             	and	edx, 63
ffffffff80009c4b: 80 ca 80             	or	dl, -128
ffffffff80009c4e: 88 51 01             	mov	byte ptr [rcx + 1], dl
ffffffff80009c51: 8b 8d 3c fe ff ff    	mov	ecx, dword ptr [rbp - 452]
ffffffff80009c57: 83 e1 3f             	and	ecx, 63
ffffffff80009c5a: 80 c9 80             	or	cl, -128
ffffffff80009c5d: 88 48 02             	mov	byte ptr [rax + 2], cl
ffffffff80009c60: e9 4c ff ff ff       	jmp	0xffffffff80009bb1 <_ZN4core4char7methods15encode_utf8_raw17h6ea87864e051bdf2E+0x2e1>
ffffffff80009c65: 48 8b 8d 50 fe ff ff 	mov	rcx, qword ptr [rbp - 432]
ffffffff80009c6c: 48 89 8d 60 ff ff ff 	mov	qword ptr [rbp - 160], rcx
ffffffff80009c73: 48 8b 85 50 fe ff ff 	mov	rax, qword ptr [rbp - 432]
ffffffff80009c7a: 48 89 c2             	mov	rdx, rax
ffffffff80009c7d: 48 83 c2 01          	add	rdx, 1
ffffffff80009c81: 48 89 95 68 ff ff ff 	mov	qword ptr [rbp - 152], rdx
ffffffff80009c88: 8b 95 3c fe ff ff    	mov	edx, dword ptr [rbp - 452]
ffffffff80009c8e: c1 ea 06             	shr	edx, 6
ffffffff80009c91: 83 e2 1f             	and	edx, 31
ffffffff80009c94: 80 ca c0             	or	dl, -64
ffffffff80009c97: 88 11                	mov	byte ptr [rcx], dl
ffffffff80009c99: 8b 8d 3c fe ff ff    	mov	ecx, dword ptr [rbp - 452]
ffffffff80009c9f: 83 e1 3f             	and	ecx, 63
ffffffff80009ca2: 80 c9 80             	or	cl, -128
ffffffff80009ca5: 88 48 01             	mov	byte ptr [rax + 1], cl
ffffffff80009ca8: e9 04 ff ff ff       	jmp	0xffffffff80009bb1 <_ZN4core4char7methods15encode_utf8_raw17h6ea87864e051bdf2E+0x2e1>
ffffffff80009cad: 48 8b 85 50 fe ff ff 	mov	rax, qword ptr [rbp - 432]
ffffffff80009cb4: 48 89 85 70 ff ff ff 	mov	qword ptr [rbp - 144], rax
ffffffff80009cbb: 8b 8d 3c fe ff ff    	mov	ecx, dword ptr [rbp - 452]
ffffffff80009cc1: 88 08                	mov	byte ptr [rax], cl
ffffffff80009cc3: e9 e9 fe ff ff       	jmp	0xffffffff80009bb1 <_ZN4core4char7methods15encode_utf8_raw17h6ea87864e051bdf2E+0x2e1>
ffffffff80009cc8: cc                   	int3
ffffffff80009cc9: cc                   	int3
ffffffff80009cca: cc                   	int3
ffffffff80009ccb: cc                   	int3
ffffffff80009ccc: cc                   	int3
ffffffff80009ccd: cc                   	int3
ffffffff80009cce: cc                   	int3
ffffffff80009ccf: cc                   	int3

ffffffff80009cd0 <_ZN4core4char7methods8len_utf817h7405e4749878996aE>:
ffffffff80009cd0: 55                   	push	rbp
ffffffff80009cd1: 48 89 e5             	mov	rbp, rsp
ffffffff80009cd4: 48 83 ec 18          	sub	rsp, 24
ffffffff80009cd8: 89 7d ec             	mov	dword ptr [rbp - 20], edi
ffffffff80009cdb: 89 7d fc             	mov	dword ptr [rbp - 4], edi
ffffffff80009cde: 81 ff 80 00 00 00    	cmp	edi, 128
ffffffff80009ce4: 72 0c                	jb	0xffffffff80009cf2 <_ZN4core4char7methods8len_utf817h7405e4749878996aE+0x22>
ffffffff80009ce6: 8b 45 ec             	mov	eax, dword ptr [rbp - 20]
ffffffff80009ce9: 3d 00 08 00 00       	cmp	eax, 2048
ffffffff80009cee: 72 20                	jb	0xffffffff80009d10 <_ZN4core4char7methods8len_utf817h7405e4749878996aE+0x40>
ffffffff80009cf0: eb 12                	jmp	0xffffffff80009d04 <_ZN4core4char7methods8len_utf817h7405e4749878996aE+0x34>
ffffffff80009cf2: 48 c7 45 f0 01 00 00 00      	mov	qword ptr [rbp - 16], 1
ffffffff80009cfa: 48 8b 45 f0          	mov	rax, qword ptr [rbp - 16]
ffffffff80009cfe: 48 83 c4 18          	add	rsp, 24
ffffffff80009d02: 5d                   	pop	rbp
ffffffff80009d03: c3                   	ret
ffffffff80009d04: 8b 45 ec             	mov	eax, dword ptr [rbp - 20]
ffffffff80009d07: 3d 00 00 01 00       	cmp	eax, 65536
ffffffff80009d0c: 72 16                	jb	0xffffffff80009d24 <_ZN4core4char7methods8len_utf817h7405e4749878996aE+0x54>
ffffffff80009d0e: eb 0a                	jmp	0xffffffff80009d1a <_ZN4core4char7methods8len_utf817h7405e4749878996aE+0x4a>
ffffffff80009d10: 48 c7 45 f0 02 00 00 00      	mov	qword ptr [rbp - 16], 2
ffffffff80009d18: eb e0                	jmp	0xffffffff80009cfa <_ZN4core4char7methods8len_utf817h7405e4749878996aE+0x2a>
ffffffff80009d1a: 48 c7 45 f0 04 00 00 00      	mov	qword ptr [rbp - 16], 4
ffffffff80009d22: eb 08                	jmp	0xffffffff80009d2c <_ZN4core4char7methods8len_utf817h7405e4749878996aE+0x5c>
ffffffff80009d24: 48 c7 45 f0 03 00 00 00      	mov	qword ptr [rbp - 16], 3
ffffffff80009d2c: eb ea                	jmp	0xffffffff80009d18 <_ZN4core4char7methods8len_utf817h7405e4749878996aE+0x48>
ffffffff80009d2e: cc                   	int3
ffffffff80009d2f: cc                   	int3

ffffffff80009d30 <_ZN4core6option15Option$LT$T$GT$16unwrap_unchecked17h579d50e7d7102741E>:
ffffffff80009d30: 55                   	push	rbp
ffffffff80009d31: 48 89 e5             	mov	rbp, rsp
ffffffff80009d34: 48 83 ec 10          	sub	rsp, 16
ffffffff80009d38: 48 89 7d f0          	mov	qword ptr [rbp - 16], rdi
ffffffff80009d3c: 48 8b 55 f0          	mov	rdx, qword ptr [rbp - 16]
ffffffff80009d40: b8 01 00 00 00       	mov	eax, 1
ffffffff80009d45: 31 c9                	xor	ecx, ecx
ffffffff80009d47: 48 83 fa 00          	cmp	rdx, 0
ffffffff80009d4b: 48 0f 44 c1          	cmove	rax, rcx
ffffffff80009d4f: 48 83 f8 00          	cmp	rax, 0
ffffffff80009d53: 75 07                	jne	0xffffffff80009d5c <_ZN4core6option15Option$LT$T$GT$16unwrap_unchecked17h579d50e7d7102741E+0x2c>
ffffffff80009d55: e8 06 c3 ff ff       	call	0xffffffff80006060 <_ZN4core4hint21unreachable_unchecked17h65fec5232fc3a4e3E>
ffffffff80009d5a: 0f 0b                	ud2
ffffffff80009d5c: 48 8b 45 f0          	mov	rax, qword ptr [rbp - 16]
ffffffff80009d60: 48 89 45 f8          	mov	qword ptr [rbp - 8], rax
ffffffff80009d64: 48 83 c4 10          	add	rsp, 16
ffffffff80009d68: 5d                   	pop	rbp
ffffffff80009d69: c3                   	ret
ffffffff80009d6a: cc                   	int3
ffffffff80009d6b: cc                   	int3
ffffffff80009d6c: cc                   	int3
ffffffff80009d6d: cc                   	int3
ffffffff80009d6e: cc                   	int3
ffffffff80009d6f: cc                   	int3

ffffffff80009d70 <_ZN4core6option15Option$LT$T$GT$16unwrap_unchecked17h801c467bc643e9f0E>:
ffffffff80009d70: 55                   	push	rbp
ffffffff80009d71: 48 89 e5             	mov	rbp, rsp
ffffffff80009d74: 48 83 ec 10          	sub	rsp, 16
ffffffff80009d78: 48 89 7d f0          	mov	qword ptr [rbp - 16], rdi
ffffffff80009d7c: 48 8b 55 f0          	mov	rdx, qword ptr [rbp - 16]
ffffffff80009d80: b8 01 00 00 00       	mov	eax, 1
ffffffff80009d85: 31 c9                	xor	ecx, ecx
ffffffff80009d87: 48 83 fa 00          	cmp	rdx, 0
ffffffff80009d8b: 48 0f 44 c1          	cmove	rax, rcx
ffffffff80009d8f: 48 83 f8 00          	cmp	rax, 0
ffffffff80009d93: 75 07                	jne	0xffffffff80009d9c <_ZN4core6option15Option$LT$T$GT$16unwrap_unchecked17h801c467bc643e9f0E+0x2c>
ffffffff80009d95: e8 c6 c2 ff ff       	call	0xffffffff80006060 <_ZN4core4hint21unreachable_unchecked17h65fec5232fc3a4e3E>
ffffffff80009d9a: 0f 0b                	ud2
ffffffff80009d9c: 48 8b 45 f0          	mov	rax, qword ptr [rbp - 16]
ffffffff80009da0: 48 89 45 f8          	mov	qword ptr [rbp - 8], rax
ffffffff80009da4: 48 83 c4 10          	add	rsp, 16
ffffffff80009da8: 5d                   	pop	rbp
ffffffff80009da9: c3                   	ret
ffffffff80009daa: cc                   	int3
ffffffff80009dab: cc                   	int3
ffffffff80009dac: cc                   	int3
ffffffff80009dad: cc                   	int3
ffffffff80009dae: cc                   	int3
ffffffff80009daf: cc                   	int3

ffffffff80009db0 <_ZN4core6option15Option$LT$T$GT$3map17h77d3681668e7bdbfE>:
ffffffff80009db0: 55                   	push	rbp
ffffffff80009db1: 48 89 e5             	mov	rbp, rsp
ffffffff80009db4: 48 83 ec 30          	sub	rsp, 48
ffffffff80009db8: 48 89 7d d0          	mov	qword ptr [rbp - 48], rdi
ffffffff80009dbc: c6 45 ef 01          	mov	byte ptr [rbp - 17], 1
ffffffff80009dc0: 48 8b 55 d0          	mov	rdx, qword ptr [rbp - 48]
ffffffff80009dc4: b8 01 00 00 00       	mov	eax, 1
ffffffff80009dc9: 31 c9                	xor	ecx, ecx
ffffffff80009dcb: 48 83 fa 00          	cmp	rdx, 0
ffffffff80009dcf: 48 0f 44 c1          	cmove	rax, rcx
ffffffff80009dd3: 48 83 f8 00          	cmp	rax, 0
ffffffff80009dd7: 75 0a                	jne	0xffffffff80009de3 <_ZN4core6option15Option$LT$T$GT$3map17h77d3681668e7bdbfE+0x33>
ffffffff80009dd9: 48 c7 45 d8 00 00 00 00      	mov	qword ptr [rbp - 40], 0
ffffffff80009de1: eb 1d                	jmp	0xffffffff80009e00 <_ZN4core6option15Option$LT$T$GT$3map17h77d3681668e7bdbfE+0x50>
ffffffff80009de3: 48 8b 45 d0          	mov	rax, qword ptr [rbp - 48]
ffffffff80009de7: 48 89 45 f8          	mov	qword ptr [rbp - 8], rax
ffffffff80009deb: c6 45 ef 00          	mov	byte ptr [rbp - 17], 0
ffffffff80009def: 48 89 45 e0          	mov	qword ptr [rbp - 32], rax
ffffffff80009df3: 48 8b 7d e0          	mov	rdi, qword ptr [rbp - 32]
ffffffff80009df7: e8 14 e4 ff ff       	call	0xffffffff80008210 <_ZN3qos6limine18LiminePtr$LT$T$GT$3get28_$u7b$$u7b$closure$u7d$$u7d$17ha158af6b0290f401E>
ffffffff80009dfc: 48 89 45 d8          	mov	qword ptr [rbp - 40], rax
ffffffff80009e00: f6 45 ef 01          	test	byte ptr [rbp - 17], 1
ffffffff80009e04: 75 0a                	jne	0xffffffff80009e10 <_ZN4core6option15Option$LT$T$GT$3map17h77d3681668e7bdbfE+0x60>
ffffffff80009e06: 48 8b 45 d8          	mov	rax, qword ptr [rbp - 40]
ffffffff80009e0a: 48 83 c4 30          	add	rsp, 48
ffffffff80009e0e: 5d                   	pop	rbp
ffffffff80009e0f: c3                   	ret
ffffffff80009e10: eb f4                	jmp	0xffffffff80009e06 <_ZN4core6option15Option$LT$T$GT$3map17h77d3681668e7bdbfE+0x56>
ffffffff80009e12: cc                   	int3
ffffffff80009e13: cc                   	int3
ffffffff80009e14: cc                   	int3
ffffffff80009e15: cc                   	int3
ffffffff80009e16: cc                   	int3
ffffffff80009e17: cc                   	int3
ffffffff80009e18: cc                   	int3
ffffffff80009e19: cc                   	int3
ffffffff80009e1a: cc                   	int3
ffffffff80009e1b: cc                   	int3
ffffffff80009e1c: cc                   	int3
ffffffff80009e1d: cc                   	int3
ffffffff80009e1e: cc                   	int3
ffffffff80009e1f: cc                   	int3

ffffffff80009e20 <_ZN4core6option15Option$LT$T$GT$3map17haab17511d1aab030E>:
ffffffff80009e20: 55                   	push	rbp
ffffffff80009e21: 48 89 e5             	mov	rbp, rsp
ffffffff80009e24: 48 83 ec 30          	sub	rsp, 48
ffffffff80009e28: 48 89 7d d0          	mov	qword ptr [rbp - 48], rdi
ffffffff80009e2c: c6 45 ef 01          	mov	byte ptr [rbp - 17], 1
ffffffff80009e30: 48 8b 55 d0          	mov	rdx, qword ptr [rbp - 48]
ffffffff80009e34: b8 01 00 00 00       	mov	eax, 1
ffffffff80009e39: 31 c9                	xor	ecx, ecx
ffffffff80009e3b: 48 83 fa 00          	cmp	rdx, 0
ffffffff80009e3f: 48 0f 44 c1          	cmove	rax, rcx
ffffffff80009e43: 48 83 f8 00          	cmp	rax, 0
ffffffff80009e47: 75 0a                	jne	0xffffffff80009e53 <_ZN4core6option15Option$LT$T$GT$3map17haab17511d1aab030E+0x33>
ffffffff80009e49: 48 c7 45 d8 00 00 00 00      	mov	qword ptr [rbp - 40], 0
ffffffff80009e51: eb 1d                	jmp	0xffffffff80009e70 <_ZN4core6option15Option$LT$T$GT$3map17haab17511d1aab030E+0x50>
ffffffff80009e53: 48 8b 45 d0          	mov	rax, qword ptr [rbp - 48]
ffffffff80009e57: 48 89 45 f8          	mov	qword ptr [rbp - 8], rax
ffffffff80009e5b: c6 45 ef 00          	mov	byte ptr [rbp - 17], 0
ffffffff80009e5f: 48 89 45 e0          	mov	qword ptr [rbp - 32], rax
ffffffff80009e63: 48 8b 7d e0          	mov	rdi, qword ptr [rbp - 32]
ffffffff80009e67: e8 44 e3 ff ff       	call	0xffffffff800081b0 <_ZN3qos6limine18LiminePtr$LT$T$GT$3get28_$u7b$$u7b$closure$u7d$$u7d$17h1ddc1a216915c09aE>
ffffffff80009e6c: 48 89 45 d8          	mov	qword ptr [rbp - 40], rax
ffffffff80009e70: f6 45 ef 01          	test	byte ptr [rbp - 17], 1
ffffffff80009e74: 75 0a                	jne	0xffffffff80009e80 <_ZN4core6option15Option$LT$T$GT$3map17haab17511d1aab030E+0x60>
ffffffff80009e76: 48 8b 45 d8          	mov	rax, qword ptr [rbp - 40]
ffffffff80009e7a: 48 83 c4 30          	add	rsp, 48
ffffffff80009e7e: 5d                   	pop	rbp
ffffffff80009e7f: c3                   	ret
ffffffff80009e80: eb f4                	jmp	0xffffffff80009e76 <_ZN4core6option15Option$LT$T$GT$3map17haab17511d1aab030E+0x56>
ffffffff80009e82: cc                   	int3
ffffffff80009e83: cc                   	int3
ffffffff80009e84: cc                   	int3
ffffffff80009e85: cc                   	int3
ffffffff80009e86: cc                   	int3
ffffffff80009e87: cc                   	int3
ffffffff80009e88: cc                   	int3
ffffffff80009e89: cc                   	int3
ffffffff80009e8a: cc                   	int3
ffffffff80009e8b: cc                   	int3
ffffffff80009e8c: cc                   	int3
ffffffff80009e8d: cc                   	int3
ffffffff80009e8e: cc                   	int3
ffffffff80009e8f: cc                   	int3

ffffffff80009e90 <_ZN4core6option15Option$LT$T$GT$3map17hda05e0329c654badE>:
ffffffff80009e90: 55                   	push	rbp
ffffffff80009e91: 48 89 e5             	mov	rbp, rsp
ffffffff80009e94: 48 83 ec 30          	sub	rsp, 48
ffffffff80009e98: 48 89 7d d0          	mov	qword ptr [rbp - 48], rdi
ffffffff80009e9c: c6 45 ef 01          	mov	byte ptr [rbp - 17], 1
ffffffff80009ea0: 48 8b 55 d0          	mov	rdx, qword ptr [rbp - 48]
ffffffff80009ea4: b8 01 00 00 00       	mov	eax, 1
ffffffff80009ea9: 31 c9                	xor	ecx, ecx
ffffffff80009eab: 48 83 fa 00          	cmp	rdx, 0
ffffffff80009eaf: 48 0f 44 c1          	cmove	rax, rcx
ffffffff80009eb3: 48 83 f8 00          	cmp	rax, 0
ffffffff80009eb7: 75 0a                	jne	0xffffffff80009ec3 <_ZN4core6option15Option$LT$T$GT$3map17hda05e0329c654badE+0x33>
ffffffff80009eb9: 48 c7 45 d8 00 00 00 00      	mov	qword ptr [rbp - 40], 0
ffffffff80009ec1: eb 1d                	jmp	0xffffffff80009ee0 <_ZN4core6option15Option$LT$T$GT$3map17hda05e0329c654badE+0x50>
ffffffff80009ec3: 48 8b 45 d0          	mov	rax, qword ptr [rbp - 48]
ffffffff80009ec7: 48 89 45 f8          	mov	qword ptr [rbp - 8], rax
ffffffff80009ecb: c6 45 ef 00          	mov	byte ptr [rbp - 17], 0
ffffffff80009ecf: 48 89 45 e0          	mov	qword ptr [rbp - 32], rax
ffffffff80009ed3: 48 8b 7d e0          	mov	rdi, qword ptr [rbp - 32]
ffffffff80009ed7: e8 64 e3 ff ff       	call	0xffffffff80008240 <_ZN3qos6limine18LiminePtr$LT$T$GT$3get28_$u7b$$u7b$closure$u7d$$u7d$17ha19b7cb5102a6dd0E>
ffffffff80009edc: 48 89 45 d8          	mov	qword ptr [rbp - 40], rax
ffffffff80009ee0: f6 45 ef 01          	test	byte ptr [rbp - 17], 1
ffffffff80009ee4: 75 0a                	jne	0xffffffff80009ef0 <_ZN4core6option15Option$LT$T$GT$3map17hda05e0329c654badE+0x60>
ffffffff80009ee6: 48 8b 45 d8          	mov	rax, qword ptr [rbp - 40]
ffffffff80009eea: 48 83 c4 30          	add	rsp, 48
ffffffff80009eee: 5d                   	pop	rbp
ffffffff80009eef: c3                   	ret
ffffffff80009ef0: eb f4                	jmp	0xffffffff80009ee6 <_ZN4core6option15Option$LT$T$GT$3map17hda05e0329c654badE+0x56>
ffffffff80009ef2: cc                   	int3
ffffffff80009ef3: cc                   	int3
ffffffff80009ef4: cc                   	int3
ffffffff80009ef5: cc                   	int3
ffffffff80009ef6: cc                   	int3
ffffffff80009ef7: cc                   	int3
ffffffff80009ef8: cc                   	int3
ffffffff80009ef9: cc                   	int3
ffffffff80009efa: cc                   	int3
ffffffff80009efb: cc                   	int3
ffffffff80009efc: cc                   	int3
ffffffff80009efd: cc                   	int3
ffffffff80009efe: cc                   	int3
ffffffff80009eff: cc                   	int3

ffffffff80009f00 <_ZN4core6option15Option$LT$T$GT$3map17he176b287999c2f33E>:
ffffffff80009f00: 55                   	push	rbp
ffffffff80009f01: 48 89 e5             	mov	rbp, rsp
ffffffff80009f04: 48 83 ec 30          	sub	rsp, 48
ffffffff80009f08: 48 89 7d d0          	mov	qword ptr [rbp - 48], rdi
ffffffff80009f0c: c6 45 ef 01          	mov	byte ptr [rbp - 17], 1
ffffffff80009f10: 48 8b 55 d0          	mov	rdx, qword ptr [rbp - 48]
ffffffff80009f14: b8 01 00 00 00       	mov	eax, 1
ffffffff80009f19: 31 c9                	xor	ecx, ecx
ffffffff80009f1b: 48 83 fa 00          	cmp	rdx, 0
ffffffff80009f1f: 48 0f 44 c1          	cmove	rax, rcx
ffffffff80009f23: 48 83 f8 00          	cmp	rax, 0
ffffffff80009f27: 75 0a                	jne	0xffffffff80009f33 <_ZN4core6option15Option$LT$T$GT$3map17he176b287999c2f33E+0x33>
ffffffff80009f29: 48 c7 45 d8 00 00 00 00      	mov	qword ptr [rbp - 40], 0
ffffffff80009f31: eb 1d                	jmp	0xffffffff80009f50 <_ZN4core6option15Option$LT$T$GT$3map17he176b287999c2f33E+0x50>
ffffffff80009f33: 48 8b 45 d0          	mov	rax, qword ptr [rbp - 48]
ffffffff80009f37: 48 89 45 f8          	mov	qword ptr [rbp - 8], rax
ffffffff80009f3b: c6 45 ef 00          	mov	byte ptr [rbp - 17], 0
ffffffff80009f3f: 48 89 45 e0          	mov	qword ptr [rbp - 32], rax
ffffffff80009f43: 48 8b 7d e0          	mov	rdi, qword ptr [rbp - 32]
ffffffff80009f47: e8 94 e2 ff ff       	call	0xffffffff800081e0 <_ZN3qos6limine18LiminePtr$LT$T$GT$3get28_$u7b$$u7b$closure$u7d$$u7d$17h7744237122776c29E>
ffffffff80009f4c: 48 89 45 d8          	mov	qword ptr [rbp - 40], rax
ffffffff80009f50: f6 45 ef 01          	test	byte ptr [rbp - 17], 1
ffffffff80009f54: 75 0a                	jne	0xffffffff80009f60 <_ZN4core6option15Option$LT$T$GT$3map17he176b287999c2f33E+0x60>
ffffffff80009f56: 48 8b 45 d8          	mov	rax, qword ptr [rbp - 40]
ffffffff80009f5a: 48 83 c4 30          	add	rsp, 48
ffffffff80009f5e: 5d                   	pop	rbp
ffffffff80009f5f: c3                   	ret
ffffffff80009f60: eb f4                	jmp	0xffffffff80009f56 <_ZN4core6option15Option$LT$T$GT$3map17he176b287999c2f33E+0x56>
ffffffff80009f62: cc                   	int3
ffffffff80009f63: cc                   	int3
ffffffff80009f64: cc                   	int3
ffffffff80009f65: cc                   	int3
ffffffff80009f66: cc                   	int3
ffffffff80009f67: cc                   	int3
ffffffff80009f68: cc                   	int3
ffffffff80009f69: cc                   	int3
ffffffff80009f6a: cc                   	int3
ffffffff80009f6b: cc                   	int3
ffffffff80009f6c: cc                   	int3
ffffffff80009f6d: cc                   	int3
ffffffff80009f6e: cc                   	int3
ffffffff80009f6f: cc                   	int3

ffffffff80009f70 <_ZN4core6option15Option$LT$T$GT$3map17hf9927d57b1b7a716E>:
ffffffff80009f70: 55                   	push	rbp
ffffffff80009f71: 48 89 e5             	mov	rbp, rsp
ffffffff80009f74: 48 83 ec 20          	sub	rsp, 32
ffffffff80009f78: 89 7d e0             	mov	dword ptr [rbp - 32], edi
ffffffff80009f7b: 89 75 e4             	mov	dword ptr [rbp - 28], esi
ffffffff80009f7e: c6 45 f7 01          	mov	byte ptr [rbp - 9], 1
ffffffff80009f82: 8b 45 e0             	mov	eax, dword ptr [rbp - 32]
ffffffff80009f85: 48 83 f8 00          	cmp	rax, 0
ffffffff80009f89: 75 09                	jne	0xffffffff80009f94 <_ZN4core6option15Option$LT$T$GT$3map17hf9927d57b1b7a716E+0x24>
ffffffff80009f8b: c7 45 ec 00 00 11 00 	mov	dword ptr [rbp - 20], 1114112
ffffffff80009f92: eb 18                	jmp	0xffffffff80009fac <_ZN4core6option15Option$LT$T$GT$3map17hf9927d57b1b7a716E+0x3c>
ffffffff80009f94: 8b 45 e4             	mov	eax, dword ptr [rbp - 28]
ffffffff80009f97: 89 45 fc             	mov	dword ptr [rbp - 4], eax
ffffffff80009f9a: c6 45 f7 00          	mov	byte ptr [rbp - 9], 0
ffffffff80009f9e: 89 45 f0             	mov	dword ptr [rbp - 16], eax
ffffffff80009fa1: 8b 7d f0             	mov	edi, dword ptr [rbp - 16]
ffffffff80009fa4: e8 f7 ae ff ff       	call	0xffffffff80004ea0 <_ZN81_$LT$core..str..iter..Chars$u20$as$u20$core..iter..traits..iterator..Iterator$GT$4next28_$u7b$$u7b$closure$u7d$$u7d$17hd8f3cc2d55d9e452E>
ffffffff80009fa9: 89 45 ec             	mov	dword ptr [rbp - 20], eax
ffffffff80009fac: f6 45 f7 01          	test	byte ptr [rbp - 9], 1
ffffffff80009fb0: 75 09                	jne	0xffffffff80009fbb <_ZN4core6option15Option$LT$T$GT$3map17hf9927d57b1b7a716E+0x4b>
ffffffff80009fb2: 8b 45 ec             	mov	eax, dword ptr [rbp - 20]
ffffffff80009fb5: 48 83 c4 20          	add	rsp, 32
ffffffff80009fb9: 5d                   	pop	rbp
ffffffff80009fba: c3                   	ret
ffffffff80009fbb: eb f5                	jmp	0xffffffff80009fb2 <_ZN4core6option15Option$LT$T$GT$3map17hf9927d57b1b7a716E+0x42>
ffffffff80009fbd: cc                   	int3
ffffffff80009fbe: cc                   	int3
ffffffff80009fbf: cc                   	int3

ffffffff80009fc0 <_ZN4core6option15Option$LT$T$GT$5ok_or17h958e15cd9c9917a7E>:
ffffffff80009fc0: 55                   	push	rbp
ffffffff80009fc1: 48 89 e5             	mov	rbp, rsp
ffffffff80009fc4: 48 83 ec 40          	sub	rsp, 64
ffffffff80009fc8: 48 89 7d c0          	mov	qword ptr [rbp - 64], rdi
ffffffff80009fcc: 48 89 75 c8          	mov	qword ptr [rbp - 56], rsi
ffffffff80009fd0: c6 45 e7 01          	mov	byte ptr [rbp - 25], 1
ffffffff80009fd4: 48 8b 55 c0          	mov	rdx, qword ptr [rbp - 64]
ffffffff80009fd8: b8 01 00 00 00       	mov	eax, 1
ffffffff80009fdd: 31 c9                	xor	ecx, ecx
ffffffff80009fdf: 48 83 fa 00          	cmp	rdx, 0
ffffffff80009fe3: 48 0f 44 c1          	cmove	rax, rcx
ffffffff80009fe7: 48 83 f8 00          	cmp	rax, 0
ffffffff80009feb: 75 0e                	jne	0xffffffff80009ffb <_ZN4core6option15Option$LT$T$GT$5ok_or17h958e15cd9c9917a7E+0x3b>
ffffffff80009fed: c6 45 e7 00          	mov	byte ptr [rbp - 25], 0
ffffffff80009ff1: 48 c7 45 d0 00 00 00 00      	mov	qword ptr [rbp - 48], 0
ffffffff80009ff9: eb 18                	jmp	0xffffffff8000a013 <_ZN4core6option15Option$LT$T$GT$5ok_or17h958e15cd9c9917a7E+0x53>
ffffffff80009ffb: 48 8b 4d c0          	mov	rcx, qword ptr [rbp - 64]
ffffffff80009fff: 48 8b 45 c8          	mov	rax, qword ptr [rbp - 56]
ffffffff8000a003: 48 89 4d f0          	mov	qword ptr [rbp - 16], rcx
ffffffff8000a007: 48 89 45 f8          	mov	qword ptr [rbp - 8], rax
ffffffff8000a00b: 48 89 4d d0          	mov	qword ptr [rbp - 48], rcx
ffffffff8000a00f: 48 89 45 d8          	mov	qword ptr [rbp - 40], rax
ffffffff8000a013: f6 45 e7 01          	test	byte ptr [rbp - 25], 1
ffffffff8000a017: 75 0e                	jne	0xffffffff8000a027 <_ZN4core6option15Option$LT$T$GT$5ok_or17h958e15cd9c9917a7E+0x67>
ffffffff8000a019: 48 8b 45 d0          	mov	rax, qword ptr [rbp - 48]
ffffffff8000a01d: 48 8b 55 d8          	mov	rdx, qword ptr [rbp - 40]
ffffffff8000a021: 48 83 c4 40          	add	rsp, 64
ffffffff8000a025: 5d                   	pop	rbp
ffffffff8000a026: c3                   	ret
ffffffff8000a027: eb f0                	jmp	0xffffffff8000a019 <_ZN4core6option15Option$LT$T$GT$5ok_or17h958e15cd9c9917a7E+0x59>
ffffffff8000a029: cc                   	int3
ffffffff8000a02a: cc                   	int3
ffffffff8000a02b: cc                   	int3
ffffffff8000a02c: cc                   	int3
ffffffff8000a02d: cc                   	int3
ffffffff8000a02e: cc                   	int3
ffffffff8000a02f: cc                   	int3

ffffffff8000a030 <_ZN4core6option15Option$LT$T$GT$6unwrap17h2fb93aae6979bb02E>:
ffffffff8000a030: 55                   	push	rbp
ffffffff8000a031: 48 89 e5             	mov	rbp, rsp
ffffffff8000a034: 48 83 ec 20          	sub	rsp, 32
ffffffff8000a038: 48 89 75 e8          	mov	qword ptr [rbp - 24], rsi
ffffffff8000a03c: 48 89 7d f0          	mov	qword ptr [rbp - 16], rdi
ffffffff8000a040: 48 8b 55 f0          	mov	rdx, qword ptr [rbp - 16]
ffffffff8000a044: b8 01 00 00 00       	mov	eax, 1
ffffffff8000a049: 31 c9                	xor	ecx, ecx
ffffffff8000a04b: 48 83 fa 00          	cmp	rdx, 0
ffffffff8000a04f: 48 0f 44 c1          	cmove	rax, rcx
ffffffff8000a053: 48 83 f8 00          	cmp	rax, 0
ffffffff8000a057: 75 1b                	jne	0xffffffff8000a074 <_ZN4core6option15Option$LT$T$GT$6unwrap17h2fb93aae6979bb02E+0x44>
ffffffff8000a059: 48 8b 55 e8          	mov	rdx, qword ptr [rbp - 24]
ffffffff8000a05d: 48 8d 3d be 7f ff ff 	lea	rdi, [rip - 32834]      # 0xffffffff80002022 <str.1+0x112>
ffffffff8000a064: 48 8b 05 75 80 00 00 	mov	rax, qword ptr [rip + 32885] # 0xffffffff800120e0 <xr6aouzjkjmurg0+0xffffffff800120e0>
ffffffff8000a06b: be 2b 00 00 00       	mov	esi, 43
ffffffff8000a070: ff d0                	call	rax
ffffffff8000a072: 0f 0b                	ud2
ffffffff8000a074: 48 8b 45 f0          	mov	rax, qword ptr [rbp - 16]
ffffffff8000a078: 48 89 45 f8          	mov	qword ptr [rbp - 8], rax
ffffffff8000a07c: 48 83 c4 20          	add	rsp, 32
ffffffff8000a080: 5d                   	pop	rbp
ffffffff8000a081: c3                   	ret
ffffffff8000a082: cc                   	int3
ffffffff8000a083: cc                   	int3
ffffffff8000a084: cc                   	int3
ffffffff8000a085: cc                   	int3
ffffffff8000a086: cc                   	int3
ffffffff8000a087: cc                   	int3
ffffffff8000a088: cc                   	int3
ffffffff8000a089: cc                   	int3
ffffffff8000a08a: cc                   	int3
ffffffff8000a08b: cc                   	int3
ffffffff8000a08c: cc                   	int3
ffffffff8000a08d: cc                   	int3
ffffffff8000a08e: cc                   	int3
ffffffff8000a08f: cc                   	int3

ffffffff8000a090 <_ZN4core6option15Option$LT$T$GT$6unwrap17hb327b8674eb10d5bE>:
ffffffff8000a090: 55                   	push	rbp
ffffffff8000a091: 48 89 e5             	mov	rbp, rsp
ffffffff8000a094: 48 83 ec 20          	sub	rsp, 32
ffffffff8000a098: 48 89 75 e8          	mov	qword ptr [rbp - 24], rsi
ffffffff8000a09c: 48 89 7d f0          	mov	qword ptr [rbp - 16], rdi
ffffffff8000a0a0: 48 8b 55 f0          	mov	rdx, qword ptr [rbp - 16]
ffffffff8000a0a4: b8 01 00 00 00       	mov	eax, 1
ffffffff8000a0a9: 31 c9                	xor	ecx, ecx
ffffffff8000a0ab: 48 83 fa 00          	cmp	rdx, 0
ffffffff8000a0af: 48 0f 44 c1          	cmove	rax, rcx
ffffffff8000a0b3: 48 83 f8 00          	cmp	rax, 0
ffffffff8000a0b7: 75 1b                	jne	0xffffffff8000a0d4 <_ZN4core6option15Option$LT$T$GT$6unwrap17hb327b8674eb10d5bE+0x44>
ffffffff8000a0b9: 48 8b 55 e8          	mov	rdx, qword ptr [rbp - 24]
ffffffff8000a0bd: 48 8d 3d 5e 7f ff ff 	lea	rdi, [rip - 32930]      # 0xffffffff80002022 <str.1+0x112>
ffffffff8000a0c4: 48 8b 05 15 80 00 00 	mov	rax, qword ptr [rip + 32789] # 0xffffffff800120e0 <xr6aouzjkjmurg0+0xffffffff800120e0>
ffffffff8000a0cb: be 2b 00 00 00       	mov	esi, 43
ffffffff8000a0d0: ff d0                	call	rax
ffffffff8000a0d2: 0f 0b                	ud2
ffffffff8000a0d4: 48 8b 45 f0          	mov	rax, qword ptr [rbp - 16]
ffffffff8000a0d8: 48 89 45 f8          	mov	qword ptr [rbp - 8], rax
ffffffff8000a0dc: 48 83 c4 20          	add	rsp, 32
ffffffff8000a0e0: 5d                   	pop	rbp
ffffffff8000a0e1: c3                   	ret
ffffffff8000a0e2: cc                   	int3
ffffffff8000a0e3: cc                   	int3
ffffffff8000a0e4: cc                   	int3
ffffffff8000a0e5: cc                   	int3
ffffffff8000a0e6: cc                   	int3
ffffffff8000a0e7: cc                   	int3
ffffffff8000a0e8: cc                   	int3
ffffffff8000a0e9: cc                   	int3
ffffffff8000a0ea: cc                   	int3
ffffffff8000a0eb: cc                   	int3
ffffffff8000a0ec: cc                   	int3
ffffffff8000a0ed: cc                   	int3
ffffffff8000a0ee: cc                   	int3
ffffffff8000a0ef: cc                   	int3

ffffffff8000a0f0 <_ZN4core6option15Option$LT$T$GT$6unwrap17hc655199c0337a71eE>:
ffffffff8000a0f0: 55                   	push	rbp
ffffffff8000a0f1: 48 89 e5             	mov	rbp, rsp
ffffffff8000a0f4: 48 83 ec 20          	sub	rsp, 32
ffffffff8000a0f8: 48 89 75 e8          	mov	qword ptr [rbp - 24], rsi
ffffffff8000a0fc: 48 89 7d f0          	mov	qword ptr [rbp - 16], rdi
ffffffff8000a100: 48 8b 55 f0          	mov	rdx, qword ptr [rbp - 16]
ffffffff8000a104: b8 01 00 00 00       	mov	eax, 1
ffffffff8000a109: 31 c9                	xor	ecx, ecx
ffffffff8000a10b: 48 83 fa 00          	cmp	rdx, 0
ffffffff8000a10f: 48 0f 44 c1          	cmove	rax, rcx
ffffffff8000a113: 48 83 f8 00          	cmp	rax, 0
ffffffff8000a117: 75 1b                	jne	0xffffffff8000a134 <_ZN4core6option15Option$LT$T$GT$6unwrap17hc655199c0337a71eE+0x44>
ffffffff8000a119: 48 8b 55 e8          	mov	rdx, qword ptr [rbp - 24]
ffffffff8000a11d: 48 8d 3d fe 7e ff ff 	lea	rdi, [rip - 33026]      # 0xffffffff80002022 <str.1+0x112>
ffffffff8000a124: 48 8b 05 b5 7f 00 00 	mov	rax, qword ptr [rip + 32693] # 0xffffffff800120e0 <xr6aouzjkjmurg0+0xffffffff800120e0>
ffffffff8000a12b: be 2b 00 00 00       	mov	esi, 43
ffffffff8000a130: ff d0                	call	rax
ffffffff8000a132: 0f 0b                	ud2
ffffffff8000a134: 48 8b 45 f0          	mov	rax, qword ptr [rbp - 16]
ffffffff8000a138: 48 89 45 f8          	mov	qword ptr [rbp - 8], rax
ffffffff8000a13c: 48 83 c4 20          	add	rsp, 32
ffffffff8000a140: 5d                   	pop	rbp
ffffffff8000a141: c3                   	ret
ffffffff8000a142: cc                   	int3
ffffffff8000a143: cc                   	int3
ffffffff8000a144: cc                   	int3
ffffffff8000a145: cc                   	int3
ffffffff8000a146: cc                   	int3
ffffffff8000a147: cc                   	int3
ffffffff8000a148: cc                   	int3
ffffffff8000a149: cc                   	int3
ffffffff8000a14a: cc                   	int3
ffffffff8000a14b: cc                   	int3
ffffffff8000a14c: cc                   	int3
ffffffff8000a14d: cc                   	int3
ffffffff8000a14e: cc                   	int3
ffffffff8000a14f: cc                   	int3

ffffffff8000a150 <_ZN4core6option15Option$LT$T$GT$6unwrap17he219056d0ca23b43E>:
ffffffff8000a150: 55                   	push	rbp
ffffffff8000a151: 48 89 e5             	mov	rbp, rsp
ffffffff8000a154: 48 83 ec 20          	sub	rsp, 32
ffffffff8000a158: 48 89 75 e8          	mov	qword ptr [rbp - 24], rsi
ffffffff8000a15c: 48 89 7d f0          	mov	qword ptr [rbp - 16], rdi
ffffffff8000a160: 48 8b 55 f0          	mov	rdx, qword ptr [rbp - 16]
ffffffff8000a164: b8 01 00 00 00       	mov	eax, 1
ffffffff8000a169: 31 c9                	xor	ecx, ecx
ffffffff8000a16b: 48 83 fa 00          	cmp	rdx, 0
ffffffff8000a16f: 48 0f 44 c1          	cmove	rax, rcx
ffffffff8000a173: 48 83 f8 00          	cmp	rax, 0
ffffffff8000a177: 75 1b                	jne	0xffffffff8000a194 <_ZN4core6option15Option$LT$T$GT$6unwrap17he219056d0ca23b43E+0x44>
ffffffff8000a179: 48 8b 55 e8          	mov	rdx, qword ptr [rbp - 24]
ffffffff8000a17d: 48 8d 3d 9e 7e ff ff 	lea	rdi, [rip - 33122]      # 0xffffffff80002022 <str.1+0x112>
ffffffff8000a184: 48 8b 05 55 7f 00 00 	mov	rax, qword ptr [rip + 32597] # 0xffffffff800120e0 <xr6aouzjkjmurg0+0xffffffff800120e0>
ffffffff8000a18b: be 2b 00 00 00       	mov	esi, 43
ffffffff8000a190: ff d0                	call	rax
ffffffff8000a192: 0f 0b                	ud2
ffffffff8000a194: 48 8b 45 f0          	mov	rax, qword ptr [rbp - 16]
ffffffff8000a198: 48 89 45 f8          	mov	qword ptr [rbp - 8], rax
ffffffff8000a19c: 48 83 c4 20          	add	rsp, 32
ffffffff8000a1a0: 5d                   	pop	rbp
ffffffff8000a1a1: c3                   	ret
ffffffff8000a1a2: cc                   	int3
ffffffff8000a1a3: cc                   	int3
ffffffff8000a1a4: cc                   	int3
ffffffff8000a1a5: cc                   	int3
ffffffff8000a1a6: cc                   	int3
ffffffff8000a1a7: cc                   	int3
ffffffff8000a1a8: cc                   	int3
ffffffff8000a1a9: cc                   	int3
ffffffff8000a1aa: cc                   	int3
ffffffff8000a1ab: cc                   	int3
ffffffff8000a1ac: cc                   	int3
ffffffff8000a1ad: cc                   	int3
ffffffff8000a1ae: cc                   	int3
ffffffff8000a1af: cc                   	int3

ffffffff8000a1b0 <_ZN4core6option15Option$LT$T$GT$6unwrap17he9b871b66930478dE>:
ffffffff8000a1b0: 55                   	push	rbp
ffffffff8000a1b1: 48 89 e5             	mov	rbp, rsp
ffffffff8000a1b4: 48 83 ec 20          	sub	rsp, 32
ffffffff8000a1b8: 48 89 55 e0          	mov	qword ptr [rbp - 32], rdx
ffffffff8000a1bc: 48 89 75 e8          	mov	qword ptr [rbp - 24], rsi
ffffffff8000a1c0: 48 89 7d f0          	mov	qword ptr [rbp - 16], rdi
ffffffff8000a1c4: 48 89 7d f8          	mov	qword ptr [rbp - 8], rdi
ffffffff8000a1c8: 48 83 3e 00          	cmp	qword ptr [rsi], 0
ffffffff8000a1cc: 75 1b                	jne	0xffffffff8000a1e9 <_ZN4core6option15Option$LT$T$GT$6unwrap17he9b871b66930478dE+0x39>
ffffffff8000a1ce: 48 8b 55 e0          	mov	rdx, qword ptr [rbp - 32]
ffffffff8000a1d2: 48 8d 3d 49 7e ff ff 	lea	rdi, [rip - 33207]      # 0xffffffff80002022 <str.1+0x112>
ffffffff8000a1d9: 48 8b 05 00 7f 00 00 	mov	rax, qword ptr [rip + 32512] # 0xffffffff800120e0 <xr6aouzjkjmurg0+0xffffffff800120e0>
ffffffff8000a1e0: be 2b 00 00 00       	mov	esi, 43
ffffffff8000a1e5: ff d0                	call	rax
ffffffff8000a1e7: 0f 0b                	ud2
ffffffff8000a1e9: 48 8b 45 f8          	mov	rax, qword ptr [rbp - 8]
ffffffff8000a1ed: 48 8b 4d f0          	mov	rcx, qword ptr [rbp - 16]
ffffffff8000a1f1: 48 8b 55 e8          	mov	rdx, qword ptr [rbp - 24]
ffffffff8000a1f5: 48 8b 72 08          	mov	rsi, qword ptr [rdx + 8]
ffffffff8000a1f9: 48 89 31             	mov	qword ptr [rcx], rsi
ffffffff8000a1fc: 48 8b 72 10          	mov	rsi, qword ptr [rdx + 16]
ffffffff8000a200: 48 89 71 08          	mov	qword ptr [rcx + 8], rsi
ffffffff8000a204: 48 8b 72 18          	mov	rsi, qword ptr [rdx + 24]
ffffffff8000a208: 48 89 71 10          	mov	qword ptr [rcx + 16], rsi
ffffffff8000a20c: 48 8b 52 20          	mov	rdx, qword ptr [rdx + 32]
ffffffff8000a210: 48 89 51 18          	mov	qword ptr [rcx + 24], rdx
ffffffff8000a214: 48 83 c4 20          	add	rsp, 32
ffffffff8000a218: 5d                   	pop	rbp
ffffffff8000a219: c3                   	ret
ffffffff8000a21a: cc                   	int3
ffffffff8000a21b: cc                   	int3
ffffffff8000a21c: cc                   	int3
ffffffff8000a21d: cc                   	int3
ffffffff8000a21e: cc                   	int3
ffffffff8000a21f: cc                   	int3

ffffffff8000a220 <_ZN4core6option15Option$LT$T$GT$7is_none17ha527efa599e06887E>:
ffffffff8000a220: 55                   	push	rbp
ffffffff8000a221: 48 89 e5             	mov	rbp, rsp
ffffffff8000a224: 48 83 ec 18          	sub	rsp, 24
ffffffff8000a228: 48 89 7d f0          	mov	qword ptr [rbp - 16], rdi
ffffffff8000a22c: 48 89 7d f8          	mov	qword ptr [rbp - 8], rdi
ffffffff8000a230: 48 8b 17             	mov	rdx, qword ptr [rdi]
ffffffff8000a233: b8 01 00 00 00       	mov	eax, 1
ffffffff8000a238: 31 c9                	xor	ecx, ecx
ffffffff8000a23a: 48 83 fa 00          	cmp	rdx, 0
ffffffff8000a23e: 48 0f 44 c1          	cmove	rax, rcx
ffffffff8000a242: 48 83 f8 01          	cmp	rax, 1
ffffffff8000a246: 75 06                	jne	0xffffffff8000a24e <_ZN4core6option15Option$LT$T$GT$7is_none17ha527efa599e06887E+0x2e>
ffffffff8000a248: c6 45 ef 01          	mov	byte ptr [rbp - 17], 1
ffffffff8000a24c: eb 04                	jmp	0xffffffff8000a252 <_ZN4core6option15Option$LT$T$GT$7is_none17ha527efa599e06887E+0x32>
ffffffff8000a24e: c6 45 ef 00          	mov	byte ptr [rbp - 17], 0
ffffffff8000a252: 8a 45 ef             	mov	al, byte ptr [rbp - 17]
ffffffff8000a255: 34 ff                	xor	al, -1
ffffffff8000a257: 24 01                	and	al, 1
ffffffff8000a259: 0f b6 c0             	movzx	eax, al
ffffffff8000a25c: 48 83 c4 18          	add	rsp, 24
ffffffff8000a260: 5d                   	pop	rbp
ffffffff8000a261: c3                   	ret
ffffffff8000a262: cc                   	int3
ffffffff8000a263: cc                   	int3
ffffffff8000a264: cc                   	int3
ffffffff8000a265: cc                   	int3
ffffffff8000a266: cc                   	int3
ffffffff8000a267: cc                   	int3
ffffffff8000a268: cc                   	int3
ffffffff8000a269: cc                   	int3
ffffffff8000a26a: cc                   	int3
ffffffff8000a26b: cc                   	int3
ffffffff8000a26c: cc                   	int3
ffffffff8000a26d: cc                   	int3
ffffffff8000a26e: cc                   	int3
ffffffff8000a26f: cc                   	int3

ffffffff8000a270 <_ZN72_$LT$core..option..Option$LT$T$GT$$u20$as$u20$core..default..Default$GT$7default17ha7de58b67e8dd234E>:
ffffffff8000a270: 55                   	push	rbp
ffffffff8000a271: 48 89 e5             	mov	rbp, rsp
ffffffff8000a274: 50                   	push	rax
ffffffff8000a275: 48 c7 45 f8 00 00 00 00      	mov	qword ptr [rbp - 8], 0
ffffffff8000a27d: 48 8b 45 f8          	mov	rax, qword ptr [rbp - 8]
ffffffff8000a281: 48 83 c4 08          	add	rsp, 8
ffffffff8000a285: 5d                   	pop	rbp
ffffffff8000a286: c3                   	ret
ffffffff8000a287: cc                   	int3
ffffffff8000a288: cc                   	int3
ffffffff8000a289: cc                   	int3
ffffffff8000a28a: cc                   	int3
ffffffff8000a28b: cc                   	int3
ffffffff8000a28c: cc                   	int3
ffffffff8000a28d: cc                   	int3
ffffffff8000a28e: cc                   	int3
ffffffff8000a28f: cc                   	int3

ffffffff8000a290 <_ZN4core3ptr8non_null16NonNull$LT$T$GT$13new_unchecked17h6ea6afab3fb18ed6E>:
ffffffff8000a290: 55                   	push	rbp
ffffffff8000a291: 48 89 e5             	mov	rbp, rsp
ffffffff8000a294: 48 83 ec 10          	sub	rsp, 16
ffffffff8000a298: 48 89 7d f8          	mov	qword ptr [rbp - 8], rdi
ffffffff8000a29c: 48 89 7d f0          	mov	qword ptr [rbp - 16], rdi
ffffffff8000a2a0: 48 8b 45 f0          	mov	rax, qword ptr [rbp - 16]
ffffffff8000a2a4: 48 83 c4 10          	add	rsp, 16
ffffffff8000a2a8: 5d                   	pop	rbp
ffffffff8000a2a9: c3                   	ret
ffffffff8000a2aa: cc                   	int3
ffffffff8000a2ab: cc                   	int3
ffffffff8000a2ac: cc                   	int3
ffffffff8000a2ad: cc                   	int3
ffffffff8000a2ae: cc                   	int3
ffffffff8000a2af: cc                   	int3

ffffffff8000a2b0 <_ZN4core3ptr8non_null16NonNull$LT$T$GT$13new_unchecked17h999a94f5ac5b0a5bE>:
ffffffff8000a2b0: 55                   	push	rbp
ffffffff8000a2b1: 48 89 e5             	mov	rbp, rsp
ffffffff8000a2b4: 48 83 ec 10          	sub	rsp, 16
ffffffff8000a2b8: 48 89 7d f8          	mov	qword ptr [rbp - 8], rdi
ffffffff8000a2bc: 48 89 7d f0          	mov	qword ptr [rbp - 16], rdi
ffffffff8000a2c0: 48 8b 45 f0          	mov	rax, qword ptr [rbp - 16]
ffffffff8000a2c4: 48 83 c4 10          	add	rsp, 16
ffffffff8000a2c8: 5d                   	pop	rbp
ffffffff8000a2c9: c3                   	ret
ffffffff8000a2ca: cc                   	int3
ffffffff8000a2cb: cc                   	int3
ffffffff8000a2cc: cc                   	int3
ffffffff8000a2cd: cc                   	int3
ffffffff8000a2ce: cc                   	int3
ffffffff8000a2cf: cc                   	int3

ffffffff8000a2d0 <_ZN4core3ptr8non_null16NonNull$LT$T$GT$3new17hc9a4fa5ae580c9a2E>:
ffffffff8000a2d0: 55                   	push	rbp
ffffffff8000a2d1: 48 89 e5             	mov	rbp, rsp
ffffffff8000a2d4: 48 83 ec 50          	sub	rsp, 80
ffffffff8000a2d8: 48 89 75 b0          	mov	qword ptr [rbp - 80], rsi
ffffffff8000a2dc: 48 89 7d b8          	mov	qword ptr [rbp - 72], rdi
ffffffff8000a2e0: 48 89 7d e0          	mov	qword ptr [rbp - 32], rdi
ffffffff8000a2e4: 48 89 75 e8          	mov	qword ptr [rbp - 24], rsi
ffffffff8000a2e8: e8 d3 f4 ff ff       	call	0xffffffff800097c0 <_ZN4core3ptr7mut_ptr31_$LT$impl$u20$$BP$mut$u20$T$GT$7is_null17h8dc6c1c8bcb1e546E>
ffffffff8000a2ed: 34 ff                	xor	al, -1
ffffffff8000a2ef: a8 01                	test	al, 1
ffffffff8000a2f1: 75 0a                	jne	0xffffffff8000a2fd <_ZN4core3ptr8non_null16NonNull$LT$T$GT$3new17hc9a4fa5ae580c9a2E+0x2d>
ffffffff8000a2f3: 48 c7 45 c0 00 00 00 00      	mov	qword ptr [rbp - 64], 0
ffffffff8000a2fb: eb 28                	jmp	0xffffffff8000a325 <_ZN4core3ptr8non_null16NonNull$LT$T$GT$3new17hc9a4fa5ae580c9a2E+0x55>
ffffffff8000a2fd: 48 8b 45 b0          	mov	rax, qword ptr [rbp - 80]
ffffffff8000a301: 48 8b 4d b8          	mov	rcx, qword ptr [rbp - 72]
ffffffff8000a305: 48 89 4d f0          	mov	qword ptr [rbp - 16], rcx
ffffffff8000a309: 48 89 45 f8          	mov	qword ptr [rbp - 8], rax
ffffffff8000a30d: 48 89 4d d0          	mov	qword ptr [rbp - 48], rcx
ffffffff8000a311: 48 89 45 d8          	mov	qword ptr [rbp - 40], rax
ffffffff8000a315: 48 8b 4d d0          	mov	rcx, qword ptr [rbp - 48]
ffffffff8000a319: 48 8b 45 d8          	mov	rax, qword ptr [rbp - 40]
ffffffff8000a31d: 48 89 4d c0          	mov	qword ptr [rbp - 64], rcx
ffffffff8000a321: 48 89 45 c8          	mov	qword ptr [rbp - 56], rax
ffffffff8000a325: 48 8b 45 c0          	mov	rax, qword ptr [rbp - 64]
ffffffff8000a329: 48 8b 55 c8          	mov	rdx, qword ptr [rbp - 56]
ffffffff8000a32d: 48 83 c4 50          	add	rsp, 80
ffffffff8000a331: 5d                   	pop	rbp
ffffffff8000a332: c3                   	ret
ffffffff8000a333: cc                   	int3
ffffffff8000a334: cc                   	int3
ffffffff8000a335: cc                   	int3
ffffffff8000a336: cc                   	int3
ffffffff8000a337: cc                   	int3
ffffffff8000a338: cc                   	int3
ffffffff8000a339: cc                   	int3
ffffffff8000a33a: cc                   	int3
ffffffff8000a33b: cc                   	int3
ffffffff8000a33c: cc                   	int3
ffffffff8000a33d: cc                   	int3
ffffffff8000a33e: cc                   	int3
ffffffff8000a33f: cc                   	int3

ffffffff8000a340 <_ZN4core3ptr8non_null16NonNull$LT$T$GT$3new17hfdc3b13f3d156bdaE>:
ffffffff8000a340: 55                   	push	rbp
ffffffff8000a341: 48 89 e5             	mov	rbp, rsp
ffffffff8000a344: 48 83 ec 30          	sub	rsp, 48
ffffffff8000a348: 48 89 7d d8          	mov	qword ptr [rbp - 40], rdi
ffffffff8000a34c: 48 89 7d f0          	mov	qword ptr [rbp - 16], rdi
ffffffff8000a350: e8 eb f4 ff ff       	call	0xffffffff80009840 <_ZN4core3ptr7mut_ptr31_$LT$impl$u20$$BP$mut$u20$T$GT$7is_null17ha79a1cd5f5a43489E>
ffffffff8000a355: 34 ff                	xor	al, -1
ffffffff8000a357: a8 01                	test	al, 1
ffffffff8000a359: 75 0a                	jne	0xffffffff8000a365 <_ZN4core3ptr8non_null16NonNull$LT$T$GT$3new17hfdc3b13f3d156bdaE+0x25>
ffffffff8000a35b: 48 c7 45 e0 00 00 00 00      	mov	qword ptr [rbp - 32], 0
ffffffff8000a363: eb 14                	jmp	0xffffffff8000a379 <_ZN4core3ptr8non_null16NonNull$LT$T$GT$3new17hfdc3b13f3d156bdaE+0x39>
ffffffff8000a365: 48 8b 45 d8          	mov	rax, qword ptr [rbp - 40]
ffffffff8000a369: 48 89 45 f8          	mov	qword ptr [rbp - 8], rax
ffffffff8000a36d: 48 89 45 e8          	mov	qword ptr [rbp - 24], rax
ffffffff8000a371: 48 8b 45 e8          	mov	rax, qword ptr [rbp - 24]
ffffffff8000a375: 48 89 45 e0          	mov	qword ptr [rbp - 32], rax
ffffffff8000a379: 48 8b 45 e0          	mov	rax, qword ptr [rbp - 32]
ffffffff8000a37d: 48 83 c4 30          	add	rsp, 48
ffffffff8000a381: 5d                   	pop	rbp
ffffffff8000a382: c3                   	ret
ffffffff8000a383: cc                   	int3
ffffffff8000a384: cc                   	int3
ffffffff8000a385: cc                   	int3
ffffffff8000a386: cc                   	int3
ffffffff8000a387: cc                   	int3
ffffffff8000a388: cc                   	int3
ffffffff8000a389: cc                   	int3
ffffffff8000a38a: cc                   	int3
ffffffff8000a38b: cc                   	int3
ffffffff8000a38c: cc                   	int3
ffffffff8000a38d: cc                   	int3
ffffffff8000a38e: cc                   	int3
ffffffff8000a38f: cc                   	int3

ffffffff8000a390 <_ZN78_$LT$core..ptr..non_null..NonNull$LT$T$GT$$u20$as$u20$core..cmp..PartialEq$GT$2eq17h92ed4edf6c72f689E>:
ffffffff8000a390: 55                   	push	rbp
ffffffff8000a391: 48 89 e5             	mov	rbp, rsp
ffffffff8000a394: 48 83 ec 20          	sub	rsp, 32
ffffffff8000a398: 48 89 7d e0          	mov	qword ptr [rbp - 32], rdi
ffffffff8000a39c: 48 89 75 e8          	mov	qword ptr [rbp - 24], rsi
ffffffff8000a3a0: 48 8b 07             	mov	rax, qword ptr [rdi]
ffffffff8000a3a3: 48 89 45 f0          	mov	qword ptr [rbp - 16], rax
ffffffff8000a3a7: 48 8b 0e             	mov	rcx, qword ptr [rsi]
ffffffff8000a3aa: 48 89 4d f8          	mov	qword ptr [rbp - 8], rcx
ffffffff8000a3ae: 48 39 c8             	cmp	rax, rcx
ffffffff8000a3b1: 0f 94 c0             	sete	al
ffffffff8000a3b4: 24 01                	and	al, 1
ffffffff8000a3b6: 0f b6 c0             	movzx	eax, al
ffffffff8000a3b9: 48 83 c4 20          	add	rsp, 32
ffffffff8000a3bd: 5d                   	pop	rbp
ffffffff8000a3be: c3                   	ret
ffffffff8000a3bf: cc                   	int3

ffffffff8000a3c0 <_ZN4core3cmp5impls57_$LT$impl$u20$core..cmp..PartialOrd$u20$for$u20$usize$GT$2lt17h2b4d6fb04177ad6bE>:
ffffffff8000a3c0: 55                   	push	rbp
ffffffff8000a3c1: 48 89 e5             	mov	rbp, rsp
ffffffff8000a3c4: 48 83 ec 10          	sub	rsp, 16
ffffffff8000a3c8: 48 89 7d f0          	mov	qword ptr [rbp - 16], rdi
ffffffff8000a3cc: 48 89 75 f8          	mov	qword ptr [rbp - 8], rsi
ffffffff8000a3d0: 48 8b 07             	mov	rax, qword ptr [rdi]
ffffffff8000a3d3: 48 3b 06             	cmp	rax, qword ptr [rsi]
ffffffff8000a3d6: 0f 92 c0             	setb	al
ffffffff8000a3d9: 24 01                	and	al, 1
ffffffff8000a3db: 0f b6 c0             	movzx	eax, al
ffffffff8000a3de: 48 83 c4 10          	add	rsp, 16
ffffffff8000a3e2: 5d                   	pop	rbp
ffffffff8000a3e3: c3                   	ret
ffffffff8000a3e4: cc                   	int3
ffffffff8000a3e5: cc                   	int3
ffffffff8000a3e6: cc                   	int3
ffffffff8000a3e7: cc                   	int3
ffffffff8000a3e8: cc                   	int3
ffffffff8000a3e9: cc                   	int3
ffffffff8000a3ea: cc                   	int3
ffffffff8000a3eb: cc                   	int3
ffffffff8000a3ec: cc                   	int3
ffffffff8000a3ed: cc                   	int3
ffffffff8000a3ee: cc                   	int3
ffffffff8000a3ef: cc                   	int3

ffffffff8000a3f0 <_ZN106_$LT$core..ops..range..Range$LT$usize$GT$$u20$as$u20$core..slice..index..SliceIndex$LT$$u5b$T$u5d$$GT$$GT$17get_unchecked_mut17hadc29b340918c4efE>:
ffffffff8000a3f0: 55                   	push	rbp
ffffffff8000a3f1: 48 89 e5             	mov	rbp, rsp
ffffffff8000a3f4: 48 81 ec a0 00 00 00 	sub	rsp, 160
ffffffff8000a3fb: 48 89 7d 80          	mov	qword ptr [rbp - 128], rdi
ffffffff8000a3ff: 48 89 75 88          	mov	qword ptr [rbp - 120], rsi
ffffffff8000a403: 48 89 55 90          	mov	qword ptr [rbp - 112], rdx
ffffffff8000a407: 48 89 4d 98          	mov	qword ptr [rbp - 104], rcx
ffffffff8000a40b: 48 89 55 a0          	mov	qword ptr [rbp - 96], rdx
ffffffff8000a40f: 48 89 4d a8          	mov	qword ptr [rbp - 88], rcx
ffffffff8000a413: 48 89 55 b0          	mov	qword ptr [rbp - 80], rdx
ffffffff8000a417: 48 89 7d b8          	mov	qword ptr [rbp - 72], rdi
ffffffff8000a41b: 48 89 55 c0          	mov	qword ptr [rbp - 64], rdx
ffffffff8000a41f: 48 89 7d c8          	mov	qword ptr [rbp - 56], rdi
ffffffff8000a423: 48 01 fa             	add	rdx, rdi
ffffffff8000a426: 48 89 55 d0          	mov	qword ptr [rbp - 48], rdx
ffffffff8000a42a: 48 8b 45 d0          	mov	rax, qword ptr [rbp - 48]
ffffffff8000a42e: 48 89 45 d8          	mov	qword ptr [rbp - 40], rax
ffffffff8000a432: 48 29 fe             	sub	rsi, rdi
ffffffff8000a435: 48 89 75 e0          	mov	qword ptr [rbp - 32], rsi
ffffffff8000a439: 48 89 45 e8          	mov	qword ptr [rbp - 24], rax
ffffffff8000a43d: 48 89 45 f0          	mov	qword ptr [rbp - 16], rax
ffffffff8000a441: 48 89 75 f8          	mov	qword ptr [rbp - 8], rsi
ffffffff8000a445: 48 89 85 70 ff ff ff 	mov	qword ptr [rbp - 144], rax
ffffffff8000a44c: 48 89 b5 78 ff ff ff 	mov	qword ptr [rbp - 136], rsi
ffffffff8000a453: 48 8b 8d 70 ff ff ff 	mov	rcx, qword ptr [rbp - 144]
ffffffff8000a45a: 48 8b 85 78 ff ff ff 	mov	rax, qword ptr [rbp - 136]
ffffffff8000a461: 48 89 8d 60 ff ff ff 	mov	qword ptr [rbp - 160], rcx
ffffffff8000a468: 48 89 85 68 ff ff ff 	mov	qword ptr [rbp - 152], rax
ffffffff8000a46f: 48 8b 85 60 ff ff ff 	mov	rax, qword ptr [rbp - 160]
ffffffff8000a476: 48 8b 95 68 ff ff ff 	mov	rdx, qword ptr [rbp - 152]
ffffffff8000a47d: 48 81 c4 a0 00 00 00 	add	rsp, 160
ffffffff8000a484: 5d                   	pop	rbp
ffffffff8000a485: c3                   	ret
ffffffff8000a486: cc                   	int3
ffffffff8000a487: cc                   	int3
ffffffff8000a488: cc                   	int3
ffffffff8000a489: cc                   	int3
ffffffff8000a48a: cc                   	int3
ffffffff8000a48b: cc                   	int3
ffffffff8000a48c: cc                   	int3
ffffffff8000a48d: cc                   	int3
ffffffff8000a48e: cc                   	int3
ffffffff8000a48f: cc                   	int3

ffffffff8000a490 <_ZN106_$LT$core..ops..range..Range$LT$usize$GT$$u20$as$u20$core..slice..index..SliceIndex$LT$$u5b$T$u5d$$GT$$GT$9index_mut17h03f888174acbdbcbE>:
ffffffff8000a490: 55                   	push	rbp
ffffffff8000a491: 48 89 e5             	mov	rbp, rsp
ffffffff8000a494: 48 83 ec 50          	sub	rsp, 80
ffffffff8000a498: 4c 89 45 b8          	mov	qword ptr [rbp - 72], r8
ffffffff8000a49c: 48 89 4d c0          	mov	qword ptr [rbp - 64], rcx
ffffffff8000a4a0: 48 89 55 c8          	mov	qword ptr [rbp - 56], rdx
ffffffff8000a4a4: 48 89 75 d0          	mov	qword ptr [rbp - 48], rsi
ffffffff8000a4a8: 48 89 7d d8          	mov	qword ptr [rbp - 40], rdi
ffffffff8000a4ac: 48 89 7d e0          	mov	qword ptr [rbp - 32], rdi
ffffffff8000a4b0: 48 89 75 e8          	mov	qword ptr [rbp - 24], rsi
ffffffff8000a4b4: 48 89 55 f0          	mov	qword ptr [rbp - 16], rdx
ffffffff8000a4b8: 48 89 4d f8          	mov	qword ptr [rbp - 8], rcx
ffffffff8000a4bc: 48 39 f7             	cmp	rdi, rsi
ffffffff8000a4bf: 77 0f                	ja	0xffffffff8000a4d0 <_ZN106_$LT$core..ops..range..Range$LT$usize$GT$$u20$as$u20$core..slice..index..SliceIndex$LT$$u5b$T$u5d$$GT$$GT$9index_mut17h03f888174acbdbcbE+0x40>
ffffffff8000a4c1: 48 8b 45 d0          	mov	rax, qword ptr [rbp - 48]
ffffffff8000a4c5: 48 8b 4d c0          	mov	rcx, qword ptr [rbp - 64]
ffffffff8000a4c9: 48 39 c8             	cmp	rax, rcx
ffffffff8000a4cc: 77 34                	ja	0xffffffff8000a502 <_ZN106_$LT$core..ops..range..Range$LT$usize$GT$$u20$as$u20$core..slice..index..SliceIndex$LT$$u5b$T$u5d$$GT$$GT$9index_mut17h03f888174acbdbcbE+0x72>
ffffffff8000a4ce: eb 17                	jmp	0xffffffff8000a4e7 <_ZN106_$LT$core..ops..range..Range$LT$usize$GT$$u20$as$u20$core..slice..index..SliceIndex$LT$$u5b$T$u5d$$GT$$GT$9index_mut17h03f888174acbdbcbE+0x57>
ffffffff8000a4d0: 48 8b 55 b8          	mov	rdx, qword ptr [rbp - 72]
ffffffff8000a4d4: 48 8b 75 d0          	mov	rsi, qword ptr [rbp - 48]
ffffffff8000a4d8: 48 8b 7d d8          	mov	rdi, qword ptr [rbp - 40]
ffffffff8000a4dc: 48 8b 05 ad 7c 00 00 	mov	rax, qword ptr [rip + 31917] # 0xffffffff80012190 <xr6aouzjkjmurg0+0xffffffff80012190>
ffffffff8000a4e3: ff d0                	call	rax
ffffffff8000a4e5: 0f 0b                	ud2
ffffffff8000a4e7: 48 8b 4d c0          	mov	rcx, qword ptr [rbp - 64]
ffffffff8000a4eb: 48 8b 55 c8          	mov	rdx, qword ptr [rbp - 56]
ffffffff8000a4ef: 48 8b 75 d0          	mov	rsi, qword ptr [rbp - 48]
ffffffff8000a4f3: 48 8b 7d d8          	mov	rdi, qword ptr [rbp - 40]
ffffffff8000a4f7: e8 f4 fe ff ff       	call	0xffffffff8000a3f0 <_ZN106_$LT$core..ops..range..Range$LT$usize$GT$$u20$as$u20$core..slice..index..SliceIndex$LT$$u5b$T$u5d$$GT$$GT$17get_unchecked_mut17hadc29b340918c4efE>
ffffffff8000a4fc: 48 83 c4 50          	add	rsp, 80
ffffffff8000a500: 5d                   	pop	rbp
ffffffff8000a501: c3                   	ret
ffffffff8000a502: 48 8b 55 b8          	mov	rdx, qword ptr [rbp - 72]
ffffffff8000a506: 48 8b 75 c0          	mov	rsi, qword ptr [rbp - 64]
ffffffff8000a50a: 48 8b 7d d0          	mov	rdi, qword ptr [rbp - 48]
ffffffff8000a50e: 48 8b 05 83 7c 00 00 	mov	rax, qword ptr [rip + 31875] # 0xffffffff80012198 <xr6aouzjkjmurg0+0xffffffff80012198>
ffffffff8000a515: ff d0                	call	rax
ffffffff8000a517: 0f 0b                	ud2
ffffffff8000a519: cc                   	int3
ffffffff8000a51a: cc                   	int3
ffffffff8000a51b: cc                   	int3
ffffffff8000a51c: cc                   	int3
ffffffff8000a51d: cc                   	int3
ffffffff8000a51e: cc                   	int3
ffffffff8000a51f: cc                   	int3

ffffffff8000a520 <_ZN108_$LT$core..ops..range..RangeTo$LT$usize$GT$$u20$as$u20$core..slice..index..SliceIndex$LT$$u5b$T$u5d$$GT$$GT$9index_mut17hf96440fc2d151774E>:
ffffffff8000a520: 55                   	push	rbp
ffffffff8000a521: 48 89 e5             	mov	rbp, rsp
ffffffff8000a524: 48 83 ec 30          	sub	rsp, 48
ffffffff8000a528: 49 89 c8             	mov	r8, rcx
ffffffff8000a52b: 48 89 d1             	mov	rcx, rdx
ffffffff8000a52e: 48 89 f2             	mov	rdx, rsi
ffffffff8000a531: 48 89 7d e8          	mov	qword ptr [rbp - 24], rdi
ffffffff8000a535: 48 89 55 f0          	mov	qword ptr [rbp - 16], rdx
ffffffff8000a539: 48 89 4d f8          	mov	qword ptr [rbp - 8], rcx
ffffffff8000a53d: 48 c7 45 d8 00 00 00 00      	mov	qword ptr [rbp - 40], 0
ffffffff8000a545: 48 89 7d e0          	mov	qword ptr [rbp - 32], rdi
ffffffff8000a549: 48 8b 7d d8          	mov	rdi, qword ptr [rbp - 40]
ffffffff8000a54d: 48 8b 75 e0          	mov	rsi, qword ptr [rbp - 32]
ffffffff8000a551: e8 3a ff ff ff       	call	0xffffffff8000a490 <_ZN106_$LT$core..ops..range..Range$LT$usize$GT$$u20$as$u20$core..slice..index..SliceIndex$LT$$u5b$T$u5d$$GT$$GT$9index_mut17h03f888174acbdbcbE>
ffffffff8000a556: 48 83 c4 30          	add	rsp, 48
ffffffff8000a55a: 5d                   	pop	rbp
ffffffff8000a55b: c3                   	ret
ffffffff8000a55c: cc                   	int3
ffffffff8000a55d: cc                   	int3
ffffffff8000a55e: cc                   	int3
ffffffff8000a55f: cc                   	int3

ffffffff8000a560 <_ZN4core4iter5range101_$LT$impl$u20$core..iter..traits..iterator..Iterator$u20$for$u20$core..ops..range..Range$LT$A$GT$$GT$4next17ha48bff387f27bd7eE>:
ffffffff8000a560: 55                   	push	rbp
ffffffff8000a561: 48 89 e5             	mov	rbp, rsp
ffffffff8000a564: 48 83 ec 10          	sub	rsp, 16
ffffffff8000a568: 48 89 7d f8          	mov	qword ptr [rbp - 8], rdi
ffffffff8000a56c: e8 2f 00 00 00       	call	0xffffffff8000a5a0 <_ZN89_$LT$core..ops..range..Range$LT$T$GT$$u20$as$u20$core..iter..range..RangeIteratorImpl$GT$9spec_next17h8d31f3ef2057a39eE>
ffffffff8000a571: 48 83 c4 10          	add	rsp, 16
ffffffff8000a575: 5d                   	pop	rbp
ffffffff8000a576: c3                   	ret
ffffffff8000a577: cc                   	int3
ffffffff8000a578: cc                   	int3
ffffffff8000a579: cc                   	int3
ffffffff8000a57a: cc                   	int3
ffffffff8000a57b: cc                   	int3
ffffffff8000a57c: cc                   	int3
ffffffff8000a57d: cc                   	int3
ffffffff8000a57e: cc                   	int3
ffffffff8000a57f: cc                   	int3

ffffffff8000a580 <_ZN63_$LT$I$u20$as$u20$core..iter..traits..collect..IntoIterator$GT$9into_iter17h1a92386f5c2a06d2E>:
ffffffff8000a580: 55                   	push	rbp
ffffffff8000a581: 48 89 e5             	mov	rbp, rsp
ffffffff8000a584: 48 83 ec 10          	sub	rsp, 16
ffffffff8000a588: 48 89 f2             	mov	rdx, rsi
ffffffff8000a58b: 48 89 f8             	mov	rax, rdi
ffffffff8000a58e: 48 89 45 f0          	mov	qword ptr [rbp - 16], rax
ffffffff8000a592: 48 89 55 f8          	mov	qword ptr [rbp - 8], rdx
ffffffff8000a596: 48 83 c4 10          	add	rsp, 16
ffffffff8000a59a: 5d                   	pop	rbp
ffffffff8000a59b: c3                   	ret
ffffffff8000a59c: cc                   	int3
ffffffff8000a59d: cc                   	int3
ffffffff8000a59e: cc                   	int3
ffffffff8000a59f: cc                   	int3

ffffffff8000a5a0 <_ZN89_$LT$core..ops..range..Range$LT$T$GT$$u20$as$u20$core..iter..range..RangeIteratorImpl$GT$9spec_next17h8d31f3ef2057a39eE>:
ffffffff8000a5a0: 55                   	push	rbp
ffffffff8000a5a1: 48 89 e5             	mov	rbp, rsp
ffffffff8000a5a4: 48 83 ec 30          	sub	rsp, 48
ffffffff8000a5a8: 48 89 7d d0          	mov	qword ptr [rbp - 48], rdi
ffffffff8000a5ac: 48 89 7d e8          	mov	qword ptr [rbp - 24], rdi
ffffffff8000a5b0: 48 89 fe             	mov	rsi, rdi
ffffffff8000a5b3: 48 83 c6 08          	add	rsi, 8
ffffffff8000a5b7: e8 04 fe ff ff       	call	0xffffffff8000a3c0 <_ZN4core3cmp5impls57_$LT$impl$u20$core..cmp..PartialOrd$u20$for$u20$usize$GT$2lt17h2b4d6fb04177ad6bE>
ffffffff8000a5bc: a8 01                	test	al, 1
ffffffff8000a5be: 75 0a                	jne	0xffffffff8000a5ca <_ZN89_$LT$core..ops..range..Range$LT$T$GT$$u20$as$u20$core..iter..range..RangeIteratorImpl$GT$9spec_next17h8d31f3ef2057a39eE+0x2a>
ffffffff8000a5c0: 48 c7 45 d8 00 00 00 00      	mov	qword ptr [rbp - 40], 0
ffffffff8000a5c8: eb 31                	jmp	0xffffffff8000a5fb <_ZN89_$LT$core..ops..range..Range$LT$T$GT$$u20$as$u20$core..iter..range..RangeIteratorImpl$GT$9spec_next17h8d31f3ef2057a39eE+0x5b>
ffffffff8000a5ca: 48 8b 45 d0          	mov	rax, qword ptr [rbp - 48]
ffffffff8000a5ce: 48 89 45 f8          	mov	qword ptr [rbp - 8], rax
ffffffff8000a5d2: 48 8b 38             	mov	rdi, qword ptr [rax]
ffffffff8000a5d5: be 01 00 00 00       	mov	esi, 1
ffffffff8000a5da: e8 51 12 00 00       	call	0xffffffff8000b830 <_ZN49_$LT$usize$u20$as$u20$core..iter..range..Step$GT$17forward_unchecked17h31adf8015f0c78bfE>
ffffffff8000a5df: 48 8b 7d d0          	mov	rdi, qword ptr [rbp - 48]
ffffffff8000a5e3: 48 89 c6             	mov	rsi, rax
ffffffff8000a5e6: 48 89 75 f0          	mov	qword ptr [rbp - 16], rsi
ffffffff8000a5ea: e8 b1 b7 ff ff       	call	0xffffffff80005da0 <_ZN4core3mem7replace17h71e0e0af67d250f1E>
ffffffff8000a5ef: 48 89 45 e0          	mov	qword ptr [rbp - 32], rax
ffffffff8000a5f3: 48 c7 45 d8 01 00 00 00      	mov	qword ptr [rbp - 40], 1
ffffffff8000a5fb: 48 8b 45 d8          	mov	rax, qword ptr [rbp - 40]
ffffffff8000a5ff: 48 8b 55 e0          	mov	rdx, qword ptr [rbp - 32]
ffffffff8000a603: 48 83 c4 30          	add	rsp, 48
ffffffff8000a607: 5d                   	pop	rbp
ffffffff8000a608: c3                   	ret
ffffffff8000a609: cc                   	int3
ffffffff8000a60a: cc                   	int3
ffffffff8000a60b: cc                   	int3
ffffffff8000a60c: cc                   	int3
ffffffff8000a60d: cc                   	int3
ffffffff8000a60e: cc                   	int3
ffffffff8000a60f: cc                   	int3

ffffffff8000a610 <_ZN97_$LT$core..ops..range..RangeFull$u20$as$u20$core..slice..index..SliceIndex$LT$$u5b$T$u5d$$GT$$GT$9index_mut17hdd4b728b45fb6f54E>:
ffffffff8000a610: 55                   	push	rbp
ffffffff8000a611: 48 89 e5             	mov	rbp, rsp
ffffffff8000a614: 48 83 ec 18          	sub	rsp, 24
ffffffff8000a618: 48 89 f2             	mov	rdx, rsi
ffffffff8000a61b: 48 89 f8             	mov	rax, rdi
ffffffff8000a61e: 48 89 45 f0          	mov	qword ptr [rbp - 16], rax
ffffffff8000a622: 48 89 55 f8          	mov	qword ptr [rbp - 8], rdx
ffffffff8000a626: 48 83 c4 18          	add	rsp, 24
ffffffff8000a62a: 5d                   	pop	rbp
ffffffff8000a62b: c3                   	ret
ffffffff8000a62c: cc                   	int3
ffffffff8000a62d: cc                   	int3
ffffffff8000a62e: cc                   	int3
ffffffff8000a62f: cc                   	int3

ffffffff8000a630 <_ZN4core9core_arch3x864sse29_mm_pause17hc92b4cb786bf065bE>:
ffffffff8000a630: 55                   	push	rbp
ffffffff8000a631: 48 89 e5             	mov	rbp, rsp
ffffffff8000a634: f3 90                	pause
ffffffff8000a636: 5d                   	pop	rbp
ffffffff8000a637: c3                   	ret
ffffffff8000a638: cc                   	int3
ffffffff8000a639: cc                   	int3
ffffffff8000a63a: cc                   	int3
ffffffff8000a63b: cc                   	int3
ffffffff8000a63c: cc                   	int3
ffffffff8000a63d: cc                   	int3
ffffffff8000a63e: cc                   	int3
ffffffff8000a63f: cc                   	int3

ffffffff8000a640 <_ZN4core3ffi5c_str4CStr8from_ptr17hd56d8621c8e4c520E>:
ffffffff8000a640: 55                   	push	rbp
ffffffff8000a641: 48 89 e5             	mov	rbp, rsp
ffffffff8000a644: 48 81 ec b0 00 00 00 	sub	rsp, 176
ffffffff8000a64b: 48 89 bd 50 ff ff ff 	mov	qword ptr [rbp - 176], rdi
ffffffff8000a652: 48 89 7d 90          	mov	qword ptr [rbp - 112], rdi
ffffffff8000a656: 48 89 bd 58 ff ff ff 	mov	qword ptr [rbp - 168], rdi
ffffffff8000a65d: 48 8b bd 58 ff ff ff 	mov	rdi, qword ptr [rbp - 168]
ffffffff8000a664: 48 8b 05 35 7b 00 00 	mov	rax, qword ptr [rip + 31541] # 0xffffffff800121a0 <xr6aouzjkjmurg0+0xffffffff800121a0>
ffffffff8000a66b: ff d0                	call	rax
ffffffff8000a66d: 48 8b bd 50 ff ff ff 	mov	rdi, qword ptr [rbp - 176]
ffffffff8000a674: 48 89 45 98          	mov	qword ptr [rbp - 104], rax
ffffffff8000a678: 48 89 7d a0          	mov	qword ptr [rbp - 96], rdi
ffffffff8000a67c: 48 89 7d a8          	mov	qword ptr [rbp - 88], rdi
ffffffff8000a680: 48 ff c0             	inc	rax
ffffffff8000a683: 48 89 45 b0          	mov	qword ptr [rbp - 80], rax
ffffffff8000a687: 48 89 7d b8          	mov	qword ptr [rbp - 72], rdi
ffffffff8000a68b: 48 89 45 c0          	mov	qword ptr [rbp - 64], rax
ffffffff8000a68f: 48 89 7d c8          	mov	qword ptr [rbp - 56], rdi
ffffffff8000a693: 48 89 7d d0          	mov	qword ptr [rbp - 48], rdi
ffffffff8000a697: 48 89 45 d8          	mov	qword ptr [rbp - 40], rax
ffffffff8000a69b: 48 89 bd 70 ff ff ff 	mov	qword ptr [rbp - 144], rdi
ffffffff8000a6a2: 48 89 85 78 ff ff ff 	mov	qword ptr [rbp - 136], rax
ffffffff8000a6a9: 48 8b 8d 70 ff ff ff 	mov	rcx, qword ptr [rbp - 144]
ffffffff8000a6b0: 48 8b 85 78 ff ff ff 	mov	rax, qword ptr [rbp - 136]
ffffffff8000a6b7: 48 89 8d 60 ff ff ff 	mov	qword ptr [rbp - 160], rcx
ffffffff8000a6be: 48 89 85 68 ff ff ff 	mov	qword ptr [rbp - 152], rax
ffffffff8000a6c5: 48 8b 8d 60 ff ff ff 	mov	rcx, qword ptr [rbp - 160]
ffffffff8000a6cc: 48 8b 85 68 ff ff ff 	mov	rax, qword ptr [rbp - 152]
ffffffff8000a6d3: 48 89 4d e0          	mov	qword ptr [rbp - 32], rcx
ffffffff8000a6d7: 48 89 45 e8          	mov	qword ptr [rbp - 24], rax
ffffffff8000a6db: 48 89 4d 80          	mov	qword ptr [rbp - 128], rcx
ffffffff8000a6df: 48 89 45 88          	mov	qword ptr [rbp - 120], rax
ffffffff8000a6e3: 48 8b 45 80          	mov	rax, qword ptr [rbp - 128]
ffffffff8000a6e7: 48 8b 55 88          	mov	rdx, qword ptr [rbp - 120]
ffffffff8000a6eb: 48 89 45 f0          	mov	qword ptr [rbp - 16], rax
ffffffff8000a6ef: 48 89 55 f8          	mov	qword ptr [rbp - 8], rdx
ffffffff8000a6f3: 48 81 c4 b0 00 00 00 	add	rsp, 176
ffffffff8000a6fa: 5d                   	pop	rbp
ffffffff8000a6fb: c3                   	ret
ffffffff8000a6fc: cc                   	int3
ffffffff8000a6fd: cc                   	int3
ffffffff8000a6fe: cc                   	int3
ffffffff8000a6ff: cc                   	int3

ffffffff8000a700 <_ZN81_$LT$core..str..iter..Chars$u20$as$u20$core..iter..traits..iterator..Iterator$GT$4next17hcab79c1030c3d7feE>:
ffffffff8000a700: 55                   	push	rbp
ffffffff8000a701: 48 89 e5             	mov	rbp, rsp
ffffffff8000a704: 48 83 ec 10          	sub	rsp, 16
ffffffff8000a708: 48 89 7d f8          	mov	qword ptr [rbp - 8], rdi
ffffffff8000a70c: e8 ff d0 ff ff       	call	0xffffffff80007810 <_ZN4core3str11validations15next_code_point17hcf16a8bc72c5d123E>
ffffffff8000a711: 89 c7                	mov	edi, eax
ffffffff8000a713: 89 d6                	mov	esi, edx
ffffffff8000a715: e8 56 f8 ff ff       	call	0xffffffff80009f70 <_ZN4core6option15Option$LT$T$GT$3map17hf9927d57b1b7a716E>
ffffffff8000a71a: 48 83 c4 10          	add	rsp, 16
ffffffff8000a71e: 5d                   	pop	rbp
ffffffff8000a71f: c3                   	ret

ffffffff8000a720 <_ZN3qos4sync19MutexGuard$LT$T$GT$3new17h2413f178f439fee2E>:
ffffffff8000a720: 55                   	push	rbp
ffffffff8000a721: 48 89 e5             	mov	rbp, rsp
ffffffff8000a724: 48 83 ec 10          	sub	rsp, 16
ffffffff8000a728: 48 89 7d f8          	mov	qword ptr [rbp - 8], rdi
ffffffff8000a72c: 48 89 7d f0          	mov	qword ptr [rbp - 16], rdi
ffffffff8000a730: 48 8b 45 f0          	mov	rax, qword ptr [rbp - 16]
ffffffff8000a734: 48 83 c4 10          	add	rsp, 16
ffffffff8000a738: 5d                   	pop	rbp
ffffffff8000a739: c3                   	ret
ffffffff8000a73a: cc                   	int3
ffffffff8000a73b: cc                   	int3
ffffffff8000a73c: cc                   	int3
ffffffff8000a73d: cc                   	int3
ffffffff8000a73e: cc                   	int3
ffffffff8000a73f: cc                   	int3

ffffffff8000a740 <_ZN3qos4sync19MutexGuard$LT$T$GT$3new17h338b8e0fcdbc52ecE>:
ffffffff8000a740: 55                   	push	rbp
ffffffff8000a741: 48 89 e5             	mov	rbp, rsp
ffffffff8000a744: 48 83 ec 10          	sub	rsp, 16
ffffffff8000a748: 48 89 7d f8          	mov	qword ptr [rbp - 8], rdi
ffffffff8000a74c: 48 89 7d f0          	mov	qword ptr [rbp - 16], rdi
ffffffff8000a750: 48 8b 45 f0          	mov	rax, qword ptr [rbp - 16]
ffffffff8000a754: 48 83 c4 10          	add	rsp, 16
ffffffff8000a758: 5d                   	pop	rbp
ffffffff8000a759: c3                   	ret
ffffffff8000a75a: cc                   	int3
ffffffff8000a75b: cc                   	int3
ffffffff8000a75c: cc                   	int3
ffffffff8000a75d: cc                   	int3
ffffffff8000a75e: cc                   	int3
ffffffff8000a75f: cc                   	int3

ffffffff8000a760 <_ZN77_$LT$qos..sync..MutexGuard$LT$T$GT$$u20$as$u20$core..ops..deref..DerefMut$GT$9deref_mut17h2515cfba8d16f301E>:
ffffffff8000a760: 55                   	push	rbp
ffffffff8000a761: 48 89 e5             	mov	rbp, rsp
ffffffff8000a764: 48 83 ec 10          	sub	rsp, 16
ffffffff8000a768: 48 89 7d f0          	mov	qword ptr [rbp - 16], rdi
ffffffff8000a76c: 48 8b 07             	mov	rax, qword ptr [rdi]
ffffffff8000a76f: 48 89 45 f8          	mov	qword ptr [rbp - 8], rax
ffffffff8000a773: 48 83 c4 10          	add	rsp, 16
ffffffff8000a777: 5d                   	pop	rbp
ffffffff8000a778: c3                   	ret
ffffffff8000a779: cc                   	int3
ffffffff8000a77a: cc                   	int3
ffffffff8000a77b: cc                   	int3
ffffffff8000a77c: cc                   	int3
ffffffff8000a77d: cc                   	int3
ffffffff8000a77e: cc                   	int3
ffffffff8000a77f: cc                   	int3

ffffffff8000a780 <_ZN77_$LT$qos..sync..MutexGuard$LT$T$GT$$u20$as$u20$core..ops..deref..DerefMut$GT$9deref_mut17h8c2af73d592be7c8E>:
ffffffff8000a780: 55                   	push	rbp
ffffffff8000a781: 48 89 e5             	mov	rbp, rsp
ffffffff8000a784: 48 83 ec 10          	sub	rsp, 16
ffffffff8000a788: 48 89 7d f0          	mov	qword ptr [rbp - 16], rdi
ffffffff8000a78c: 48 8b 07             	mov	rax, qword ptr [rdi]
ffffffff8000a78f: 48 89 45 f8          	mov	qword ptr [rbp - 8], rax
ffffffff8000a793: 48 83 c4 10          	add	rsp, 16
ffffffff8000a797: 5d                   	pop	rbp
ffffffff8000a798: c3                   	ret
ffffffff8000a799: cc                   	int3
ffffffff8000a79a: cc                   	int3
ffffffff8000a79b: cc                   	int3
ffffffff8000a79c: cc                   	int3
ffffffff8000a79d: cc                   	int3
ffffffff8000a79e: cc                   	int3
ffffffff8000a79f: cc                   	int3

ffffffff8000a7a0 <_ZN3qos4sync14Mutex$LT$T$GT$3new17h63345c90f59a406dE>:
ffffffff8000a7a0: 55                   	push	rbp
ffffffff8000a7a1: 48 89 e5             	mov	rbp, rsp
ffffffff8000a7a4: 48 81 ec 50 01 00 00 	sub	rsp, 336
ffffffff8000a7ab: 48 89 b5 b8 fe ff ff 	mov	qword ptr [rbp - 328], rsi
ffffffff8000a7b2: 48 89 bd c8 fe ff ff 	mov	qword ptr [rbp - 312], rdi
ffffffff8000a7b9: 48 89 bd c0 fe ff ff 	mov	qword ptr [rbp - 320], rdi
ffffffff8000a7c0: 31 c0                	xor	eax, eax
ffffffff8000a7c2: 31 ff                	xor	edi, edi
ffffffff8000a7c4: e8 07 a4 ff ff       	call	0xffffffff80004bd0 <_ZN4core4sync6atomic10AtomicBool3new17h16d1dd6082758aacE>
ffffffff8000a7c9: 48 8b b5 b8 fe ff ff 	mov	rsi, qword ptr [rbp - 328]
ffffffff8000a7d0: 88 c1                	mov	cl, al
ffffffff8000a7d2: 48 8b 85 c0 fe ff ff 	mov	rax, qword ptr [rbp - 320]
ffffffff8000a7d9: 88 4d 9f             	mov	byte ptr [rbp - 97], cl
ffffffff8000a7dc: 8a 4d 9f             	mov	cl, byte ptr [rbp - 97]
ffffffff8000a7df: 88 8d d0 fe ff ff    	mov	byte ptr [rbp - 304], cl
ffffffff8000a7e5: b9 0c 00 00 00       	mov	ecx, 12
ffffffff8000a7ea: 48 8d bd 38 ff ff ff 	lea	rdi, [rbp - 200]
ffffffff8000a7f1: f3 48 a5             	rep		movsq	qword ptr es:[rdi], qword ptr [rsi]
ffffffff8000a7f4: b9 0c 00 00 00       	mov	ecx, 12
ffffffff8000a7f9: 48 8d 7d a0          	lea	rdi, [rbp - 96]
ffffffff8000a7fd: 48 8d b5 38 ff ff ff 	lea	rsi, [rbp - 200]
ffffffff8000a804: f3 48 a5             	rep		movsq	qword ptr es:[rdi], qword ptr [rsi]
ffffffff8000a807: b9 0c 00 00 00       	mov	ecx, 12
ffffffff8000a80c: 48 8d bd d8 fe ff ff 	lea	rdi, [rbp - 296]
ffffffff8000a813: 48 8d 75 a0          	lea	rsi, [rbp - 96]
ffffffff8000a817: f3 48 a5             	rep		movsq	qword ptr es:[rdi], qword ptr [rsi]
ffffffff8000a81a: 48 8b bd c8 fe ff ff 	mov	rdi, qword ptr [rbp - 312]
ffffffff8000a821: 8a 8d d0 fe ff ff    	mov	cl, byte ptr [rbp - 304]
ffffffff8000a827: 88 4f 60             	mov	byte ptr [rdi + 96], cl
ffffffff8000a82a: b9 0c 00 00 00       	mov	ecx, 12
ffffffff8000a82f: 48 8d b5 d8 fe ff ff 	lea	rsi, [rbp - 296]
ffffffff8000a836: f3 48 a5             	rep		movsq	qword ptr es:[rdi], qword ptr [rsi]
ffffffff8000a839: 48 81 c4 50 01 00 00 	add	rsp, 336
ffffffff8000a840: 5d                   	pop	rbp
ffffffff8000a841: c3                   	ret
ffffffff8000a842: cc                   	int3
ffffffff8000a843: cc                   	int3
ffffffff8000a844: cc                   	int3
ffffffff8000a845: cc                   	int3
ffffffff8000a846: cc                   	int3
ffffffff8000a847: cc                   	int3
ffffffff8000a848: cc                   	int3
ffffffff8000a849: cc                   	int3
ffffffff8000a84a: cc                   	int3
ffffffff8000a84b: cc                   	int3
ffffffff8000a84c: cc                   	int3
ffffffff8000a84d: cc                   	int3
ffffffff8000a84e: cc                   	int3
ffffffff8000a84f: cc                   	int3

ffffffff8000a850 <_ZN3qos4sync14Mutex$LT$T$GT$4lock17h3cb0bcdec5922119E>:
ffffffff8000a850: 55                   	push	rbp
ffffffff8000a851: 48 89 e5             	mov	rbp, rsp
ffffffff8000a854: 48 83 ec 20          	sub	rsp, 32
ffffffff8000a858: 48 89 7d e8          	mov	qword ptr [rbp - 24], rdi
ffffffff8000a85c: 48 89 7d f8          	mov	qword ptr [rbp - 8], rdi
ffffffff8000a860: 48 8b 7d e8          	mov	rdi, qword ptr [rbp - 24]
ffffffff8000a864: 48 83 c7 10          	add	rdi, 16
ffffffff8000a868: c6 45 f5 02          	mov	byte ptr [rbp - 11], 2
ffffffff8000a86c: c6 45 f6 02          	mov	byte ptr [rbp - 10], 2
ffffffff8000a870: 44 0f b6 45 f6       	movzx	r8d, byte ptr [rbp - 10]
ffffffff8000a875: 0f b6 4d f5          	movzx	ecx, byte ptr [rbp - 11]
ffffffff8000a879: 31 f6                	xor	esi, esi
ffffffff8000a87b: ba 01 00 00 00       	mov	edx, 1
ffffffff8000a880: e8 ab a2 ff ff       	call	0xffffffff80004b30 <_ZN4core4sync6atomic10AtomicBool16compare_exchange17hcc521d94ecb2d70aE>
ffffffff8000a885: 88 55 f1             	mov	byte ptr [rbp - 15], dl
ffffffff8000a888: 88 45 f0             	mov	byte ptr [rbp - 16], al
ffffffff8000a88b: 48 8d 7d f0          	lea	rdi, [rbp - 16]
ffffffff8000a88f: e8 2c d7 ff ff       	call	0xffffffff80007fc0 <_ZN4core6result19Result$LT$T$C$E$GT$5is_ok17h9f7f9a2eecf82cabE>
ffffffff8000a894: a8 01                	test	al, 1
ffffffff8000a896: 75 1d                	jne	0xffffffff8000a8b5 <_ZN3qos4sync14Mutex$LT$T$GT$4lock17h3cb0bcdec5922119E+0x65>
ffffffff8000a898: 48 8b 7d e8          	mov	rdi, qword ptr [rbp - 24]
ffffffff8000a89c: 48 83 c7 10          	add	rdi, 16
ffffffff8000a8a0: c6 45 f7 00          	mov	byte ptr [rbp - 9], 0
ffffffff8000a8a4: 8a 45 f7             	mov	al, byte ptr [rbp - 9]
ffffffff8000a8a7: 0f b6 f0             	movzx	esi, al
ffffffff8000a8aa: e8 51 a3 ff ff       	call	0xffffffff80004c00 <_ZN4core4sync6atomic10AtomicBool4load17h36e0d2a5eb6cad41E>
ffffffff8000a8af: a8 01                	test	al, 1
ffffffff8000a8b1: 75 11                	jne	0xffffffff8000a8c4 <_ZN3qos4sync14Mutex$LT$T$GT$4lock17h3cb0bcdec5922119E+0x74>
ffffffff8000a8b3: eb ab                	jmp	0xffffffff8000a860 <_ZN3qos4sync14Mutex$LT$T$GT$4lock17h3cb0bcdec5922119E+0x10>
ffffffff8000a8b5: 48 8b 7d e8          	mov	rdi, qword ptr [rbp - 24]
ffffffff8000a8b9: e8 82 fe ff ff       	call	0xffffffff8000a740 <_ZN3qos4sync19MutexGuard$LT$T$GT$3new17h338b8e0fcdbc52ecE>
ffffffff8000a8be: 48 83 c4 20          	add	rsp, 32
ffffffff8000a8c2: 5d                   	pop	rbp
ffffffff8000a8c3: c3                   	ret
ffffffff8000a8c4: e8 67 fd ff ff       	call	0xffffffff8000a630 <_ZN4core9core_arch3x864sse29_mm_pause17hc92b4cb786bf065bE>
ffffffff8000a8c9: eb cd                	jmp	0xffffffff8000a898 <_ZN3qos4sync14Mutex$LT$T$GT$4lock17h3cb0bcdec5922119E+0x48>
ffffffff8000a8cb: cc                   	int3
ffffffff8000a8cc: cc                   	int3
ffffffff8000a8cd: cc                   	int3
ffffffff8000a8ce: cc                   	int3
ffffffff8000a8cf: cc                   	int3

ffffffff8000a8d0 <_ZN3qos4sync14Mutex$LT$T$GT$4lock17h42aec9b08e5939aeE>:
ffffffff8000a8d0: 55                   	push	rbp
ffffffff8000a8d1: 48 89 e5             	mov	rbp, rsp
ffffffff8000a8d4: 48 83 ec 20          	sub	rsp, 32
ffffffff8000a8d8: 48 89 7d e8          	mov	qword ptr [rbp - 24], rdi
ffffffff8000a8dc: 48 89 7d f8          	mov	qword ptr [rbp - 8], rdi
ffffffff8000a8e0: 48 8b 7d e8          	mov	rdi, qword ptr [rbp - 24]
ffffffff8000a8e4: 48 83 c7 60          	add	rdi, 96
ffffffff8000a8e8: c6 45 f5 02          	mov	byte ptr [rbp - 11], 2
ffffffff8000a8ec: c6 45 f6 02          	mov	byte ptr [rbp - 10], 2
ffffffff8000a8f0: 44 0f b6 45 f6       	movzx	r8d, byte ptr [rbp - 10]
ffffffff8000a8f5: 0f b6 4d f5          	movzx	ecx, byte ptr [rbp - 11]
ffffffff8000a8f9: 31 f6                	xor	esi, esi
ffffffff8000a8fb: ba 01 00 00 00       	mov	edx, 1
ffffffff8000a900: e8 2b a2 ff ff       	call	0xffffffff80004b30 <_ZN4core4sync6atomic10AtomicBool16compare_exchange17hcc521d94ecb2d70aE>
ffffffff8000a905: 88 55 f1             	mov	byte ptr [rbp - 15], dl
ffffffff8000a908: 88 45 f0             	mov	byte ptr [rbp - 16], al
ffffffff8000a90b: 48 8d 7d f0          	lea	rdi, [rbp - 16]
ffffffff8000a90f: e8 ac d6 ff ff       	call	0xffffffff80007fc0 <_ZN4core6result19Result$LT$T$C$E$GT$5is_ok17h9f7f9a2eecf82cabE>
ffffffff8000a914: a8 01                	test	al, 1
ffffffff8000a916: 75 1d                	jne	0xffffffff8000a935 <_ZN3qos4sync14Mutex$LT$T$GT$4lock17h42aec9b08e5939aeE+0x65>
ffffffff8000a918: 48 8b 7d e8          	mov	rdi, qword ptr [rbp - 24]
ffffffff8000a91c: 48 83 c7 60          	add	rdi, 96
ffffffff8000a920: c6 45 f7 00          	mov	byte ptr [rbp - 9], 0
ffffffff8000a924: 8a 45 f7             	mov	al, byte ptr [rbp - 9]
ffffffff8000a927: 0f b6 f0             	movzx	esi, al
ffffffff8000a92a: e8 d1 a2 ff ff       	call	0xffffffff80004c00 <_ZN4core4sync6atomic10AtomicBool4load17h36e0d2a5eb6cad41E>
ffffffff8000a92f: a8 01                	test	al, 1
ffffffff8000a931: 75 11                	jne	0xffffffff8000a944 <_ZN3qos4sync14Mutex$LT$T$GT$4lock17h42aec9b08e5939aeE+0x74>
ffffffff8000a933: eb ab                	jmp	0xffffffff8000a8e0 <_ZN3qos4sync14Mutex$LT$T$GT$4lock17h42aec9b08e5939aeE+0x10>
ffffffff8000a935: 48 8b 7d e8          	mov	rdi, qword ptr [rbp - 24]
ffffffff8000a939: e8 e2 fd ff ff       	call	0xffffffff8000a720 <_ZN3qos4sync19MutexGuard$LT$T$GT$3new17h2413f178f439fee2E>
ffffffff8000a93e: 48 83 c4 20          	add	rsp, 32
ffffffff8000a942: 5d                   	pop	rbp
ffffffff8000a943: c3                   	ret
ffffffff8000a944: e8 e7 fc ff ff       	call	0xffffffff8000a630 <_ZN4core9core_arch3x864sse29_mm_pause17hc92b4cb786bf065bE>
ffffffff8000a949: eb cd                	jmp	0xffffffff8000a918 <_ZN3qos4sync14Mutex$LT$T$GT$4lock17h42aec9b08e5939aeE+0x48>
ffffffff8000a94b: cc                   	int3
ffffffff8000a94c: cc                   	int3
ffffffff8000a94d: cc                   	int3
ffffffff8000a94e: cc                   	int3
ffffffff8000a94f: cc                   	int3

ffffffff8000a950 <_ZN3qos4sync17Lazy$LT$T$C$F$GT$5force17h649fedfa67672d3aE>:
ffffffff8000a950: 55                   	push	rbp
ffffffff8000a951: 48 89 e5             	mov	rbp, rsp
ffffffff8000a954: 48 81 ec e0 02 00 00 	sub	rsp, 736
ffffffff8000a95b: 48 89 bd 30 fd ff ff 	mov	qword ptr [rbp - 720], rdi
ffffffff8000a962: 48 89 bd b0 fd ff ff 	mov	qword ptr [rbp - 592], rdi
ffffffff8000a969: e8 f2 0e 00 00       	call	0xffffffff8000b860 <_ZN4core4cell13Cell$LT$T$GT$4take17hc294c0d929d917a0E>
ffffffff8000a96e: 48 89 85 40 fd ff ff 	mov	qword ptr [rbp - 704], rax
ffffffff8000a975: 48 8b 95 40 fd ff ff 	mov	rdx, qword ptr [rbp - 704]
ffffffff8000a97c: b8 01 00 00 00       	mov	eax, 1
ffffffff8000a981: 31 c9                	xor	ecx, ecx
ffffffff8000a983: 48 83 fa 00          	cmp	rdx, 0
ffffffff8000a987: 48 0f 44 c1          	cmove	rax, rcx
ffffffff8000a98b: 48 83 f8 00          	cmp	rax, 0
ffffffff8000a98f: 75 29                	jne	0xffffffff8000a9ba <_ZN3qos4sync17Lazy$LT$T$C$F$GT$5force17h649fedfa67672d3aE+0x6a>
ffffffff8000a991: 48 8b 85 30 fd ff ff 	mov	rax, qword ptr [rbp - 720]
ffffffff8000a998: 48 83 c0 08          	add	rax, 8
ffffffff8000a99c: 48 89 45 f0          	mov	qword ptr [rbp - 16], rax
ffffffff8000a9a0: 48 89 85 c0 fd ff ff 	mov	qword ptr [rbp - 576], rax
ffffffff8000a9a7: 48 89 85 c8 fd ff ff 	mov	qword ptr [rbp - 568], rax
ffffffff8000a9ae: 48 89 85 38 fd ff ff 	mov	qword ptr [rbp - 712], rax
ffffffff8000a9b5: e9 ca 00 00 00       	jmp	0xffffffff8000aa84 <_ZN3qos4sync17Lazy$LT$T$C$F$GT$5force17h649fedfa67672d3aE+0x134>
ffffffff8000a9ba: 48 8b 85 30 fd ff ff 	mov	rax, qword ptr [rbp - 720]
ffffffff8000a9c1: 48 8b b5 40 fd ff ff 	mov	rsi, qword ptr [rbp - 704]
ffffffff8000a9c8: 48 89 b5 b8 fd ff ff 	mov	qword ptr [rbp - 584], rsi
ffffffff8000a9cf: 48 83 c0 08          	add	rax, 8
ffffffff8000a9d3: 48 89 85 28 fd ff ff 	mov	qword ptr [rbp - 728], rax
ffffffff8000a9da: 48 89 45 f8          	mov	qword ptr [rbp - 8], rax
ffffffff8000a9de: 48 8d bd 48 fd ff ff 	lea	rdi, [rbp - 696]
ffffffff8000a9e5: e8 36 1d 00 00       	call	0xffffffff8000c720 <_ZN4core3ops8function6FnOnce9call_once17h78d04fa1be85f723E>
ffffffff8000a9ea: 48 8b 85 28 fd ff ff 	mov	rax, qword ptr [rbp - 728]
ffffffff8000a9f1: 48 89 45 d8          	mov	qword ptr [rbp - 40], rax
ffffffff8000a9f5: b9 0d 00 00 00       	mov	ecx, 13
ffffffff8000a9fa: 48 8d bd 38 fe ff ff 	lea	rdi, [rbp - 456]
ffffffff8000aa01: 48 8d b5 48 fd ff ff 	lea	rsi, [rbp - 696]
ffffffff8000aa08: f3 48 a5             	rep		movsq	qword ptr es:[rdi], qword ptr [rsi]
ffffffff8000aa0b: b9 0d 00 00 00       	mov	ecx, 13
ffffffff8000aa10: 48 8d bd 08 ff ff ff 	lea	rdi, [rbp - 248]
ffffffff8000aa17: 48 8d b5 38 fe ff ff 	lea	rsi, [rbp - 456]
ffffffff8000aa1e: f3 48 a5             	rep		movsq	qword ptr es:[rdi], qword ptr [rsi]
ffffffff8000aa21: b9 0d 00 00 00       	mov	ecx, 13
ffffffff8000aa26: 48 8d bd 70 ff ff ff 	lea	rdi, [rbp - 144]
ffffffff8000aa2d: 48 8d b5 08 ff ff ff 	lea	rsi, [rbp - 248]
ffffffff8000aa34: f3 48 a5             	rep		movsq	qword ptr es:[rdi], qword ptr [rsi]
ffffffff8000aa37: b9 0d 00 00 00       	mov	ecx, 13
ffffffff8000aa3c: 48 8d bd a0 fe ff ff 	lea	rdi, [rbp - 352]
ffffffff8000aa43: 48 8d b5 70 ff ff ff 	lea	rsi, [rbp - 144]
ffffffff8000aa4a: f3 48 a5             	rep		movsq	qword ptr es:[rdi], qword ptr [rsi]
ffffffff8000aa4d: b9 0d 00 00 00       	mov	ecx, 13
ffffffff8000aa52: 48 8d bd d0 fd ff ff 	lea	rdi, [rbp - 560]
ffffffff8000aa59: 48 8d b5 a0 fe ff ff 	lea	rsi, [rbp - 352]
ffffffff8000aa60: f3 48 a5             	rep		movsq	qword ptr es:[rdi], qword ptr [rsi]
ffffffff8000aa63: b9 0d 00 00 00       	mov	ecx, 13
ffffffff8000aa68: 48 8d b5 d0 fd ff ff 	lea	rsi, [rbp - 560]
ffffffff8000aa6f: 48 89 c7             	mov	rdi, rax
ffffffff8000aa72: f3 48 a5             	rep		movsq	qword ptr es:[rdi], qword ptr [rsi]
ffffffff8000aa75: 48 89 45 e0          	mov	qword ptr [rbp - 32], rax
ffffffff8000aa79: 48 89 45 e8          	mov	qword ptr [rbp - 24], rax
ffffffff8000aa7d: 48 89 85 38 fd ff ff 	mov	qword ptr [rbp - 712], rax
ffffffff8000aa84: 48 8b 85 38 fd ff ff 	mov	rax, qword ptr [rbp - 712]
ffffffff8000aa8b: 48 81 c4 e0 02 00 00 	add	rsp, 736
ffffffff8000aa92: 5d                   	pop	rbp
ffffffff8000aa93: c3                   	ret
ffffffff8000aa94: cc                   	int3
ffffffff8000aa95: cc                   	int3
ffffffff8000aa96: cc                   	int3
ffffffff8000aa97: cc                   	int3
ffffffff8000aa98: cc                   	int3
ffffffff8000aa99: cc                   	int3
ffffffff8000aa9a: cc                   	int3
ffffffff8000aa9b: cc                   	int3
ffffffff8000aa9c: cc                   	int3
ffffffff8000aa9d: cc                   	int3
ffffffff8000aa9e: cc                   	int3
ffffffff8000aa9f: cc                   	int3

ffffffff8000aaa0 <_ZN3qos4sync17Lazy$LT$T$C$F$GT$3get17h9b1b63a736980342E>:
ffffffff8000aaa0: 55                   	push	rbp
ffffffff8000aaa1: 48 89 e5             	mov	rbp, rsp
ffffffff8000aaa4: 48 83 ec 10          	sub	rsp, 16
ffffffff8000aaa8: 48 89 7d f8          	mov	qword ptr [rbp - 8], rdi
ffffffff8000aaac: e8 9f fe ff ff       	call	0xffffffff8000a950 <_ZN3qos4sync17Lazy$LT$T$C$F$GT$5force17h649fedfa67672d3aE>
ffffffff8000aab1: 48 83 c4 10          	add	rsp, 16
ffffffff8000aab5: 5d                   	pop	rbp
ffffffff8000aab6: c3                   	ret
ffffffff8000aab7: cc                   	int3
ffffffff8000aab8: cc                   	int3
ffffffff8000aab9: cc                   	int3
ffffffff8000aaba: cc                   	int3
ffffffff8000aabb: cc                   	int3
ffffffff8000aabc: cc                   	int3
ffffffff8000aabd: cc                   	int3
ffffffff8000aabe: cc                   	int3
ffffffff8000aabf: cc                   	int3

ffffffff8000aac0 <_ZN4core3fmt10ArgumentV111new_display17h0a021d1230eb4007E>:
ffffffff8000aac0: 55                   	push	rbp
ffffffff8000aac1: 48 89 e5             	mov	rbp, rsp
ffffffff8000aac4: 48 83 ec 38          	sub	rsp, 56
ffffffff8000aac8: 48 89 7d d8          	mov	qword ptr [rbp - 40], rdi
ffffffff8000aacc: 48 89 7d e0          	mov	qword ptr [rbp - 32], rdi
ffffffff8000aad0: 48 8b 05 d1 76 00 00 	mov	rax, qword ptr [rip + 30417] # 0xffffffff800121a8 <xr6aouzjkjmurg0+0xffffffff800121a8>
ffffffff8000aad7: 48 89 45 e8          	mov	qword ptr [rbp - 24], rax
ffffffff8000aadb: 48 89 45 f0          	mov	qword ptr [rbp - 16], rax
ffffffff8000aadf: 48 8b 45 f0          	mov	rax, qword ptr [rbp - 16]
ffffffff8000aae3: 48 89 7d f8          	mov	qword ptr [rbp - 8], rdi
ffffffff8000aae7: 48 8b 4d f8          	mov	rcx, qword ptr [rbp - 8]
ffffffff8000aaeb: 48 89 4d c8          	mov	qword ptr [rbp - 56], rcx
ffffffff8000aaef: 48 89 45 d0          	mov	qword ptr [rbp - 48], rax
ffffffff8000aaf3: 48 8b 45 c8          	mov	rax, qword ptr [rbp - 56]
ffffffff8000aaf7: 48 8b 55 d0          	mov	rdx, qword ptr [rbp - 48]
ffffffff8000aafb: 48 83 c4 38          	add	rsp, 56
ffffffff8000aaff: 5d                   	pop	rbp
ffffffff8000ab00: c3                   	ret
ffffffff8000ab01: cc                   	int3
ffffffff8000ab02: cc                   	int3
ffffffff8000ab03: cc                   	int3
ffffffff8000ab04: cc                   	int3
ffffffff8000ab05: cc                   	int3
ffffffff8000ab06: cc                   	int3
ffffffff8000ab07: cc                   	int3
ffffffff8000ab08: cc                   	int3
ffffffff8000ab09: cc                   	int3
ffffffff8000ab0a: cc                   	int3
ffffffff8000ab0b: cc                   	int3
ffffffff8000ab0c: cc                   	int3
ffffffff8000ab0d: cc                   	int3
ffffffff8000ab0e: cc                   	int3
ffffffff8000ab0f: cc                   	int3

ffffffff8000ab10 <_ZN4core3fmt10ArgumentV111new_display17h68c8cdcf133c2727E>:
ffffffff8000ab10: 55                   	push	rbp
ffffffff8000ab11: 48 89 e5             	mov	rbp, rsp
ffffffff8000ab14: 48 83 ec 38          	sub	rsp, 56
ffffffff8000ab18: 48 89 7d d8          	mov	qword ptr [rbp - 40], rdi
ffffffff8000ab1c: 48 89 7d e0          	mov	qword ptr [rbp - 32], rdi
ffffffff8000ab20: 48 8d 05 99 d5 ff ff 	lea	rax, [rip - 10855]      # 0xffffffff800080c0 <_ZN44_$LT$$RF$T$u20$as$u20$core..fmt..Display$GT$3fmt17hafac2a163a25c5b6E>
ffffffff8000ab27: 48 89 45 e8          	mov	qword ptr [rbp - 24], rax
ffffffff8000ab2b: 48 89 45 f0          	mov	qword ptr [rbp - 16], rax
ffffffff8000ab2f: 48 8b 45 f0          	mov	rax, qword ptr [rbp - 16]
ffffffff8000ab33: 48 89 7d f8          	mov	qword ptr [rbp - 8], rdi
ffffffff8000ab37: 48 8b 4d f8          	mov	rcx, qword ptr [rbp - 8]
ffffffff8000ab3b: 48 89 4d c8          	mov	qword ptr [rbp - 56], rcx
ffffffff8000ab3f: 48 89 45 d0          	mov	qword ptr [rbp - 48], rax
ffffffff8000ab43: 48 8b 45 c8          	mov	rax, qword ptr [rbp - 56]
ffffffff8000ab47: 48 8b 55 d0          	mov	rdx, qword ptr [rbp - 48]
ffffffff8000ab4b: 48 83 c4 38          	add	rsp, 56
ffffffff8000ab4f: 5d                   	pop	rbp
ffffffff8000ab50: c3                   	ret
ffffffff8000ab51: cc                   	int3
ffffffff8000ab52: cc                   	int3
ffffffff8000ab53: cc                   	int3
ffffffff8000ab54: cc                   	int3
ffffffff8000ab55: cc                   	int3
ffffffff8000ab56: cc                   	int3
ffffffff8000ab57: cc                   	int3
ffffffff8000ab58: cc                   	int3
ffffffff8000ab59: cc                   	int3
ffffffff8000ab5a: cc                   	int3
ffffffff8000ab5b: cc                   	int3
ffffffff8000ab5c: cc                   	int3
ffffffff8000ab5d: cc                   	int3
ffffffff8000ab5e: cc                   	int3
ffffffff8000ab5f: cc                   	int3

ffffffff8000ab60 <_ZN4core3fmt10ArgumentV111new_display17h8d7c3b1ab4909b4bE>:
ffffffff8000ab60: 55                   	push	rbp
ffffffff8000ab61: 48 89 e5             	mov	rbp, rsp
ffffffff8000ab64: 48 83 ec 38          	sub	rsp, 56
ffffffff8000ab68: 48 89 7d d8          	mov	qword ptr [rbp - 40], rdi
ffffffff8000ab6c: 48 89 7d e0          	mov	qword ptr [rbp - 32], rdi
ffffffff8000ab70: 48 8b 05 39 76 00 00 	mov	rax, qword ptr [rip + 30265] # 0xffffffff800121b0 <xr6aouzjkjmurg0+0xffffffff800121b0>
ffffffff8000ab77: 48 89 45 e8          	mov	qword ptr [rbp - 24], rax
ffffffff8000ab7b: 48 89 45 f0          	mov	qword ptr [rbp - 16], rax
ffffffff8000ab7f: 48 8b 45 f0          	mov	rax, qword ptr [rbp - 16]
ffffffff8000ab83: 48 89 7d f8          	mov	qword ptr [rbp - 8], rdi
ffffffff8000ab87: 48 8b 4d f8          	mov	rcx, qword ptr [rbp - 8]
ffffffff8000ab8b: 48 89 4d c8          	mov	qword ptr [rbp - 56], rcx
ffffffff8000ab8f: 48 89 45 d0          	mov	qword ptr [rbp - 48], rax
ffffffff8000ab93: 48 8b 45 c8          	mov	rax, qword ptr [rbp - 56]
ffffffff8000ab97: 48 8b 55 d0          	mov	rdx, qword ptr [rbp - 48]
ffffffff8000ab9b: 48 83 c4 38          	add	rsp, 56
ffffffff8000ab9f: 5d                   	pop	rbp
ffffffff8000aba0: c3                   	ret
ffffffff8000aba1: cc                   	int3
ffffffff8000aba2: cc                   	int3
ffffffff8000aba3: cc                   	int3
ffffffff8000aba4: cc                   	int3
ffffffff8000aba5: cc                   	int3
ffffffff8000aba6: cc                   	int3
ffffffff8000aba7: cc                   	int3
ffffffff8000aba8: cc                   	int3
ffffffff8000aba9: cc                   	int3
ffffffff8000abaa: cc                   	int3
ffffffff8000abab: cc                   	int3
ffffffff8000abac: cc                   	int3
ffffffff8000abad: cc                   	int3
ffffffff8000abae: cc                   	int3
ffffffff8000abaf: cc                   	int3

ffffffff8000abb0 <_ZN4core3fmt10ArgumentV111new_display17ha4ff076876145195E>:
ffffffff8000abb0: 55                   	push	rbp
ffffffff8000abb1: 48 89 e5             	mov	rbp, rsp
ffffffff8000abb4: 48 83 ec 38          	sub	rsp, 56
ffffffff8000abb8: 48 89 7d d8          	mov	qword ptr [rbp - 40], rdi
ffffffff8000abbc: 48 89 7d e0          	mov	qword ptr [rbp - 32], rdi
ffffffff8000abc0: 48 8b 05 f1 75 00 00 	mov	rax, qword ptr [rip + 30193] # 0xffffffff800121b8 <xr6aouzjkjmurg0+0xffffffff800121b8>
ffffffff8000abc7: 48 89 45 e8          	mov	qword ptr [rbp - 24], rax
ffffffff8000abcb: 48 89 45 f0          	mov	qword ptr [rbp - 16], rax
ffffffff8000abcf: 48 8b 45 f0          	mov	rax, qword ptr [rbp - 16]
ffffffff8000abd3: 48 89 7d f8          	mov	qword ptr [rbp - 8], rdi
ffffffff8000abd7: 48 8b 4d f8          	mov	rcx, qword ptr [rbp - 8]
ffffffff8000abdb: 48 89 4d c8          	mov	qword ptr [rbp - 56], rcx
ffffffff8000abdf: 48 89 45 d0          	mov	qword ptr [rbp - 48], rax
ffffffff8000abe3: 48 8b 45 c8          	mov	rax, qword ptr [rbp - 56]
ffffffff8000abe7: 48 8b 55 d0          	mov	rdx, qword ptr [rbp - 48]
ffffffff8000abeb: 48 83 c4 38          	add	rsp, 56
ffffffff8000abef: 5d                   	pop	rbp
ffffffff8000abf0: c3                   	ret
ffffffff8000abf1: cc                   	int3
ffffffff8000abf2: cc                   	int3
ffffffff8000abf3: cc                   	int3
ffffffff8000abf4: cc                   	int3
ffffffff8000abf5: cc                   	int3
ffffffff8000abf6: cc                   	int3
ffffffff8000abf7: cc                   	int3
ffffffff8000abf8: cc                   	int3
ffffffff8000abf9: cc                   	int3
ffffffff8000abfa: cc                   	int3
ffffffff8000abfb: cc                   	int3
ffffffff8000abfc: cc                   	int3
ffffffff8000abfd: cc                   	int3
ffffffff8000abfe: cc                   	int3
ffffffff8000abff: cc                   	int3

ffffffff8000ac00 <_ZN4core3fmt10ArgumentV113new_upper_hex17h175853aa782ea5a2E>:
ffffffff8000ac00: 55                   	push	rbp
ffffffff8000ac01: 48 89 e5             	mov	rbp, rsp
ffffffff8000ac04: 48 83 ec 38          	sub	rsp, 56
ffffffff8000ac08: 48 89 7d d8          	mov	qword ptr [rbp - 40], rdi
ffffffff8000ac0c: 48 89 7d e0          	mov	qword ptr [rbp - 32], rdi
ffffffff8000ac10: 48 8b 05 a9 75 00 00 	mov	rax, qword ptr [rip + 30121] # 0xffffffff800121c0 <xr6aouzjkjmurg0+0xffffffff800121c0>
ffffffff8000ac17: 48 89 45 e8          	mov	qword ptr [rbp - 24], rax
ffffffff8000ac1b: 48 89 45 f0          	mov	qword ptr [rbp - 16], rax
ffffffff8000ac1f: 48 8b 45 f0          	mov	rax, qword ptr [rbp - 16]
ffffffff8000ac23: 48 89 7d f8          	mov	qword ptr [rbp - 8], rdi
ffffffff8000ac27: 48 8b 4d f8          	mov	rcx, qword ptr [rbp - 8]
ffffffff8000ac2b: 48 89 4d c8          	mov	qword ptr [rbp - 56], rcx
ffffffff8000ac2f: 48 89 45 d0          	mov	qword ptr [rbp - 48], rax
ffffffff8000ac33: 48 8b 45 c8          	mov	rax, qword ptr [rbp - 56]
ffffffff8000ac37: 48 8b 55 d0          	mov	rdx, qword ptr [rbp - 48]
ffffffff8000ac3b: 48 83 c4 38          	add	rsp, 56
ffffffff8000ac3f: 5d                   	pop	rbp
ffffffff8000ac40: c3                   	ret
ffffffff8000ac41: cc                   	int3
ffffffff8000ac42: cc                   	int3
ffffffff8000ac43: cc                   	int3
ffffffff8000ac44: cc                   	int3
ffffffff8000ac45: cc                   	int3
ffffffff8000ac46: cc                   	int3
ffffffff8000ac47: cc                   	int3
ffffffff8000ac48: cc                   	int3
ffffffff8000ac49: cc                   	int3
ffffffff8000ac4a: cc                   	int3
ffffffff8000ac4b: cc                   	int3
ffffffff8000ac4c: cc                   	int3
ffffffff8000ac4d: cc                   	int3
ffffffff8000ac4e: cc                   	int3
ffffffff8000ac4f: cc                   	int3

ffffffff8000ac50 <_ZN4core3fmt10ArgumentV19new_debug17h477d87732bf8e97fE>:
ffffffff8000ac50: 55                   	push	rbp
ffffffff8000ac51: 48 89 e5             	mov	rbp, rsp
ffffffff8000ac54: 48 83 ec 38          	sub	rsp, 56
ffffffff8000ac58: 48 89 7d d8          	mov	qword ptr [rbp - 40], rdi
ffffffff8000ac5c: 48 89 7d e0          	mov	qword ptr [rbp - 32], rdi
ffffffff8000ac60: 48 8d 05 29 d7 ff ff 	lea	rax, [rip - 10455]      # 0xffffffff80008390 <_ZN58_$LT$qos..paging..PhysAddr$u20$as$u20$core..fmt..Debug$GT$3fmt17h1ee6ca0fb2ab6cf5E>
ffffffff8000ac67: 48 89 45 e8          	mov	qword ptr [rbp - 24], rax
ffffffff8000ac6b: 48 89 45 f0          	mov	qword ptr [rbp - 16], rax
ffffffff8000ac6f: 48 8b 45 f0          	mov	rax, qword ptr [rbp - 16]
ffffffff8000ac73: 48 89 7d f8          	mov	qword ptr [rbp - 8], rdi
ffffffff8000ac77: 48 8b 4d f8          	mov	rcx, qword ptr [rbp - 8]
ffffffff8000ac7b: 48 89 4d c8          	mov	qword ptr [rbp - 56], rcx
ffffffff8000ac7f: 48 89 45 d0          	mov	qword ptr [rbp - 48], rax
ffffffff8000ac83: 48 8b 45 c8          	mov	rax, qword ptr [rbp - 56]
ffffffff8000ac87: 48 8b 55 d0          	mov	rdx, qword ptr [rbp - 48]
ffffffff8000ac8b: 48 83 c4 38          	add	rsp, 56
ffffffff8000ac8f: 5d                   	pop	rbp
ffffffff8000ac90: c3                   	ret
ffffffff8000ac91: cc                   	int3
ffffffff8000ac92: cc                   	int3
ffffffff8000ac93: cc                   	int3
ffffffff8000ac94: cc                   	int3
ffffffff8000ac95: cc                   	int3
ffffffff8000ac96: cc                   	int3
ffffffff8000ac97: cc                   	int3
ffffffff8000ac98: cc                   	int3
ffffffff8000ac99: cc                   	int3
ffffffff8000ac9a: cc                   	int3
ffffffff8000ac9b: cc                   	int3
ffffffff8000ac9c: cc                   	int3
ffffffff8000ac9d: cc                   	int3
ffffffff8000ac9e: cc                   	int3
ffffffff8000ac9f: cc                   	int3

ffffffff8000aca0 <_ZN4core3fmt10ArgumentV19new_debug17hc5dbf98806ad3420E>:
ffffffff8000aca0: 55                   	push	rbp
ffffffff8000aca1: 48 89 e5             	mov	rbp, rsp
ffffffff8000aca4: 48 83 ec 38          	sub	rsp, 56
ffffffff8000aca8: 48 89 7d d8          	mov	qword ptr [rbp - 40], rdi
ffffffff8000acac: 48 89 7d e0          	mov	qword ptr [rbp - 32], rdi
ffffffff8000acb0: 48 8d 05 19 0c 00 00 	lea	rax, [rip + 3097]       # 0xffffffff8000b8d0 <_ZN57_$LT$qos..limine..MemType$u20$as$u20$core..fmt..Debug$GT$3fmt17h14d67ba24c66a15dE>
ffffffff8000acb7: 48 89 45 e8          	mov	qword ptr [rbp - 24], rax
ffffffff8000acbb: 48 89 45 f0          	mov	qword ptr [rbp - 16], rax
ffffffff8000acbf: 48 8b 45 f0          	mov	rax, qword ptr [rbp - 16]
ffffffff8000acc3: 48 89 7d f8          	mov	qword ptr [rbp - 8], rdi
ffffffff8000acc7: 48 8b 4d f8          	mov	rcx, qword ptr [rbp - 8]
ffffffff8000accb: 48 89 4d c8          	mov	qword ptr [rbp - 56], rcx
ffffffff8000accf: 48 89 45 d0          	mov	qword ptr [rbp - 48], rax
ffffffff8000acd3: 48 8b 45 c8          	mov	rax, qword ptr [rbp - 56]
ffffffff8000acd7: 48 8b 55 d0          	mov	rdx, qword ptr [rbp - 48]
ffffffff8000acdb: 48 83 c4 38          	add	rsp, 56
ffffffff8000acdf: 5d                   	pop	rbp
ffffffff8000ace0: c3                   	ret
ffffffff8000ace1: cc                   	int3
ffffffff8000ace2: cc                   	int3
ffffffff8000ace3: cc                   	int3
ffffffff8000ace4: cc                   	int3
ffffffff8000ace5: cc                   	int3
ffffffff8000ace6: cc                   	int3
ffffffff8000ace7: cc                   	int3
ffffffff8000ace8: cc                   	int3
ffffffff8000ace9: cc                   	int3
ffffffff8000acea: cc                   	int3
ffffffff8000aceb: cc                   	int3
ffffffff8000acec: cc                   	int3
ffffffff8000aced: cc                   	int3
ffffffff8000acee: cc                   	int3
ffffffff8000acef: cc                   	int3

ffffffff8000acf0 <_ZN4core3fmt10ArgumentV19new_debug17he9ad1d5fdc6ff1b9E>:
ffffffff8000acf0: 55                   	push	rbp
ffffffff8000acf1: 48 89 e5             	mov	rbp, rsp
ffffffff8000acf4: 48 83 ec 38          	sub	rsp, 56
ffffffff8000acf8: 48 89 7d d8          	mov	qword ptr [rbp - 40], rdi
ffffffff8000acfc: 48 89 7d e0          	mov	qword ptr [rbp - 32], rdi
ffffffff8000ad00: 48 8d 05 69 d5 ff ff 	lea	rax, [rip - 10903]      # 0xffffffff80008270 <_ZN58_$LT$qos..paging..VirtAddr$u20$as$u20$core..fmt..Debug$GT$3fmt17h4f66bd878d1827e7E>
ffffffff8000ad07: 48 89 45 e8          	mov	qword ptr [rbp - 24], rax
ffffffff8000ad0b: 48 89 45 f0          	mov	qword ptr [rbp - 16], rax
ffffffff8000ad0f: 48 8b 45 f0          	mov	rax, qword ptr [rbp - 16]
ffffffff8000ad13: 48 89 7d f8          	mov	qword ptr [rbp - 8], rdi
ffffffff8000ad17: 48 8b 4d f8          	mov	rcx, qword ptr [rbp - 8]
ffffffff8000ad1b: 48 89 4d c8          	mov	qword ptr [rbp - 56], rcx
ffffffff8000ad1f: 48 89 45 d0          	mov	qword ptr [rbp - 48], rax
ffffffff8000ad23: 48 8b 45 c8          	mov	rax, qword ptr [rbp - 56]
ffffffff8000ad27: 48 8b 55 d0          	mov	rdx, qword ptr [rbp - 48]
ffffffff8000ad2b: 48 83 c4 38          	add	rsp, 56
ffffffff8000ad2f: 5d                   	pop	rbp
ffffffff8000ad30: c3                   	ret
ffffffff8000ad31: cc                   	int3
ffffffff8000ad32: cc                   	int3
ffffffff8000ad33: cc                   	int3
ffffffff8000ad34: cc                   	int3
ffffffff8000ad35: cc                   	int3
ffffffff8000ad36: cc                   	int3
ffffffff8000ad37: cc                   	int3
ffffffff8000ad38: cc                   	int3
ffffffff8000ad39: cc                   	int3
ffffffff8000ad3a: cc                   	int3
ffffffff8000ad3b: cc                   	int3
ffffffff8000ad3c: cc                   	int3
ffffffff8000ad3d: cc                   	int3
ffffffff8000ad3e: cc                   	int3
ffffffff8000ad3f: cc                   	int3

ffffffff8000ad40 <_ZN3qos9allocator13size_to_index17h10ab9890508c6c62E>:
ffffffff8000ad40: 55                   	push	rbp
ffffffff8000ad41: 48 89 e5             	mov	rbp, rsp
ffffffff8000ad44: 48 83 ec 20          	sub	rsp, 32
ffffffff8000ad48: 48 89 7d e8          	mov	qword ptr [rbp - 24], rdi
ffffffff8000ad4c: 48 8d 35 1d 6c 00 00 	lea	rsi, [rip + 27677]      # 0xffffffff80011970 <xr6aouzjkjmurg0+0xffffffff80011970>
ffffffff8000ad53: e8 c8 e9 ff ff       	call	0xffffffff80009720 <_ZN4core3num23_$LT$impl$u20$usize$GT$5ilog217h102bea41413d7033E>
ffffffff8000ad58: 89 45 f4             	mov	dword ptr [rbp - 12], eax
ffffffff8000ad5b: c7 45 f8 03 00 00 00 	mov	dword ptr [rbp - 8], 3
ffffffff8000ad62: 31 c9                	xor	ecx, ecx
ffffffff8000ad64: 83 e8 03             	sub	eax, 3
ffffffff8000ad67: 0f 42 c1             	cmovb	eax, ecx
ffffffff8000ad6a: 89 45 fc             	mov	dword ptr [rbp - 4], eax
ffffffff8000ad6d: 8b 45 fc             	mov	eax, dword ptr [rbp - 4]
ffffffff8000ad70: 48 83 c4 20          	add	rsp, 32
ffffffff8000ad74: 5d                   	pop	rbp
ffffffff8000ad75: c3                   	ret
ffffffff8000ad76: cc                   	int3
ffffffff8000ad77: cc                   	int3
ffffffff8000ad78: cc                   	int3
ffffffff8000ad79: cc                   	int3
ffffffff8000ad7a: cc                   	int3
ffffffff8000ad7b: cc                   	int3
ffffffff8000ad7c: cc                   	int3
ffffffff8000ad7d: cc                   	int3
ffffffff8000ad7e: cc                   	int3
ffffffff8000ad7f: cc                   	int3

ffffffff8000ad80 <_ZN3qos9allocator13index_to_size17h36571622c154ff3bE>:
ffffffff8000ad80: 55                   	push	rbp
ffffffff8000ad81: 48 89 e5             	mov	rbp, rsp
ffffffff8000ad84: 48 83 ec 10          	sub	rsp, 16
ffffffff8000ad88: 48 89 f9             	mov	rcx, rdi
ffffffff8000ad8b: 48 89 4d f8          	mov	qword ptr [rbp - 8], rcx
ffffffff8000ad8f: 48 89 cf             	mov	rdi, rcx
ffffffff8000ad92: 48 83 e7 c0          	and	rdi, -64
ffffffff8000ad96: 48 83 ff 00          	cmp	rdi, 0
ffffffff8000ad9a: 0f 95 c0             	setne	al
ffffffff8000ad9d: 48 83 e1 3f          	and	rcx, 63
ffffffff8000ada1: ba 08 00 00 00       	mov	edx, 8
ffffffff8000ada6: 48 d3 e2             	shl	rdx, cl
ffffffff8000ada9: 48 89 55 f0          	mov	qword ptr [rbp - 16], rdx
ffffffff8000adad: a8 01                	test	al, 1
ffffffff8000adaf: 75 0a                	jne	0xffffffff8000adbb <_ZN3qos9allocator13index_to_size17h36571622c154ff3bE+0x3b>
ffffffff8000adb1: 48 8b 45 f0          	mov	rax, qword ptr [rbp - 16]
ffffffff8000adb5: 48 83 c4 10          	add	rsp, 16
ffffffff8000adb9: 5d                   	pop	rbp
ffffffff8000adba: c3                   	ret
ffffffff8000adbb: 48 8d 3d 8e 72 ff ff 	lea	rdi, [rip - 36210]      # 0xffffffff80002050 <str.0>
ffffffff8000adc2: 48 8d 15 bf 6b 00 00 	lea	rdx, [rip + 27583]      # 0xffffffff80011988 <xr6aouzjkjmurg0+0xffffffff80011988>
ffffffff8000adc9: 48 8b 05 10 73 00 00 	mov	rax, qword ptr [rip + 29456] # 0xffffffff800120e0 <xr6aouzjkjmurg0+0xffffffff800120e0>
ffffffff8000add0: be 23 00 00 00       	mov	esi, 35
ffffffff8000add5: ff d0                	call	rax
ffffffff8000add7: 0f 0b                	ud2
ffffffff8000add9: cc                   	int3
ffffffff8000adda: cc                   	int3
ffffffff8000addb: cc                   	int3
ffffffff8000addc: cc                   	int3
ffffffff8000addd: cc                   	int3
ffffffff8000adde: cc                   	int3
ffffffff8000addf: cc                   	int3

ffffffff8000ade0 <_ZN3qos9allocator11init_memory17hdae524878cc05e68E>:
ffffffff8000ade0: 55                   	push	rbp
ffffffff8000ade1: 48 89 e5             	mov	rbp, rsp
ffffffff8000ade4: 48 81 e4 00 f0 ff ff 	and	rsp, -4096
ffffffff8000adeb: b8 00 30 00 00       	mov	eax, 12288
ffffffff8000adf0: e8 77 51 00 00       	call	0xffffffff8000ff6c <__rust_probestack>
ffffffff8000adf5: 48 29 c4             	sub	rsp, rax
ffffffff8000adf8: 48 8d 3d d9 85 00 00 	lea	rdi, [rip + 34265]      # 0xffffffff800133d8 <_ZN3qos5start12HHDM_REQUEST17h9292eca68aebd79cE+0x28>
ffffffff8000adff: e8 4c d3 ff ff       	call	0xffffffff80008150 <_ZN3qos6limine18LiminePtr$LT$T$GT$3get17h4bdc0898c16ceb22E>
ffffffff8000ae04: 48 89 c7             	mov	rdi, rax
ffffffff8000ae07: 48 8d 35 92 6b 00 00 	lea	rsi, [rip + 27538]      # 0xffffffff800119a0 <xr6aouzjkjmurg0+0xffffffff800119a0>
ffffffff8000ae0e: e8 dd f2 ff ff       	call	0xffffffff8000a0f0 <_ZN4core6option15Option$LT$T$GT$6unwrap17hc655199c0337a71eE>
ffffffff8000ae13: 48 8b 40 08          	mov	rax, qword ptr [rax + 8]
ffffffff8000ae17: 48 89 84 24 e8 2f 00 00      	mov	qword ptr [rsp + 12264], rax
ffffffff8000ae1f: 48 89 05 e2 95 00 00 	mov	qword ptr [rip + 38370], rax # 0xffffffff80014408 <_ZN3qos5utils16HIGH_HALF_OFFSET17ha14ca552b1fcb086E>
ffffffff8000ae26: 48 8d 3d 1b 85 00 00 	lea	rdi, [rip + 34075]      # 0xffffffff80013348 <_ZN3qos5start15MEM_MAP_REQUEST17hd583a111c74718f4E+0x28>
ffffffff8000ae2d: e8 ee d2 ff ff       	call	0xffffffff80008120 <_ZN3qos6limine18LiminePtr$LT$T$GT$3get17h3decb96281c86c46E>
ffffffff8000ae32: 48 89 c7             	mov	rdi, rax
ffffffff8000ae35: 48 8d 35 7c 6b 00 00 	lea	rsi, [rip + 27516]      # 0xffffffff800119b8 <xr6aouzjkjmurg0+0xffffffff800119b8>
ffffffff8000ae3c: e8 ef f1 ff ff       	call	0xffffffff8000a030 <_ZN4core6option15Option$LT$T$GT$6unwrap17h2fb93aae6979bb02E>
ffffffff8000ae41: 48 89 84 24 c0 0f 00 00      	mov	qword ptr [rsp + 4032], rax
ffffffff8000ae49: 48 89 84 24 58 2f 00 00      	mov	qword ptr [rsp + 12120], rax
ffffffff8000ae51: 48 8d 3d 00 96 00 00 	lea	rdi, [rip + 38400]      # 0xffffffff80014458 <_ZN3qos9allocator14PAGE_ALLOCATOR17ha1d94bef89ffa1b9E>
ffffffff8000ae58: e8 f3 f9 ff ff       	call	0xffffffff8000a850 <_ZN3qos4sync14Mutex$LT$T$GT$4lock17h3cb0bcdec5922119E>
ffffffff8000ae5d: 48 89 c1             	mov	rcx, rax
ffffffff8000ae60: 48 8b 84 24 c0 0f 00 00      	mov	rax, qword ptr [rsp + 4032]
ffffffff8000ae68: 48 89 8c 24 c8 0f 00 00      	mov	qword ptr [rsp + 4040], rcx
ffffffff8000ae70: 48 8b 40 08          	mov	rax, qword ptr [rax + 8]
ffffffff8000ae74: 48 c7 84 24 d0 0f 00 00 00 00 00 00  	mov	qword ptr [rsp + 4048], 0
ffffffff8000ae80: 48 89 84 24 d8 0f 00 00      	mov	qword ptr [rsp + 4056], rax
ffffffff8000ae88: 48 8b bc 24 d0 0f 00 00      	mov	rdi, qword ptr [rsp + 4048]
ffffffff8000ae90: 48 8b b4 24 d8 0f 00 00      	mov	rsi, qword ptr [rsp + 4056]
ffffffff8000ae98: e8 e3 f6 ff ff       	call	0xffffffff8000a580 <_ZN63_$LT$I$u20$as$u20$core..iter..traits..collect..IntoIterator$GT$9into_iter17h1a92386f5c2a06d2E>
ffffffff8000ae9d: 48 89 84 24 e0 0f 00 00      	mov	qword ptr [rsp + 4064], rax
ffffffff8000aea5: 48 89 94 24 e8 0f 00 00      	mov	qword ptr [rsp + 4072], rdx
ffffffff8000aead: 48 8d bc 24 e0 0f 00 00      	lea	rdi, [rsp + 4064]
ffffffff8000aeb5: e8 a6 f6 ff ff       	call	0xffffffff8000a560 <_ZN4core4iter5range101_$LT$impl$u20$core..iter..traits..iterator..Iterator$u20$for$u20$core..ops..range..Range$LT$A$GT$$GT$4next17ha48bff387f27bd7eE>
ffffffff8000aeba: 48 89 94 24 f8 0f 00 00      	mov	qword ptr [rsp + 4088], rdx
ffffffff8000aec2: 48 89 84 24 f0 0f 00 00      	mov	qword ptr [rsp + 4080], rax
ffffffff8000aeca: 48 83 bc 24 f0 0f 00 00 00   	cmp	qword ptr [rsp + 4080], 0
ffffffff8000aed3: 0f 85 9b 00 00 00    	jne	0xffffffff8000af74 <_ZN3qos9allocator11init_memory17hdae524878cc05e68E+0x194>
ffffffff8000aed9: 48 8b bc 24 c8 0f 00 00      	mov	rdi, qword ptr [rsp + 4040]
ffffffff8000aee1: e8 9a ae ff ff       	call	0xffffffff80005d80 <_ZN4core3mem4drop17h914d8161ec703d5aE>
ffffffff8000aee6: 48 8d bc 24 00 10 00 00      	lea	rdi, [rsp + 4096]
ffffffff8000aeee: e8 4d d6 ff ff       	call	0xffffffff80008540 <_ZN3qos6paging9PageTable3new17hec5c4d7944dc65b2E>
ffffffff8000aef3: 48 8d 35 16 95 00 00 	lea	rsi, [rip + 38166]      # 0xffffffff80014410 <_ZN3qos9allocator13LOW_ALLOCATOR17h7dd76f3dae20eb5eE>
ffffffff8000aefa: 48 8d bc 24 00 10 00 00      	lea	rdi, [rsp + 4096]
ffffffff8000af02: e8 f9 ce ff ff       	call	0xffffffff80007e00 <_ZN5alloc5boxed16Box$LT$T$C$A$GT$6new_in17hee856acfc4f54663E>
ffffffff8000af07: 48 89 c1             	mov	rcx, rax
ffffffff8000af0a: 48 8b 84 24 c0 0f 00 00      	mov	rax, qword ptr [rsp + 4032]
ffffffff8000af12: 48 89 94 24 b0 0f 00 00      	mov	qword ptr [rsp + 4016], rdx
ffffffff8000af1a: 48 89 8c 24 b8 0f 00 00      	mov	qword ptr [rsp + 4024], rcx
ffffffff8000af22: 48 89 8c 24 70 2f 00 00      	mov	qword ptr [rsp + 12144], rcx
ffffffff8000af2a: 48 89 94 24 78 2f 00 00      	mov	qword ptr [rsp + 12152], rdx
ffffffff8000af32: 48 8b 40 08          	mov	rax, qword ptr [rax + 8]
ffffffff8000af36: 48 c7 84 24 68 2c 00 00 00 00 00 00  	mov	qword ptr [rsp + 11368], 0
ffffffff8000af42: 48 89 84 24 70 2c 00 00      	mov	qword ptr [rsp + 11376], rax
ffffffff8000af4a: 48 8b bc 24 68 2c 00 00      	mov	rdi, qword ptr [rsp + 11368]
ffffffff8000af52: 48 8b b4 24 70 2c 00 00      	mov	rsi, qword ptr [rsp + 11376]
ffffffff8000af5a: e8 21 f6 ff ff       	call	0xffffffff8000a580 <_ZN63_$LT$I$u20$as$u20$core..iter..traits..collect..IntoIterator$GT$9into_iter17h1a92386f5c2a06d2E>
ffffffff8000af5f: 48 89 84 24 78 2c 00 00      	mov	qword ptr [rsp + 11384], rax
ffffffff8000af67: 48 89 94 24 80 2c 00 00      	mov	qword ptr [rsp + 11392], rdx
ffffffff8000af6f: e9 c8 00 00 00       	jmp	0xffffffff8000b03c <_ZN3qos9allocator11init_memory17hdae524878cc05e68E+0x25c>
ffffffff8000af74: 48 8b 84 24 c0 0f 00 00      	mov	rax, qword ptr [rsp + 4032]
ffffffff8000af7c: 48 8b 8c 24 f8 0f 00 00      	mov	rcx, qword ptr [rsp + 4088]
ffffffff8000af84: 48 89 8c 24 60 2f 00 00      	mov	qword ptr [rsp + 12128], rcx
ffffffff8000af8c: 48 8b 40 10          	mov	rax, qword ptr [rax + 16]
ffffffff8000af90: 48 89 84 24 c0 2f 00 00      	mov	qword ptr [rsp + 12224], rax
ffffffff8000af98: 48 89 8c 24 c8 2f 00 00      	mov	qword ptr [rsp + 12232], rcx
ffffffff8000afa0: 48 89 84 24 d0 2f 00 00      	mov	qword ptr [rsp + 12240], rax
ffffffff8000afa8: 48 89 8c 24 d8 2f 00 00      	mov	qword ptr [rsp + 12248], rcx
ffffffff8000afb0: 48 c1 e1 03          	shl	rcx, 3
ffffffff8000afb4: 48 01 c8             	add	rax, rcx
ffffffff8000afb7: 48 89 84 24 e0 2f 00 00      	mov	qword ptr [rsp + 12256], rax
ffffffff8000afbf: 48 8b 84 24 e0 2f 00 00      	mov	rax, qword ptr [rsp + 12256]
ffffffff8000afc7: 48 8b 38             	mov	rdi, qword ptr [rax]
ffffffff8000afca: 48 89 bc 24 a8 0f 00 00      	mov	qword ptr [rsp + 4008], rdi
ffffffff8000afd2: 48 89 bc 24 68 2f 00 00      	mov	qword ptr [rsp + 12136], rdi
ffffffff8000afda: 48 83 c7 10          	add	rdi, 16
ffffffff8000afde: 48 8d 35 5b 6f ff ff 	lea	rsi, [rip - 37029]      # 0xffffffff80001f40 <str.1+0x30>
ffffffff8000afe5: e8 b6 08 00 00       	call	0xffffffff8000b8a0 <_ZN61_$LT$qos..limine..MemType$u20$as$u20$core..cmp..PartialEq$GT$2eq17h04275134d279bf7eE>
ffffffff8000afea: a8 01                	test	al, 1
ffffffff8000afec: 75 05                	jne	0xffffffff8000aff3 <_ZN3qos9allocator11init_memory17hdae524878cc05e68E+0x213>
ffffffff8000afee: e9 ba fe ff ff       	jmp	0xffffffff8000aead <_ZN3qos9allocator11init_memory17hdae524878cc05e68E+0xcd>
ffffffff8000aff3: 48 8d bc 24 c8 0f 00 00      	lea	rdi, [rsp + 4040]
ffffffff8000affb: e8 60 f7 ff ff       	call	0xffffffff8000a760 <_ZN77_$LT$qos..sync..MutexGuard$LT$T$GT$$u20$as$u20$core..ops..deref..DerefMut$GT$9deref_mut17h2515cfba8d16f301E>
ffffffff8000b000: 48 89 c1             	mov	rcx, rax
ffffffff8000b003: 48 8b 84 24 a8 0f 00 00      	mov	rax, qword ptr [rsp + 4008]
ffffffff8000b00b: 48 89 8c 24 a0 0f 00 00      	mov	qword ptr [rsp + 4000], rcx
ffffffff8000b013: 48 8b 38             	mov	rdi, qword ptr [rax]
ffffffff8000b016: e8 e5 d3 ff ff       	call	0xffffffff80008400 <_ZN3qos6paging8PhysAddr3new17h3ed0755b62cedce2E>
ffffffff8000b01b: 48 8b bc 24 a0 0f 00 00      	mov	rdi, qword ptr [rsp + 4000]
ffffffff8000b023: 48 89 c6             	mov	rsi, rax
ffffffff8000b026: 48 8b 84 24 a8 0f 00 00      	mov	rax, qword ptr [rsp + 4008]
ffffffff8000b02e: 48 8b 50 08          	mov	rdx, qword ptr [rax + 8]
ffffffff8000b032: e8 99 14 00 00       	call	0xffffffff8000c4d0 <_ZN3qos9allocator14page_allocator13PageAllocator10add_memory17hef00e06ae2b30283E>
ffffffff8000b037: e9 71 fe ff ff       	jmp	0xffffffff8000aead <_ZN3qos9allocator11init_memory17hdae524878cc05e68E+0xcd>
ffffffff8000b03c: 48 8d bc 24 78 2c 00 00      	lea	rdi, [rsp + 11384]
ffffffff8000b044: e8 17 f5 ff ff       	call	0xffffffff8000a560 <_ZN4core4iter5range101_$LT$impl$u20$core..iter..traits..iterator..Iterator$u20$for$u20$core..ops..range..Range$LT$A$GT$$GT$4next17ha48bff387f27bd7eE>
ffffffff8000b049: 48 89 94 24 90 2c 00 00      	mov	qword ptr [rsp + 11408], rdx
ffffffff8000b051: 48 89 84 24 88 2c 00 00      	mov	qword ptr [rsp + 11400], rax
ffffffff8000b059: 48 83 bc 24 88 2c 00 00 00   	cmp	qword ptr [rsp + 11400], 0
ffffffff8000b062: 75 11                	jne	0xffffffff8000b075 <_ZN3qos9allocator11init_memory17hdae524878cc05e68E+0x295>
ffffffff8000b064: 48 c7 84 24 68 2e 00 00 00 00 00 00  	mov	qword ptr [rsp + 11880], 0
ffffffff8000b070: e9 7a 05 00 00       	jmp	0xffffffff8000b5ef <_ZN3qos9allocator11init_memory17hdae524878cc05e68E+0x80f>
ffffffff8000b075: 48 8b 84 24 c0 0f 00 00      	mov	rax, qword ptr [rsp + 4032]
ffffffff8000b07d: 48 8b 8c 24 90 2c 00 00      	mov	rcx, qword ptr [rsp + 11408]
ffffffff8000b085: 48 89 8c 24 80 2f 00 00      	mov	qword ptr [rsp + 12160], rcx
ffffffff8000b08d: 48 8b 40 10          	mov	rax, qword ptr [rax + 16]
ffffffff8000b091: 48 89 84 24 98 2f 00 00      	mov	qword ptr [rsp + 12184], rax
ffffffff8000b099: 48 89 8c 24 a0 2f 00 00      	mov	qword ptr [rsp + 12192], rcx
ffffffff8000b0a1: 48 89 84 24 a8 2f 00 00      	mov	qword ptr [rsp + 12200], rax
ffffffff8000b0a9: 48 89 8c 24 b0 2f 00 00      	mov	qword ptr [rsp + 12208], rcx
ffffffff8000b0b1: 48 c1 e1 03          	shl	rcx, 3
ffffffff8000b0b5: 48 01 c8             	add	rax, rcx
ffffffff8000b0b8: 48 89 84 24 b8 2f 00 00      	mov	qword ptr [rsp + 12216], rax
ffffffff8000b0c0: 48 8b 84 24 b8 2f 00 00      	mov	rax, qword ptr [rsp + 12216]
ffffffff8000b0c8: 48 8b 00             	mov	rax, qword ptr [rax]
ffffffff8000b0cb: 48 89 84 24 98 0f 00 00      	mov	qword ptr [rsp + 3992], rax
ffffffff8000b0d3: 48 89 84 24 88 2f 00 00      	mov	qword ptr [rsp + 12168], rax
ffffffff8000b0db: 48 8b 00             	mov	rax, qword ptr [rax]
ffffffff8000b0de: 48 89 84 24 98 2c 00 00      	mov	qword ptr [rsp + 11416], rax
ffffffff8000b0e6: c6 84 24 a7 2c 00 00 00      	mov	byte ptr [rsp + 11431], 0
ffffffff8000b0ee: 48 8b 84 24 98 2c 00 00      	mov	rax, qword ptr [rsp + 11416]
ffffffff8000b0f6: 48 25 ff ff 1f 00    	and	rax, 2097151
ffffffff8000b0fc: 48 83 f8 00          	cmp	rax, 0
ffffffff8000b100: 75 66                	jne	0xffffffff8000b168 <_ZN3qos9allocator11init_memory17hdae524878cc05e68E+0x388>
ffffffff8000b102: 48 8b bc 24 98 2c 00 00      	mov	rdi, qword ptr [rsp + 11416]
ffffffff8000b10a: e8 f1 d2 ff ff       	call	0xffffffff80008400 <_ZN3qos6paging8PhysAddr3new17h3ed0755b62cedce2E>
ffffffff8000b10f: 48 89 84 24 a8 2c 00 00      	mov	qword ptr [rsp + 11432], rax
ffffffff8000b117: e8 c4 e0 ff ff       	call	0xffffffff800091e0 <_ZN3qos6paging5Flags3new17hbf62153df1664206E>
ffffffff8000b11c: 48 89 84 24 b0 2c 00 00      	mov	qword ptr [rsp + 11440], rax
ffffffff8000b124: 48 8d bc 24 b0 2c 00 00      	lea	rdi, [rsp + 11440]
ffffffff8000b12c: be 01 00 00 00       	mov	esi, 1
ffffffff8000b131: e8 4a e1 ff ff       	call	0xffffffff80009280 <_ZN3qos6paging5Flags11set_present17h3667dc151d647bd8E>
ffffffff8000b136: 48 8d bc 24 b0 2c 00 00      	lea	rdi, [rsp + 11440]
ffffffff8000b13e: be 01 00 00 00       	mov	esi, 1
ffffffff8000b143: e8 78 e1 ff ff       	call	0xffffffff800092c0 <_ZN3qos6paging5Flags6set_rw17h988084ce0620e5baE>
ffffffff8000b148: 48 8d bc 24 b0 2c 00 00      	lea	rdi, [rsp + 11440]
ffffffff8000b150: be 01 00 00 00       	mov	esi, 1
ffffffff8000b155: e8 d6 e1 ff ff       	call	0xffffffff80009330 <_ZN3qos6paging5Flags8set_huge17h3ff58c328fec0fdaE>
ffffffff8000b15a: 48 c7 84 24 b8 2c 00 00 00 00 00 00  	mov	qword ptr [rsp + 11448], 0
ffffffff8000b166: eb 23                	jmp	0xffffffff8000b18b <_ZN3qos9allocator11init_memory17hdae524878cc05e68E+0x3ab>
ffffffff8000b168: 48 8b 84 24 98 2c 00 00      	mov	rax, qword ptr [rsp + 11416]
ffffffff8000b170: 48 25 00 00 e0 ff    	and	rax, -2097152
ffffffff8000b176: 48 89 84 24 98 2c 00 00      	mov	qword ptr [rsp + 11416], rax
ffffffff8000b17e: c6 84 24 a7 2c 00 00 01      	mov	byte ptr [rsp + 11431], 1
ffffffff8000b186: e9 77 ff ff ff       	jmp	0xffffffff8000b102 <_ZN3qos9allocator11init_memory17hdae524878cc05e68E+0x322>
ffffffff8000b18b: 48 8b 8c 24 98 0f 00 00      	mov	rcx, qword ptr [rsp + 3992]
ffffffff8000b193: 48 8b 84 24 b8 2c 00 00      	mov	rax, qword ptr [rsp + 11448]
ffffffff8000b19b: 48 3b 41 08          	cmp	rax, qword ptr [rcx + 8]
ffffffff8000b19f: 0f 82 bc 00 00 00    	jb	0xffffffff8000b261 <_ZN3qos9allocator11init_memory17hdae524878cc05e68E+0x481>
ffffffff8000b1a5: 48 8b bc 24 98 0f 00 00      	mov	rdi, qword ptr [rsp + 3992]
ffffffff8000b1ad: 48 83 c7 10          	add	rdi, 16
ffffffff8000b1b1: e8 ea fa ff ff       	call	0xffffffff8000aca0 <_ZN4core3fmt10ArgumentV19new_debug17hc5dbf98806ad3420E>
ffffffff8000b1b6: 48 89 84 24 38 2d 00 00      	mov	qword ptr [rsp + 11576], rax
ffffffff8000b1be: 48 89 94 24 40 2d 00 00      	mov	qword ptr [rsp + 11584], rdx
ffffffff8000b1c6: 48 8d 35 3b 68 00 00 	lea	rsi, [rip + 26683]      # 0xffffffff80011a08 <xr6aouzjkjmurg0+0xffffffff80011a08>
ffffffff8000b1cd: 48 8d bc 24 08 2d 00 00      	lea	rdi, [rsp + 11528]
ffffffff8000b1d5: 48 8d 8c 24 38 2d 00 00      	lea	rcx, [rsp + 11576]
ffffffff8000b1dd: 41 b8 01 00 00 00    	mov	r8d, 1
ffffffff8000b1e3: 4c 89 c2             	mov	rdx, r8
ffffffff8000b1e6: e8 05 aa ff ff       	call	0xffffffff80005bf0 <_ZN4core3fmt9Arguments6new_v117h4ece5d28621dbecaE>
ffffffff8000b1eb: 48 8d bc 24 08 2d 00 00      	lea	rdi, [rsp + 11528]
ffffffff8000b1f3: e8 68 f9 ff ff       	call	0xffffffff8000ab60 <_ZN4core3fmt10ArgumentV111new_display17h8d7c3b1ab4909b4bE>
ffffffff8000b1f8: 48 89 84 24 f8 2c 00 00      	mov	qword ptr [rsp + 11512], rax
ffffffff8000b200: 48 89 94 24 00 2d 00 00      	mov	qword ptr [rsp + 11520], rdx
ffffffff8000b208: 48 8d 35 d9 67 00 00 	lea	rsi, [rip + 26585]      # 0xffffffff800119e8 <xr6aouzjkjmurg0+0xffffffff800119e8>
ffffffff8000b20f: 48 8d bc 24 c8 2c 00 00      	lea	rdi, [rsp + 11464]
ffffffff8000b217: ba 02 00 00 00       	mov	edx, 2
ffffffff8000b21c: 48 8d 8c 24 f8 2c 00 00      	lea	rcx, [rsp + 11512]
ffffffff8000b224: 41 b8 01 00 00 00    	mov	r8d, 1
ffffffff8000b22a: e8 c1 a9 ff ff       	call	0xffffffff80005bf0 <_ZN4core3fmt9Arguments6new_v117h4ece5d28621dbecaE>
ffffffff8000b22f: 48 8d bc 24 c8 2c 00 00      	lea	rdi, [rsp + 11464]
ffffffff8000b237: e8 64 98 ff ff       	call	0xffffffff80004aa0 <_ZN3qos2fb6_print17hc3fbb4c70bda1274E>
ffffffff8000b23c: 48 8b bc 24 98 0f 00 00      	mov	rdi, qword ptr [rsp + 3992]
ffffffff8000b244: 48 83 c7 10          	add	rdi, 16
ffffffff8000b248: 48 8d 35 e9 6c ff ff 	lea	rsi, [rip - 37655]      # 0xffffffff80001f38 <str.1+0x28>
ffffffff8000b24f: e8 4c 06 00 00       	call	0xffffffff8000b8a0 <_ZN61_$LT$qos..limine..MemType$u20$as$u20$core..cmp..PartialEq$GT$2eq17h04275134d279bf7eE>
ffffffff8000b254: a8 01                	test	al, 1
ffffffff8000b256: 0f 85 c9 00 00 00    	jne	0xffffffff8000b325 <_ZN3qos9allocator11init_memory17hdae524878cc05e68E+0x545>
ffffffff8000b25c: e9 db fd ff ff       	jmp	0xffffffff8000b03c <_ZN3qos9allocator11init_memory17hdae524878cc05e68E+0x25c>
ffffffff8000b261: 48 8b b4 24 b8 2c 00 00      	mov	rsi, qword ptr [rsp + 11448]
ffffffff8000b269: 48 8d bc 24 a8 2c 00 00      	lea	rdi, [rsp + 11432]
ffffffff8000b271: e8 ea d1 ff ff       	call	0xffffffff80008460 <_ZN3qos6paging8PhysAddr6offset17h02f37f0cd81c9faaE>
ffffffff8000b276: 48 89 84 24 c0 2c 00 00      	mov	qword ptr [rsp + 11456], rax
ffffffff8000b27e: 48 8b 84 24 c0 2c 00 00      	mov	rax, qword ptr [rsp + 11456]
ffffffff8000b286: 48 89 84 24 90 0f 00 00      	mov	qword ptr [rsp + 3984], rax
ffffffff8000b28e: 48 8d bc 24 c0 2c 00 00      	lea	rdi, [rsp + 11456]
ffffffff8000b296: e8 a5 d1 ff ff       	call	0xffffffff80008440 <_ZN3qos6paging8PhysAddr7as_virt17hc5964947f4fd1c8dE>
ffffffff8000b29b: 48 8b bc 24 b8 0f 00 00      	mov	rdi, qword ptr [rsp + 4024]
ffffffff8000b2a3: 48 8b b4 24 90 0f 00 00      	mov	rsi, qword ptr [rsp + 3984]
ffffffff8000b2ab: 48 89 c2             	mov	rdx, rax
ffffffff8000b2ae: 48 8b 8c 24 b0 2c 00 00      	mov	rcx, qword ptr [rsp + 11440]
ffffffff8000b2b6: e8 45 d3 ff ff       	call	0xffffffff80008600 <_ZN3qos6paging9PageTable3map17hd52bdb474094c86bE>
ffffffff8000b2bb: 8a 84 24 a7 2c 00 00 	mov	al, byte ptr [rsp + 11431]
ffffffff8000b2c2: 34 ff                	xor	al, -1
ffffffff8000b2c4: a8 01                	test	al, 1
ffffffff8000b2c6: 75 0d                	jne	0xffffffff8000b2d5 <_ZN3qos9allocator11init_memory17hdae524878cc05e68E+0x4f5>
ffffffff8000b2c8: c6 84 24 a7 2c 00 00 00      	mov	byte ptr [rsp + 11431], 0
ffffffff8000b2d0: e9 b6 fe ff ff       	jmp	0xffffffff8000b18b <_ZN3qos9allocator11init_memory17hdae524878cc05e68E+0x3ab>
ffffffff8000b2d5: 48 8b 84 24 b8 2c 00 00      	mov	rax, qword ptr [rsp + 11448]
ffffffff8000b2dd: 48 05 00 00 20 00    	add	rax, 2097152
ffffffff8000b2e3: 48 89 84 24 88 0f 00 00      	mov	qword ptr [rsp + 3976], rax
ffffffff8000b2eb: 0f 92 c0             	setb	al
ffffffff8000b2ee: a8 01                	test	al, 1
ffffffff8000b2f0: 75 15                	jne	0xffffffff8000b307 <_ZN3qos9allocator11init_memory17hdae524878cc05e68E+0x527>
ffffffff8000b2f2: 48 8b 84 24 88 0f 00 00      	mov	rax, qword ptr [rsp + 3976]
ffffffff8000b2fa: 48 89 84 24 b8 2c 00 00      	mov	qword ptr [rsp + 11448], rax
ffffffff8000b302: e9 84 fe ff ff       	jmp	0xffffffff8000b18b <_ZN3qos9allocator11init_memory17hdae524878cc05e68E+0x3ab>
ffffffff8000b307: 48 8d 3d 72 6d ff ff 	lea	rdi, [rip - 37518]      # 0xffffffff80002080 <str.1>
ffffffff8000b30e: 48 8d 15 bb 66 00 00 	lea	rdx, [rip + 26299]      # 0xffffffff800119d0 <xr6aouzjkjmurg0+0xffffffff800119d0>
ffffffff8000b315: 48 8b 05 c4 6d 00 00 	mov	rax, qword ptr [rip + 28100] # 0xffffffff800120e0 <xr6aouzjkjmurg0+0xffffffff800120e0>
ffffffff8000b31c: be 1c 00 00 00       	mov	esi, 28
ffffffff8000b321: ff d0                	call	rax
ffffffff8000b323: 0f 0b                	ud2
ffffffff8000b325: 48 8b bc 24 98 0f 00 00      	mov	rdi, qword ptr [rsp + 3992]
ffffffff8000b32d: 48 83 c7 08          	add	rdi, 8
ffffffff8000b331: e8 7a f8 ff ff       	call	0xffffffff8000abb0 <_ZN4core3fmt10ArgumentV111new_display17ha4ff076876145195E>
ffffffff8000b336: 48 89 84 24 b8 2d 00 00      	mov	qword ptr [rsp + 11704], rax
ffffffff8000b33e: 48 89 94 24 c0 2d 00 00      	mov	qword ptr [rsp + 11712], rdx
ffffffff8000b346: 48 8d 35 bb 66 00 00 	lea	rsi, [rip + 26299]      # 0xffffffff80011a08 <xr6aouzjkjmurg0+0xffffffff80011a08>
ffffffff8000b34d: 48 8d bc 24 88 2d 00 00      	lea	rdi, [rsp + 11656]
ffffffff8000b355: 48 8d 8c 24 b8 2d 00 00      	lea	rcx, [rsp + 11704]
ffffffff8000b35d: 41 b8 01 00 00 00    	mov	r8d, 1
ffffffff8000b363: 4c 89 c2             	mov	rdx, r8
ffffffff8000b366: e8 85 a8 ff ff       	call	0xffffffff80005bf0 <_ZN4core3fmt9Arguments6new_v117h4ece5d28621dbecaE>
ffffffff8000b36b: 48 8d bc 24 88 2d 00 00      	lea	rdi, [rsp + 11656]
ffffffff8000b373: e8 e8 f7 ff ff       	call	0xffffffff8000ab60 <_ZN4core3fmt10ArgumentV111new_display17h8d7c3b1ab4909b4bE>
ffffffff8000b378: 48 89 84 24 78 2d 00 00      	mov	qword ptr [rsp + 11640], rax
ffffffff8000b380: 48 89 94 24 80 2d 00 00      	mov	qword ptr [rsp + 11648], rdx
ffffffff8000b388: 48 8d 35 59 66 00 00 	lea	rsi, [rip + 26201]      # 0xffffffff800119e8 <xr6aouzjkjmurg0+0xffffffff800119e8>
ffffffff8000b38f: 48 8d bc 24 48 2d 00 00      	lea	rdi, [rsp + 11592]
ffffffff8000b397: ba 02 00 00 00       	mov	edx, 2
ffffffff8000b39c: 48 8d 8c 24 78 2d 00 00      	lea	rcx, [rsp + 11640]
ffffffff8000b3a4: 41 b8 01 00 00 00    	mov	r8d, 1
ffffffff8000b3aa: e8 41 a8 ff ff       	call	0xffffffff80005bf0 <_ZN4core3fmt9Arguments6new_v117h4ece5d28621dbecaE>
ffffffff8000b3af: 48 8d bc 24 48 2d 00 00      	lea	rdi, [rsp + 11592]
ffffffff8000b3b7: e8 e4 96 ff ff       	call	0xffffffff80004aa0 <_ZN3qos2fb6_print17hc3fbb4c70bda1274E>
ffffffff8000b3bc: 48 c7 84 24 b8 2c 00 00 00 00 00 00  	mov	qword ptr [rsp + 11448], 0
ffffffff8000b3c8: 48 8b 8c 24 98 0f 00 00      	mov	rcx, qword ptr [rsp + 3992]
ffffffff8000b3d0: 48 8b 84 24 b8 2c 00 00      	mov	rax, qword ptr [rsp + 11448]
ffffffff8000b3d8: 48 3b 41 08          	cmp	rax, qword ptr [rcx + 8]
ffffffff8000b3dc: 0f 83 5a fc ff ff    	jae	0xffffffff8000b03c <_ZN3qos9allocator11init_memory17hdae524878cc05e68E+0x25c>
ffffffff8000b3e2: 48 8b b4 24 b8 2c 00 00      	mov	rsi, qword ptr [rsp + 11448]
ffffffff8000b3ea: 48 8d bc 24 a8 2c 00 00      	lea	rdi, [rsp + 11432]
ffffffff8000b3f2: e8 69 d0 ff ff       	call	0xffffffff80008460 <_ZN3qos6paging8PhysAddr6offset17h02f37f0cd81c9faaE>
ffffffff8000b3f7: 48 89 84 24 c8 2d 00 00      	mov	qword ptr [rsp + 11720], rax
ffffffff8000b3ff: 48 8b 84 24 c8 2d 00 00      	mov	rax, qword ptr [rsp + 11720]
ffffffff8000b407: 48 89 84 24 78 0f 00 00      	mov	qword ptr [rsp + 3960], rax
ffffffff8000b40f: 48 8b 84 24 b8 2c 00 00      	mov	rax, qword ptr [rsp + 11448]
ffffffff8000b417: 48 05 00 00 00 80    	add	rax, -2147483648
ffffffff8000b41d: 48 89 84 24 80 0f 00 00      	mov	qword ptr [rsp + 3968], rax
ffffffff8000b425: 0f 92 c0             	setb	al
ffffffff8000b428: a8 01                	test	al, 1
ffffffff8000b42a: 75 6d                	jne	0xffffffff8000b499 <_ZN3qos9allocator11init_memory17hdae524878cc05e68E+0x6b9>
ffffffff8000b42c: 48 8b bc 24 80 0f 00 00      	mov	rdi, qword ptr [rsp + 3968]
ffffffff8000b434: e8 a7 ce ff ff       	call	0xffffffff800082e0 <_ZN3qos6paging8VirtAddr3new17h2288e0c21e0de726E>
ffffffff8000b439: 48 8b bc 24 b8 0f 00 00      	mov	rdi, qword ptr [rsp + 4024]
ffffffff8000b441: 48 8b b4 24 78 0f 00 00      	mov	rsi, qword ptr [rsp + 3960]
ffffffff8000b449: 48 89 c2             	mov	rdx, rax
ffffffff8000b44c: 48 8b 8c 24 b0 2c 00 00      	mov	rcx, qword ptr [rsp + 11440]
ffffffff8000b454: e8 a7 d1 ff ff       	call	0xffffffff80008600 <_ZN3qos6paging9PageTable3map17hd52bdb474094c86bE>
ffffffff8000b459: 48 8d bc 24 c8 2d 00 00      	lea	rdi, [rsp + 11720]
ffffffff8000b461: e8 ea f7 ff ff       	call	0xffffffff8000ac50 <_ZN4core3fmt10ArgumentV19new_debug17h477d87732bf8e97fE>
ffffffff8000b466: 48 89 94 24 60 0f 00 00      	mov	qword ptr [rsp + 3936], rdx
ffffffff8000b46e: 48 89 84 24 68 0f 00 00      	mov	qword ptr [rsp + 3944], rax
ffffffff8000b476: 48 8b 84 24 b8 2c 00 00      	mov	rax, qword ptr [rsp + 11448]
ffffffff8000b47e: 48 05 00 00 00 80    	add	rax, -2147483648
ffffffff8000b484: 48 89 84 24 70 0f 00 00      	mov	qword ptr [rsp + 3952], rax
ffffffff8000b48c: 0f 92 c0             	setb	al
ffffffff8000b48f: a8 01                	test	al, 1
ffffffff8000b491: 0f 85 07 01 00 00    	jne	0xffffffff8000b59e <_ZN3qos9allocator11init_memory17hdae524878cc05e68E+0x7be>
ffffffff8000b497: eb 1e                	jmp	0xffffffff8000b4b7 <_ZN3qos9allocator11init_memory17hdae524878cc05e68E+0x6d7>
ffffffff8000b499: 48 8d 3d e0 6b ff ff 	lea	rdi, [rip - 37920]      # 0xffffffff80002080 <str.1>
ffffffff8000b4a0: 48 8d 15 71 65 00 00 	lea	rdx, [rip + 25969]      # 0xffffffff80011a18 <xr6aouzjkjmurg0+0xffffffff80011a18>
ffffffff8000b4a7: 48 8b 05 32 6c 00 00 	mov	rax, qword ptr [rip + 27698] # 0xffffffff800120e0 <xr6aouzjkjmurg0+0xffffffff800120e0>
ffffffff8000b4ae: be 1c 00 00 00       	mov	esi, 28
ffffffff8000b4b3: ff d0                	call	rax
ffffffff8000b4b5: 0f 0b                	ud2
ffffffff8000b4b7: 48 8b bc 24 70 0f 00 00      	mov	rdi, qword ptr [rsp + 3952]
ffffffff8000b4bf: e8 1c ce ff ff       	call	0xffffffff800082e0 <_ZN3qos6paging8VirtAddr3new17h2288e0c21e0de726E>
ffffffff8000b4c4: 48 89 84 24 60 2e 00 00      	mov	qword ptr [rsp + 11872], rax
ffffffff8000b4cc: 48 8d bc 24 60 2e 00 00      	lea	rdi, [rsp + 11872]
ffffffff8000b4d4: e8 17 f8 ff ff       	call	0xffffffff8000acf0 <_ZN4core3fmt10ArgumentV19new_debug17he9ad1d5fdc6ff1b9E>
ffffffff8000b4d9: 48 8b b4 24 68 0f 00 00      	mov	rsi, qword ptr [rsp + 3944]
ffffffff8000b4e1: 48 8b 8c 24 60 0f 00 00      	mov	rcx, qword ptr [rsp + 3936]
ffffffff8000b4e9: 48 89 b4 24 40 2e 00 00      	mov	qword ptr [rsp + 11840], rsi
ffffffff8000b4f1: 48 89 8c 24 48 2e 00 00      	mov	qword ptr [rsp + 11848], rcx
ffffffff8000b4f9: 48 89 84 24 50 2e 00 00      	mov	qword ptr [rsp + 11856], rax
ffffffff8000b501: 48 89 94 24 58 2e 00 00      	mov	qword ptr [rsp + 11864], rdx
ffffffff8000b509: 48 8d 35 20 65 00 00 	lea	rsi, [rip + 25888]      # 0xffffffff80011a30 <xr6aouzjkjmurg0+0xffffffff80011a30>
ffffffff8000b510: 48 8d bc 24 10 2e 00 00      	lea	rdi, [rsp + 11792]
ffffffff8000b518: 48 8d 8c 24 40 2e 00 00      	lea	rcx, [rsp + 11840]
ffffffff8000b520: 41 b8 02 00 00 00    	mov	r8d, 2
ffffffff8000b526: 4c 89 c2             	mov	rdx, r8
ffffffff8000b529: e8 c2 a6 ff ff       	call	0xffffffff80005bf0 <_ZN4core3fmt9Arguments6new_v117h4ece5d28621dbecaE>
ffffffff8000b52e: 48 8d bc 24 10 2e 00 00      	lea	rdi, [rsp + 11792]
ffffffff8000b536: e8 25 f6 ff ff       	call	0xffffffff8000ab60 <_ZN4core3fmt10ArgumentV111new_display17h8d7c3b1ab4909b4bE>
ffffffff8000b53b: 48 89 84 24 00 2e 00 00      	mov	qword ptr [rsp + 11776], rax
ffffffff8000b543: 48 89 94 24 08 2e 00 00      	mov	qword ptr [rsp + 11784], rdx
ffffffff8000b54b: 48 8d 35 96 64 00 00 	lea	rsi, [rip + 25750]      # 0xffffffff800119e8 <xr6aouzjkjmurg0+0xffffffff800119e8>
ffffffff8000b552: 48 8d bc 24 d0 2d 00 00      	lea	rdi, [rsp + 11728]
ffffffff8000b55a: ba 02 00 00 00       	mov	edx, 2
ffffffff8000b55f: 48 8d 8c 24 00 2e 00 00      	lea	rcx, [rsp + 11776]
ffffffff8000b567: 41 b8 01 00 00 00    	mov	r8d, 1
ffffffff8000b56d: e8 7e a6 ff ff       	call	0xffffffff80005bf0 <_ZN4core3fmt9Arguments6new_v117h4ece5d28621dbecaE>
ffffffff8000b572: 48 8d bc 24 d0 2d 00 00      	lea	rdi, [rsp + 11728]
ffffffff8000b57a: e8 21 95 ff ff       	call	0xffffffff80004aa0 <_ZN3qos2fb6_print17hc3fbb4c70bda1274E>
ffffffff8000b57f: 48 8b 84 24 b8 2c 00 00      	mov	rax, qword ptr [rsp + 11448]
ffffffff8000b587: 48 05 00 00 20 00    	add	rax, 2097152
ffffffff8000b58d: 48 89 84 24 58 0f 00 00      	mov	qword ptr [rsp + 3928], rax
ffffffff8000b595: 0f 92 c0             	setb	al
ffffffff8000b598: a8 01                	test	al, 1
ffffffff8000b59a: 75 35                	jne	0xffffffff8000b5d1 <_ZN3qos9allocator11init_memory17hdae524878cc05e68E+0x7f1>
ffffffff8000b59c: eb 1e                	jmp	0xffffffff8000b5bc <_ZN3qos9allocator11init_memory17hdae524878cc05e68E+0x7dc>
ffffffff8000b59e: 48 8d 3d db 6a ff ff 	lea	rdi, [rip - 38181]      # 0xffffffff80002080 <str.1>
ffffffff8000b5a5: 48 8d 15 a4 64 00 00 	lea	rdx, [rip + 25764]      # 0xffffffff80011a50 <xr6aouzjkjmurg0+0xffffffff80011a50>
ffffffff8000b5ac: 48 8b 05 2d 6b 00 00 	mov	rax, qword ptr [rip + 27437] # 0xffffffff800120e0 <xr6aouzjkjmurg0+0xffffffff800120e0>
ffffffff8000b5b3: be 1c 00 00 00       	mov	esi, 28
ffffffff8000b5b8: ff d0                	call	rax
ffffffff8000b5ba: 0f 0b                	ud2
ffffffff8000b5bc: 48 8b 84 24 58 0f 00 00      	mov	rax, qword ptr [rsp + 3928]
ffffffff8000b5c4: 48 89 84 24 b8 2c 00 00      	mov	qword ptr [rsp + 11448], rax
ffffffff8000b5cc: e9 f7 fd ff ff       	jmp	0xffffffff8000b3c8 <_ZN3qos9allocator11init_memory17hdae524878cc05e68E+0x5e8>
ffffffff8000b5d1: 48 8d 3d a8 6a ff ff 	lea	rdi, [rip - 38232]      # 0xffffffff80002080 <str.1>
ffffffff8000b5d8: 48 8d 15 89 64 00 00 	lea	rdx, [rip + 25737]      # 0xffffffff80011a68 <xr6aouzjkjmurg0+0xffffffff80011a68>
ffffffff8000b5df: 48 8b 05 fa 6a 00 00 	mov	rax, qword ptr [rip + 27386] # 0xffffffff800120e0 <xr6aouzjkjmurg0+0xffffffff800120e0>
ffffffff8000b5e6: be 1c 00 00 00       	mov	esi, 28
ffffffff8000b5eb: ff d0                	call	rax
ffffffff8000b5ed: 0f 0b                	ud2
ffffffff8000b5ef: 48 b8 00 00 00 00 01 00 00 00	movabs	rax, 4294967296
ffffffff8000b5f9: 48 39 84 24 68 2e 00 00      	cmp	qword ptr [rsp + 11880], rax
ffffffff8000b601: 0f 82 23 01 00 00    	jb	0xffffffff8000b72a <_ZN3qos9allocator11init_memory17hdae524878cc05e68E+0x94a>
ffffffff8000b607: 48 8b b4 24 b0 0f 00 00      	mov	rsi, qword ptr [rsp + 4016]
ffffffff8000b60f: 48 8b bc 24 b8 0f 00 00      	mov	rdi, qword ptr [rsp + 4024]
ffffffff8000b617: e8 34 c7 ff ff       	call	0xffffffff80007d50 <_ZN5alloc5boxed16Box$LT$T$C$A$GT$4leak17h1acaab4f4e673b7cE>
ffffffff8000b61c: 48 89 84 24 50 0f 00 00      	mov	qword ptr [rsp + 3920], rax
ffffffff8000b624: 48 89 84 24 90 2f 00 00      	mov	qword ptr [rsp + 12176], rax
ffffffff8000b62c: 48 8d 35 65 64 00 00 	lea	rsi, [rip + 25701]      # 0xffffffff80011a98 <xr6aouzjkjmurg0+0xffffffff80011a98>
ffffffff8000b633: 48 8d 0d 66 6a ff ff 	lea	rcx, [rip - 38298]      # 0xffffffff800020a0 <str.1+0x20>
ffffffff8000b63a: 31 c0                	xor	eax, eax
ffffffff8000b63c: 41 89 c0             	mov	r8d, eax
ffffffff8000b63f: 48 8d bc 24 b8 2e 00 00      	lea	rdi, [rsp + 11960]
ffffffff8000b647: ba 01 00 00 00       	mov	edx, 1
ffffffff8000b64c: e8 9f a5 ff ff       	call	0xffffffff80005bf0 <_ZN4core3fmt9Arguments6new_v117h4ece5d28621dbecaE>
ffffffff8000b651: 48 8d bc 24 b8 2e 00 00      	lea	rdi, [rsp + 11960]
ffffffff8000b659: e8 02 f5 ff ff       	call	0xffffffff8000ab60 <_ZN4core3fmt10ArgumentV111new_display17h8d7c3b1ab4909b4bE>
ffffffff8000b65e: 48 89 84 24 a8 2e 00 00      	mov	qword ptr [rsp + 11944], rax
ffffffff8000b666: 48 89 94 24 b0 2e 00 00      	mov	qword ptr [rsp + 11952], rdx
ffffffff8000b66e: 48 8d 35 73 63 00 00 	lea	rsi, [rip + 25459]      # 0xffffffff800119e8 <xr6aouzjkjmurg0+0xffffffff800119e8>
ffffffff8000b675: 48 8d bc 24 78 2e 00 00      	lea	rdi, [rsp + 11896]
ffffffff8000b67d: ba 02 00 00 00       	mov	edx, 2
ffffffff8000b682: 48 8d 8c 24 a8 2e 00 00      	lea	rcx, [rsp + 11944]
ffffffff8000b68a: 41 b8 01 00 00 00    	mov	r8d, 1
ffffffff8000b690: e8 5b a5 ff ff       	call	0xffffffff80005bf0 <_ZN4core3fmt9Arguments6new_v117h4ece5d28621dbecaE>
ffffffff8000b695: 48 8d bc 24 78 2e 00 00      	lea	rdi, [rsp + 11896]
ffffffff8000b69d: e8 fe 93 ff ff       	call	0xffffffff80004aa0 <_ZN3qos2fb6_print17hc3fbb4c70bda1274E>
ffffffff8000b6a2: 48 8b bc 24 50 0f 00 00      	mov	rdi, qword ptr [rsp + 3920]
ffffffff8000b6aa: e8 11 98 ff ff       	call	0xffffffff80004ec0 <_ZN3qos3x863reg3Cr35write17h7cf7cb960defb8e1E>
ffffffff8000b6af: 48 8d 35 f2 63 00 00 	lea	rsi, [rip + 25586]      # 0xffffffff80011aa8 <xr6aouzjkjmurg0+0xffffffff80011aa8>
ffffffff8000b6b6: 48 8d 0d e3 69 ff ff 	lea	rcx, [rip - 38429]      # 0xffffffff800020a0 <str.1+0x20>
ffffffff8000b6bd: 31 c0                	xor	eax, eax
ffffffff8000b6bf: 41 89 c0             	mov	r8d, eax
ffffffff8000b6c2: 48 8d bc 24 28 2f 00 00      	lea	rdi, [rsp + 12072]
ffffffff8000b6ca: ba 01 00 00 00       	mov	edx, 1
ffffffff8000b6cf: e8 1c a5 ff ff       	call	0xffffffff80005bf0 <_ZN4core3fmt9Arguments6new_v117h4ece5d28621dbecaE>
ffffffff8000b6d4: 48 8d bc 24 28 2f 00 00      	lea	rdi, [rsp + 12072]
ffffffff8000b6dc: e8 7f f4 ff ff       	call	0xffffffff8000ab60 <_ZN4core3fmt10ArgumentV111new_display17h8d7c3b1ab4909b4bE>
ffffffff8000b6e1: 48 89 84 24 18 2f 00 00      	mov	qword ptr [rsp + 12056], rax
ffffffff8000b6e9: 48 89 94 24 20 2f 00 00      	mov	qword ptr [rsp + 12064], rdx
ffffffff8000b6f1: 48 8d 35 f0 62 00 00 	lea	rsi, [rip + 25328]      # 0xffffffff800119e8 <xr6aouzjkjmurg0+0xffffffff800119e8>
ffffffff8000b6f8: 48 8d bc 24 e8 2e 00 00      	lea	rdi, [rsp + 12008]
ffffffff8000b700: ba 02 00 00 00       	mov	edx, 2
ffffffff8000b705: 48 8d 8c 24 18 2f 00 00      	lea	rcx, [rsp + 12056]
ffffffff8000b70d: 41 b8 01 00 00 00    	mov	r8d, 1
ffffffff8000b713: e8 d8 a4 ff ff       	call	0xffffffff80005bf0 <_ZN4core3fmt9Arguments6new_v117h4ece5d28621dbecaE>
ffffffff8000b718: 48 8d bc 24 e8 2e 00 00      	lea	rdi, [rsp + 12008]
ffffffff8000b720: e8 7b 93 ff ff       	call	0xffffffff80004aa0 <_ZN3qos2fb6_print17hc3fbb4c70bda1274E>
ffffffff8000b725: 48 89 ec             	mov	rsp, rbp
ffffffff8000b728: 5d                   	pop	rbp
ffffffff8000b729: c3                   	ret
ffffffff8000b72a: 48 8b bc 24 68 2e 00 00      	mov	rdi, qword ptr [rsp + 11880]
ffffffff8000b732: e8 c9 cc ff ff       	call	0xffffffff80008400 <_ZN3qos6paging8PhysAddr3new17h3ed0755b62cedce2E>
ffffffff8000b737: 48 89 84 24 70 2e 00 00      	mov	qword ptr [rsp + 11888], rax
ffffffff8000b73f: 48 8b 84 24 70 2e 00 00      	mov	rax, qword ptr [rsp + 11888]
ffffffff8000b747: 48 89 84 24 40 0f 00 00      	mov	qword ptr [rsp + 3904], rax
ffffffff8000b74f: 48 8d bc 24 70 2e 00 00      	lea	rdi, [rsp + 11888]
ffffffff8000b757: e8 e4 cc ff ff       	call	0xffffffff80008440 <_ZN3qos6paging8PhysAddr7as_virt17hc5964947f4fd1c8dE>
ffffffff8000b75c: 48 8b bc 24 b8 0f 00 00      	mov	rdi, qword ptr [rsp + 4024]
ffffffff8000b764: 48 8b b4 24 40 0f 00 00      	mov	rsi, qword ptr [rsp + 3904]
ffffffff8000b76c: 48 89 c2             	mov	rdx, rax
ffffffff8000b76f: b9 02 00 00 00       	mov	ecx, 2
ffffffff8000b774: e8 87 ce ff ff       	call	0xffffffff80008600 <_ZN3qos6paging9PageTable3map17hd52bdb474094c86bE>
ffffffff8000b779: 48 8b 84 24 68 2e 00 00      	mov	rax, qword ptr [rsp + 11880]
ffffffff8000b781: 48 05 00 00 20 00    	add	rax, 2097152
ffffffff8000b787: 48 89 84 24 48 0f 00 00      	mov	qword ptr [rsp + 3912], rax
ffffffff8000b78f: 0f 92 c0             	setb	al
ffffffff8000b792: a8 01                	test	al, 1
ffffffff8000b794: 75 15                	jne	0xffffffff8000b7ab <_ZN3qos9allocator11init_memory17hdae524878cc05e68E+0x9cb>
ffffffff8000b796: 48 8b 84 24 48 0f 00 00      	mov	rax, qword ptr [rsp + 3912]
ffffffff8000b79e: 48 89 84 24 68 2e 00 00      	mov	qword ptr [rsp + 11880], rax
ffffffff8000b7a6: e9 44 fe ff ff       	jmp	0xffffffff8000b5ef <_ZN3qos9allocator11init_memory17hdae524878cc05e68E+0x80f>
ffffffff8000b7ab: 48 8d 3d ce 68 ff ff 	lea	rdi, [rip - 38706]      # 0xffffffff80002080 <str.1>
ffffffff8000b7b2: 48 8d 15 c7 62 00 00 	lea	rdx, [rip + 25287]      # 0xffffffff80011a80 <xr6aouzjkjmurg0+0xffffffff80011a80>
ffffffff8000b7b9: 48 8b 05 20 69 00 00 	mov	rax, qword ptr [rip + 26912] # 0xffffffff800120e0 <xr6aouzjkjmurg0+0xffffffff800120e0>
ffffffff8000b7c0: be 1c 00 00 00       	mov	esi, 28
ffffffff8000b7c5: ff d0                	call	rax
ffffffff8000b7c7: 0f 0b                	ud2
ffffffff8000b7c9: cc                   	int3
ffffffff8000b7ca: cc                   	int3
ffffffff8000b7cb: cc                   	int3
ffffffff8000b7cc: cc                   	int3
ffffffff8000b7cd: cc                   	int3
ffffffff8000b7ce: cc                   	int3
ffffffff8000b7cf: cc                   	int3

ffffffff8000b7d0 <__rg_alloc>:
ffffffff8000b7d0: 55                   	push	rbp
ffffffff8000b7d1: 48 89 e5             	mov	rbp, rsp
ffffffff8000b7d4: 48 83 ec 10          	sub	rsp, 16
ffffffff8000b7d8: 48 89 7d f0          	mov	qword ptr [rbp - 16], rdi
ffffffff8000b7dc: 48 89 75 f8          	mov	qword ptr [rbp - 8], rsi
ffffffff8000b7e0: e8 2b 87 ff ff       	call	0xffffffff80003f10 <_ZN4core5alloc6layout6Layout25from_size_align_unchecked17ha14245e69605ebd1E>
ffffffff8000b7e5: 48 89 c6             	mov	rsi, rax
ffffffff8000b7e8: 48 8d 3d 81 8c 00 00 	lea	rdi, [rip + 35969]      # 0xffffffff80014470 <_ZN3qos9allocator9ALLOCATOR17hc31a7b5bb5583f3cE>
ffffffff8000b7ef: e8 1c b8 ff ff       	call	0xffffffff80007010 <_ZN87_$LT$qos..allocator..Allocator$LT$_$GT$$u20$as$u20$core..alloc..global..GlobalAlloc$GT$5alloc17h0b73e189aa595145E>
ffffffff8000b7f4: 48 83 c4 10          	add	rsp, 16
ffffffff8000b7f8: 5d                   	pop	rbp
ffffffff8000b7f9: c3                   	ret
ffffffff8000b7fa: cc                   	int3
ffffffff8000b7fb: cc                   	int3
ffffffff8000b7fc: cc                   	int3
ffffffff8000b7fd: cc                   	int3
ffffffff8000b7fe: cc                   	int3
ffffffff8000b7ff: cc                   	int3

ffffffff8000b800 <__rg_alloc_zeroed>:
ffffffff8000b800: 55                   	push	rbp
ffffffff8000b801: 48 89 e5             	mov	rbp, rsp
ffffffff8000b804: 48 83 ec 10          	sub	rsp, 16
ffffffff8000b808: 48 89 7d f0          	mov	qword ptr [rbp - 16], rdi
ffffffff8000b80c: 48 89 75 f8          	mov	qword ptr [rbp - 8], rsi
ffffffff8000b810: e8 fb 86 ff ff       	call	0xffffffff80003f10 <_ZN4core5alloc6layout6Layout25from_size_align_unchecked17ha14245e69605ebd1E>
ffffffff8000b815: 48 89 c6             	mov	rsi, rax
ffffffff8000b818: 48 8d 3d 51 8c 00 00 	lea	rdi, [rip + 35921]      # 0xffffffff80014470 <_ZN3qos9allocator9ALLOCATOR17hc31a7b5bb5583f3cE>
ffffffff8000b81f: e8 1c a9 ff ff       	call	0xffffffff80006140 <_ZN4core5alloc6global11GlobalAlloc12alloc_zeroed17h8bc54c62c2aec7beE>
ffffffff8000b824: 48 83 c4 10          	add	rsp, 16
ffffffff8000b828: 5d                   	pop	rbp
ffffffff8000b829: c3                   	ret
ffffffff8000b82a: cc                   	int3
ffffffff8000b82b: cc                   	int3
ffffffff8000b82c: cc                   	int3
ffffffff8000b82d: cc                   	int3
ffffffff8000b82e: cc                   	int3
ffffffff8000b82f: cc                   	int3

ffffffff8000b830 <_ZN49_$LT$usize$u20$as$u20$core..iter..range..Step$GT$17forward_unchecked17h31adf8015f0c78bfE>:
ffffffff8000b830: 55                   	push	rbp
ffffffff8000b831: 48 89 e5             	mov	rbp, rsp
ffffffff8000b834: 48 83 ec 28          	sub	rsp, 40
ffffffff8000b838: 48 89 7d d8          	mov	qword ptr [rbp - 40], rdi
ffffffff8000b83c: 48 89 75 e0          	mov	qword ptr [rbp - 32], rsi
ffffffff8000b840: 48 89 7d e8          	mov	qword ptr [rbp - 24], rdi
ffffffff8000b844: 48 89 75 f0          	mov	qword ptr [rbp - 16], rsi
ffffffff8000b848: 48 01 f7             	add	rdi, rsi
ffffffff8000b84b: 48 89 7d f8          	mov	qword ptr [rbp - 8], rdi
ffffffff8000b84f: 48 8b 45 f8          	mov	rax, qword ptr [rbp - 8]
ffffffff8000b853: 48 83 c4 28          	add	rsp, 40
ffffffff8000b857: 5d                   	pop	rbp
ffffffff8000b858: c3                   	ret
ffffffff8000b859: cc                   	int3
ffffffff8000b85a: cc                   	int3
ffffffff8000b85b: cc                   	int3
ffffffff8000b85c: cc                   	int3
ffffffff8000b85d: cc                   	int3
ffffffff8000b85e: cc                   	int3
ffffffff8000b85f: cc                   	int3

ffffffff8000b860 <_ZN4core4cell13Cell$LT$T$GT$4take17hc294c0d929d917a0E>:
ffffffff8000b860: 55                   	push	rbp
ffffffff8000b861: 48 89 e5             	mov	rbp, rsp
ffffffff8000b864: 48 83 ec 30          	sub	rsp, 48
ffffffff8000b868: 48 89 7d d8          	mov	qword ptr [rbp - 40], rdi
ffffffff8000b86c: 48 89 7d e0          	mov	qword ptr [rbp - 32], rdi
ffffffff8000b870: 48 89 7d e8          	mov	qword ptr [rbp - 24], rdi
ffffffff8000b874: e8 f7 e9 ff ff       	call	0xffffffff8000a270 <_ZN72_$LT$core..option..Option$LT$T$GT$$u20$as$u20$core..default..Default$GT$7default17ha7de58b67e8dd234E>
ffffffff8000b879: 48 8b 7d d8          	mov	rdi, qword ptr [rbp - 40]
ffffffff8000b87d: 48 89 c6             	mov	rsi, rax
ffffffff8000b880: 48 89 75 f0          	mov	qword ptr [rbp - 16], rsi
ffffffff8000b884: 48 89 7d f8          	mov	qword ptr [rbp - 8], rdi
ffffffff8000b888: e8 63 a5 ff ff       	call	0xffffffff80005df0 <_ZN4core3mem7replace17h98e172a70be529f4E>
ffffffff8000b88d: 48 83 c4 30          	add	rsp, 48
ffffffff8000b891: 5d                   	pop	rbp
ffffffff8000b892: c3                   	ret
ffffffff8000b893: cc                   	int3
ffffffff8000b894: cc                   	int3
ffffffff8000b895: cc                   	int3
ffffffff8000b896: cc                   	int3
ffffffff8000b897: cc                   	int3
ffffffff8000b898: cc                   	int3
ffffffff8000b899: cc                   	int3
ffffffff8000b89a: cc                   	int3
ffffffff8000b89b: cc                   	int3
ffffffff8000b89c: cc                   	int3
ffffffff8000b89d: cc                   	int3
ffffffff8000b89e: cc                   	int3
ffffffff8000b89f: cc                   	int3

ffffffff8000b8a0 <_ZN61_$LT$qos..limine..MemType$u20$as$u20$core..cmp..PartialEq$GT$2eq17h04275134d279bf7eE>:
ffffffff8000b8a0: 55                   	push	rbp
ffffffff8000b8a1: 48 89 e5             	mov	rbp, rsp
ffffffff8000b8a4: 48 83 ec 20          	sub	rsp, 32
ffffffff8000b8a8: 48 89 7d e0          	mov	qword ptr [rbp - 32], rdi
ffffffff8000b8ac: 48 89 75 e8          	mov	qword ptr [rbp - 24], rsi
ffffffff8000b8b0: 48 8b 07             	mov	rax, qword ptr [rdi]
ffffffff8000b8b3: 48 89 45 f0          	mov	qword ptr [rbp - 16], rax
ffffffff8000b8b7: 48 8b 0e             	mov	rcx, qword ptr [rsi]
ffffffff8000b8ba: 48 89 4d f8          	mov	qword ptr [rbp - 8], rcx
ffffffff8000b8be: 48 39 c8             	cmp	rax, rcx
ffffffff8000b8c1: 0f 94 c0             	sete	al
ffffffff8000b8c4: 24 01                	and	al, 1
ffffffff8000b8c6: 0f b6 c0             	movzx	eax, al
ffffffff8000b8c9: 48 83 c4 20          	add	rsp, 32
ffffffff8000b8cd: 5d                   	pop	rbp
ffffffff8000b8ce: c3                   	ret
ffffffff8000b8cf: cc                   	int3

ffffffff8000b8d0 <_ZN57_$LT$qos..limine..MemType$u20$as$u20$core..fmt..Debug$GT$3fmt17h14d67ba24c66a15dE>:
ffffffff8000b8d0: 55                   	push	rbp
ffffffff8000b8d1: 48 89 e5             	mov	rbp, rsp
ffffffff8000b8d4: 48 83 ec 30          	sub	rsp, 48
ffffffff8000b8d8: 48 89 75 d8          	mov	qword ptr [rbp - 40], rsi
ffffffff8000b8dc: 48 89 7d f0          	mov	qword ptr [rbp - 16], rdi
ffffffff8000b8e0: 48 89 75 f8          	mov	qword ptr [rbp - 8], rsi
ffffffff8000b8e4: 48 8b 07             	mov	rax, qword ptr [rdi]
ffffffff8000b8e7: 48 89 45 e0          	mov	qword ptr [rbp - 32], rax
ffffffff8000b8eb: 48 8b 45 e0          	mov	rax, qword ptr [rbp - 32]
ffffffff8000b8ef: 48 8d 0d b6 67 ff ff 	lea	rcx, [rip - 38986]      # 0xffffffff800020ac <str.1+0x2c>
ffffffff8000b8f6: 48 63 04 81          	movsxd	rax, dword ptr [rcx + 4*rax]
ffffffff8000b8fa: 48 01 c8             	add	rax, rcx
ffffffff8000b8fd: ff e0                	jmp	rax
ffffffff8000b8ff: 0f 0b                	ud2
ffffffff8000b901: 48 8b 7d d8          	mov	rdi, qword ptr [rbp - 40]
ffffffff8000b905: 48 8d 35 ff 67 ff ff 	lea	rsi, [rip - 38913]      # 0xffffffff8000210b <str.1+0x8b>
ffffffff8000b90c: 48 8b 05 b5 68 00 00 	mov	rax, qword ptr [rip + 26805] # 0xffffffff800121c8 <xr6aouzjkjmurg0+0xffffffff800121c8>
ffffffff8000b913: ba 06 00 00 00       	mov	edx, 6
ffffffff8000b918: ff d0                	call	rax
ffffffff8000b91a: 24 01                	and	al, 1
ffffffff8000b91c: 88 45 ef             	mov	byte ptr [rbp - 17], al
ffffffff8000b91f: e9 e4 00 00 00       	jmp	0xffffffff8000ba08 <_ZN57_$LT$qos..limine..MemType$u20$as$u20$core..fmt..Debug$GT$3fmt17h14d67ba24c66a15dE+0x138>
ffffffff8000b924: 48 8b 7d d8          	mov	rdi, qword ptr [rbp - 40]
ffffffff8000b928: 48 8d 35 19 66 ff ff 	lea	rsi, [rip - 39399]      # 0xffffffff80001f48 <str.1+0x38>
ffffffff8000b92f: 48 8b 05 92 68 00 00 	mov	rax, qword ptr [rip + 26770] # 0xffffffff800121c8 <xr6aouzjkjmurg0+0xffffffff800121c8>
ffffffff8000b936: ba 08 00 00 00       	mov	edx, 8
ffffffff8000b93b: ff d0                	call	rax
ffffffff8000b93d: 24 01                	and	al, 1
ffffffff8000b93f: 88 45 ef             	mov	byte ptr [rbp - 17], al
ffffffff8000b942: e9 c1 00 00 00       	jmp	0xffffffff8000ba08 <_ZN57_$LT$qos..limine..MemType$u20$as$u20$core..fmt..Debug$GT$3fmt17h14d67ba24c66a15dE+0x138>
ffffffff8000b947: 48 8b 7d d8          	mov	rdi, qword ptr [rbp - 40]
ffffffff8000b94b: 48 8d 35 aa 67 ff ff 	lea	rsi, [rip - 38998]      # 0xffffffff800020fc <str.1+0x7c>
ffffffff8000b952: 48 8b 05 6f 68 00 00 	mov	rax, qword ptr [rip + 26735] # 0xffffffff800121c8 <xr6aouzjkjmurg0+0xffffffff800121c8>
ffffffff8000b959: ba 0f 00 00 00       	mov	edx, 15
ffffffff8000b95e: ff d0                	call	rax
ffffffff8000b960: 24 01                	and	al, 1
ffffffff8000b962: 88 45 ef             	mov	byte ptr [rbp - 17], al
ffffffff8000b965: e9 9e 00 00 00       	jmp	0xffffffff8000ba08 <_ZN57_$LT$qos..limine..MemType$u20$as$u20$core..fmt..Debug$GT$3fmt17h14d67ba24c66a15dE+0x138>
ffffffff8000b96a: 48 8b 7d d8          	mov	rdi, qword ptr [rbp - 40]
ffffffff8000b96e: 48 8d 35 80 67 ff ff 	lea	rsi, [rip - 39040]      # 0xffffffff800020f5 <str.1+0x75>
ffffffff8000b975: 48 8b 05 4c 68 00 00 	mov	rax, qword ptr [rip + 26700] # 0xffffffff800121c8 <xr6aouzjkjmurg0+0xffffffff800121c8>
ffffffff8000b97c: ba 07 00 00 00       	mov	edx, 7
ffffffff8000b981: ff d0                	call	rax
ffffffff8000b983: 24 01                	and	al, 1
ffffffff8000b985: 88 45 ef             	mov	byte ptr [rbp - 17], al
ffffffff8000b988: eb 7e                	jmp	0xffffffff8000ba08 <_ZN57_$LT$qos..limine..MemType$u20$as$u20$core..fmt..Debug$GT$3fmt17h14d67ba24c66a15dE+0x138>
ffffffff8000b98a: 48 8b 7d d8          	mov	rdi, qword ptr [rbp - 40]
ffffffff8000b98e: 48 8d 35 57 67 ff ff 	lea	rsi, [rip - 39081]      # 0xffffffff800020ec <str.1+0x6c>
ffffffff8000b995: 48 8b 05 2c 68 00 00 	mov	rax, qword ptr [rip + 26668] # 0xffffffff800121c8 <xr6aouzjkjmurg0+0xffffffff800121c8>
ffffffff8000b99c: ba 09 00 00 00       	mov	edx, 9
ffffffff8000b9a1: ff d0                	call	rax
ffffffff8000b9a3: 24 01                	and	al, 1
ffffffff8000b9a5: 88 45 ef             	mov	byte ptr [rbp - 17], al
ffffffff8000b9a8: eb 5e                	jmp	0xffffffff8000ba08 <_ZN57_$LT$qos..limine..MemType$u20$as$u20$core..fmt..Debug$GT$3fmt17h14d67ba24c66a15dE+0x138>
ffffffff8000b9aa: 48 8b 7d d8          	mov	rdi, qword ptr [rbp - 40]
ffffffff8000b9ae: 48 8d 35 22 67 ff ff 	lea	rsi, [rip - 39134]      # 0xffffffff800020d7 <str.1+0x57>
ffffffff8000b9b5: 48 8b 05 0c 68 00 00 	mov	rax, qword ptr [rip + 26636] # 0xffffffff800121c8 <xr6aouzjkjmurg0+0xffffffff800121c8>
ffffffff8000b9bc: ba 15 00 00 00       	mov	edx, 21
ffffffff8000b9c1: ff d0                	call	rax
ffffffff8000b9c3: 24 01                	and	al, 1
ffffffff8000b9c5: 88 45 ef             	mov	byte ptr [rbp - 17], al
ffffffff8000b9c8: eb 3e                	jmp	0xffffffff8000ba08 <_ZN57_$LT$qos..limine..MemType$u20$as$u20$core..fmt..Debug$GT$3fmt17h14d67ba24c66a15dE+0x138>
ffffffff8000b9ca: 48 8b 7d d8          	mov	rdi, qword ptr [rbp - 40]
ffffffff8000b9ce: 48 8d 35 3d 62 ff ff 	lea	rsi, [rip - 40387]      # 0xffffffff80001c12 <str.0+0x182>
ffffffff8000b9d5: 48 8b 05 ec 67 00 00 	mov	rax, qword ptr [rip + 26604] # 0xffffffff800121c8 <xr6aouzjkjmurg0+0xffffffff800121c8>
ffffffff8000b9dc: ba 10 00 00 00       	mov	edx, 16
ffffffff8000b9e1: ff d0                	call	rax
ffffffff8000b9e3: 24 01                	and	al, 1
ffffffff8000b9e5: 88 45 ef             	mov	byte ptr [rbp - 17], al
ffffffff8000b9e8: eb 1e                	jmp	0xffffffff8000ba08 <_ZN57_$LT$qos..limine..MemType$u20$as$u20$core..fmt..Debug$GT$3fmt17h14d67ba24c66a15dE+0x138>
ffffffff8000b9ea: 48 8b 7d d8          	mov	rdi, qword ptr [rbp - 40]
ffffffff8000b9ee: 48 8d 35 d7 66 ff ff 	lea	rsi, [rip - 39209]      # 0xffffffff800020cc <str.1+0x4c>
ffffffff8000b9f5: 48 8b 05 cc 67 00 00 	mov	rax, qword ptr [rip + 26572] # 0xffffffff800121c8 <xr6aouzjkjmurg0+0xffffffff800121c8>
ffffffff8000b9fc: ba 0b 00 00 00       	mov	edx, 11
ffffffff8000ba01: ff d0                	call	rax
ffffffff8000ba03: 24 01                	and	al, 1
ffffffff8000ba05: 88 45 ef             	mov	byte ptr [rbp - 17], al
ffffffff8000ba08: 8a 45 ef             	mov	al, byte ptr [rbp - 17]
ffffffff8000ba0b: 24 01                	and	al, 1
ffffffff8000ba0d: 0f b6 c0             	movzx	eax, al
ffffffff8000ba10: 48 83 c4 30          	add	rsp, 48
ffffffff8000ba14: 5d                   	pop	rbp
ffffffff8000ba15: c3                   	ret
ffffffff8000ba16: cc                   	int3
ffffffff8000ba17: cc                   	int3
ffffffff8000ba18: cc                   	int3
ffffffff8000ba19: cc                   	int3
ffffffff8000ba1a: cc                   	int3
ffffffff8000ba1b: cc                   	int3
ffffffff8000ba1c: cc                   	int3
ffffffff8000ba1d: cc                   	int3
ffffffff8000ba1e: cc                   	int3
ffffffff8000ba1f: cc                   	int3

ffffffff8000ba20 <_ZN3qos9allocator14page_allocator13PageAllocator14try_merge_node17hd8b9cc26434699c7E>:
ffffffff8000ba20: 55                   	push	rbp
ffffffff8000ba21: 48 89 e5             	mov	rbp, rsp
ffffffff8000ba24: 48 81 ec d0 00 00 00 	sub	rsp, 208
ffffffff8000ba2b: 48 89 b5 78 ff ff ff 	mov	qword ptr [rbp - 136], rsi
ffffffff8000ba32: 48 89 7d 90          	mov	qword ptr [rbp - 112], rdi
ffffffff8000ba36: 48 89 75 98          	mov	qword ptr [rbp - 104], rsi
ffffffff8000ba3a: 48 89 75 f8          	mov	qword ptr [rbp - 8], rsi
ffffffff8000ba3e: 48 89 75 a0          	mov	qword ptr [rbp - 96], rsi
ffffffff8000ba42: 48 8b 56 10          	mov	rdx, qword ptr [rsi + 16]
ffffffff8000ba46: b8 01 00 00 00       	mov	eax, 1
ffffffff8000ba4b: 31 c9                	xor	ecx, ecx
ffffffff8000ba4d: 48 83 fa 00          	cmp	rdx, 0
ffffffff8000ba51: 48 0f 44 c1          	cmove	rax, rcx
ffffffff8000ba55: 48 83 f8 01          	cmp	rax, 1
ffffffff8000ba59: 75 39                	jne	0xffffffff8000ba94 <_ZN3qos9allocator14page_allocator13PageAllocator14try_merge_node17hd8b9cc26434699c7E+0x74>
ffffffff8000ba5b: 48 8b 85 78 ff ff ff 	mov	rax, qword ptr [rbp - 136]
ffffffff8000ba62: 48 8b 48 10          	mov	rcx, qword ptr [rax + 16]
ffffffff8000ba66: 48 89 8d 68 ff ff ff 	mov	qword ptr [rbp - 152], rcx
ffffffff8000ba6d: 48 89 4d a8          	mov	qword ptr [rbp - 88], rcx
ffffffff8000ba71: 48 89 4d f0          	mov	qword ptr [rbp - 16], rcx
ffffffff8000ba75: 48 89 4d b0          	mov	qword ptr [rbp - 80], rcx
ffffffff8000ba79: 48 8b 00             	mov	rax, qword ptr [rax]
ffffffff8000ba7c: b9 00 10 00 00       	mov	ecx, 4096
ffffffff8000ba81: 48 f7 e1             	mul	rcx
ffffffff8000ba84: 48 89 85 70 ff ff ff 	mov	qword ptr [rbp - 144], rax
ffffffff8000ba8b: 0f 90 c0             	seto	al
ffffffff8000ba8e: a8 01                	test	al, 1
ffffffff8000ba90: 75 4c                	jne	0xffffffff8000bade <_ZN3qos9allocator14page_allocator13PageAllocator14try_merge_node17hd8b9cc26434699c7E+0xbe>
ffffffff8000ba92: eb 29                	jmp	0xffffffff8000babd <_ZN3qos9allocator14page_allocator13PageAllocator14try_merge_node17hd8b9cc26434699c7E+0x9d>
ffffffff8000ba94: 48 8b 85 78 ff ff ff 	mov	rax, qword ptr [rbp - 136]
ffffffff8000ba9b: 48 8b 50 08          	mov	rdx, qword ptr [rax + 8]
ffffffff8000ba9f: b8 01 00 00 00       	mov	eax, 1
ffffffff8000baa4: 31 c9                	xor	ecx, ecx
ffffffff8000baa6: 48 83 fa 00          	cmp	rdx, 0
ffffffff8000baaa: 48 0f 44 c1          	cmove	rax, rcx
ffffffff8000baae: 48 83 f8 01          	cmp	rax, 1
ffffffff8000bab2: 0f 84 20 01 00 00    	je	0xffffffff8000bbd8 <_ZN3qos9allocator14page_allocator13PageAllocator14try_merge_node17hd8b9cc26434699c7E+0x1b8>
ffffffff8000bab8: e9 54 01 00 00       	jmp	0xffffffff8000bc11 <_ZN3qos9allocator14page_allocator13PageAllocator14try_merge_node17hd8b9cc26434699c7E+0x1f1>
ffffffff8000babd: 48 8b 8d 70 ff ff ff 	mov	rcx, qword ptr [rbp - 144]
ffffffff8000bac4: 48 8b 85 78 ff ff ff 	mov	rax, qword ptr [rbp - 136]
ffffffff8000bacb: 48 01 c8             	add	rax, rcx
ffffffff8000bace: 48 89 85 60 ff ff ff 	mov	qword ptr [rbp - 160], rax
ffffffff8000bad5: 0f 92 c0             	setb	al
ffffffff8000bad8: a8 01                	test	al, 1
ffffffff8000bada: 75 35                	jne	0xffffffff8000bb11 <_ZN3qos9allocator14page_allocator13PageAllocator14try_merge_node17hd8b9cc26434699c7E+0xf1>
ffffffff8000badc: eb 1e                	jmp	0xffffffff8000bafc <_ZN3qos9allocator14page_allocator13PageAllocator14try_merge_node17hd8b9cc26434699c7E+0xdc>
ffffffff8000bade: 48 8d 3d 3b 66 ff ff 	lea	rdi, [rip - 39365]      # 0xffffffff80002120 <str.0>
ffffffff8000bae5: 48 8d 15 cc 5f 00 00 	lea	rdx, [rip + 24524]      # 0xffffffff80011ab8 <xr6aouzjkjmurg0+0xffffffff80011ab8>
ffffffff8000baec: 48 8b 05 ed 65 00 00 	mov	rax, qword ptr [rip + 26093] # 0xffffffff800120e0 <xr6aouzjkjmurg0+0xffffffff800120e0>
ffffffff8000baf3: be 21 00 00 00       	mov	esi, 33
ffffffff8000baf8: ff d0                	call	rax
ffffffff8000bafa: 0f 0b                	ud2
ffffffff8000bafc: 48 8b 85 68 ff ff ff 	mov	rax, qword ptr [rbp - 152]
ffffffff8000bb03: 48 8b 8d 60 ff ff ff 	mov	rcx, qword ptr [rbp - 160]
ffffffff8000bb0a: 48 39 c8             	cmp	rax, rcx
ffffffff8000bb0d: 74 20                	je	0xffffffff8000bb2f <_ZN3qos9allocator14page_allocator13PageAllocator14try_merge_node17hd8b9cc26434699c7E+0x10f>
ffffffff8000bb0f: eb 83                	jmp	0xffffffff8000ba94 <_ZN3qos9allocator14page_allocator13PageAllocator14try_merge_node17hd8b9cc26434699c7E+0x74>
ffffffff8000bb11: 48 8d 3d 38 66 ff ff 	lea	rdi, [rip - 39368]      # 0xffffffff80002150 <str.1>
ffffffff8000bb18: 48 8d 15 b1 5f 00 00 	lea	rdx, [rip + 24497]      # 0xffffffff80011ad0 <xr6aouzjkjmurg0+0xffffffff80011ad0>
ffffffff8000bb1f: 48 8b 05 ba 65 00 00 	mov	rax, qword ptr [rip + 26042] # 0xffffffff800120e0 <xr6aouzjkjmurg0+0xffffffff800120e0>
ffffffff8000bb26: be 1c 00 00 00       	mov	esi, 28
ffffffff8000bb2b: ff d0                	call	rax
ffffffff8000bb2d: 0f 0b                	ud2
ffffffff8000bb2f: 48 8b 8d 78 ff ff ff 	mov	rcx, qword ptr [rbp - 136]
ffffffff8000bb36: 48 8b 85 68 ff ff ff 	mov	rax, qword ptr [rbp - 152]
ffffffff8000bb3d: 48 8b 00             	mov	rax, qword ptr [rax]
ffffffff8000bb40: 48 03 01             	add	rax, qword ptr [rcx]
ffffffff8000bb43: 48 89 85 58 ff ff ff 	mov	qword ptr [rbp - 168], rax
ffffffff8000bb4a: 0f 92 c0             	setb	al
ffffffff8000bb4d: a8 01                	test	al, 1
ffffffff8000bb4f: 75 3e                	jne	0xffffffff8000bb8f <_ZN3qos9allocator14page_allocator13PageAllocator14try_merge_node17hd8b9cc26434699c7E+0x16f>
ffffffff8000bb51: 48 8b 85 68 ff ff ff 	mov	rax, qword ptr [rbp - 152]
ffffffff8000bb58: 48 8b 8d 78 ff ff ff 	mov	rcx, qword ptr [rbp - 136]
ffffffff8000bb5f: 48 8b 95 58 ff ff ff 	mov	rdx, qword ptr [rbp - 168]
ffffffff8000bb66: 48 89 11             	mov	qword ptr [rcx], rdx
ffffffff8000bb69: 48 8b 50 10          	mov	rdx, qword ptr [rax + 16]
ffffffff8000bb6d: 48 89 51 10          	mov	qword ptr [rcx + 16], rdx
ffffffff8000bb71: 48 8b 50 10          	mov	rdx, qword ptr [rax + 16]
ffffffff8000bb75: b8 01 00 00 00       	mov	eax, 1
ffffffff8000bb7a: 31 c9                	xor	ecx, ecx
ffffffff8000bb7c: 48 83 fa 00          	cmp	rdx, 0
ffffffff8000bb80: 48 0f 44 c1          	cmove	rax, rcx
ffffffff8000bb84: 48 83 f8 01          	cmp	rax, 1
ffffffff8000bb88: 74 23                	je	0xffffffff8000bbad <_ZN3qos9allocator14page_allocator13PageAllocator14try_merge_node17hd8b9cc26434699c7E+0x18d>
ffffffff8000bb8a: e9 05 ff ff ff       	jmp	0xffffffff8000ba94 <_ZN3qos9allocator14page_allocator13PageAllocator14try_merge_node17hd8b9cc26434699c7E+0x74>
ffffffff8000bb8f: 48 8d 3d ba 65 ff ff 	lea	rdi, [rip - 39494]      # 0xffffffff80002150 <str.1>
ffffffff8000bb96: 48 8d 15 4b 5f 00 00 	lea	rdx, [rip + 24395]      # 0xffffffff80011ae8 <xr6aouzjkjmurg0+0xffffffff80011ae8>
ffffffff8000bb9d: 48 8b 05 3c 65 00 00 	mov	rax, qword ptr [rip + 25916] # 0xffffffff800120e0 <xr6aouzjkjmurg0+0xffffffff800120e0>
ffffffff8000bba4: be 1c 00 00 00       	mov	esi, 28
ffffffff8000bba9: ff d0                	call	rax
ffffffff8000bbab: 0f 0b                	ud2
ffffffff8000bbad: 48 8b 8d 78 ff ff ff 	mov	rcx, qword ptr [rbp - 136]
ffffffff8000bbb4: 48 8b 85 68 ff ff ff 	mov	rax, qword ptr [rbp - 152]
ffffffff8000bbbb: 48 8b 40 10          	mov	rax, qword ptr [rax + 16]
ffffffff8000bbbf: 48 89 45 b8          	mov	qword ptr [rbp - 72], rax
ffffffff8000bbc3: 48 89 4d 80          	mov	qword ptr [rbp - 128], rcx
ffffffff8000bbc7: 48 89 45 e8          	mov	qword ptr [rbp - 24], rax
ffffffff8000bbcb: 48 8b 4d 80          	mov	rcx, qword ptr [rbp - 128]
ffffffff8000bbcf: 48 89 48 08          	mov	qword ptr [rax + 8], rcx
ffffffff8000bbd3: e9 bc fe ff ff       	jmp	0xffffffff8000ba94 <_ZN3qos9allocator14page_allocator13PageAllocator14try_merge_node17hd8b9cc26434699c7E+0x74>
ffffffff8000bbd8: 48 8b 85 78 ff ff ff 	mov	rax, qword ptr [rbp - 136]
ffffffff8000bbdf: 48 8b 40 08          	mov	rax, qword ptr [rax + 8]
ffffffff8000bbe3: 48 89 85 48 ff ff ff 	mov	qword ptr [rbp - 184], rax
ffffffff8000bbea: 48 89 45 c0          	mov	qword ptr [rbp - 64], rax
ffffffff8000bbee: 48 89 45 e0          	mov	qword ptr [rbp - 32], rax
ffffffff8000bbf2: 48 89 45 c8          	mov	qword ptr [rbp - 56], rax
ffffffff8000bbf6: 48 8b 00             	mov	rax, qword ptr [rax]
ffffffff8000bbf9: b9 00 10 00 00       	mov	ecx, 4096
ffffffff8000bbfe: 48 f7 e1             	mul	rcx
ffffffff8000bc01: 48 89 85 50 ff ff ff 	mov	qword ptr [rbp - 176], rax
ffffffff8000bc08: 0f 90 c0             	seto	al
ffffffff8000bc0b: a8 01                	test	al, 1
ffffffff8000bc0d: 75 2c                	jne	0xffffffff8000bc3b <_ZN3qos9allocator14page_allocator13PageAllocator14try_merge_node17hd8b9cc26434699c7E+0x21b>
ffffffff8000bc0f: eb 09                	jmp	0xffffffff8000bc1a <_ZN3qos9allocator14page_allocator13PageAllocator14try_merge_node17hd8b9cc26434699c7E+0x1fa>
ffffffff8000bc11: 48 81 c4 d0 00 00 00 	add	rsp, 208
ffffffff8000bc18: 5d                   	pop	rbp
ffffffff8000bc19: c3                   	ret
ffffffff8000bc1a: 48 8b 8d 50 ff ff ff 	mov	rcx, qword ptr [rbp - 176]
ffffffff8000bc21: 48 8b 85 48 ff ff ff 	mov	rax, qword ptr [rbp - 184]
ffffffff8000bc28: 48 01 c8             	add	rax, rcx
ffffffff8000bc2b: 48 89 85 40 ff ff ff 	mov	qword ptr [rbp - 192], rax
ffffffff8000bc32: 0f 92 c0             	setb	al
ffffffff8000bc35: a8 01                	test	al, 1
ffffffff8000bc37: 75 35                	jne	0xffffffff8000bc6e <_ZN3qos9allocator14page_allocator13PageAllocator14try_merge_node17hd8b9cc26434699c7E+0x24e>
ffffffff8000bc39: eb 1e                	jmp	0xffffffff8000bc59 <_ZN3qos9allocator14page_allocator13PageAllocator14try_merge_node17hd8b9cc26434699c7E+0x239>
ffffffff8000bc3b: 48 8d 3d de 64 ff ff 	lea	rdi, [rip - 39714]      # 0xffffffff80002120 <str.0>
ffffffff8000bc42: 48 8d 15 b7 5e 00 00 	lea	rdx, [rip + 24247]      # 0xffffffff80011b00 <xr6aouzjkjmurg0+0xffffffff80011b00>
ffffffff8000bc49: 48 8b 05 90 64 00 00 	mov	rax, qword ptr [rip + 25744] # 0xffffffff800120e0 <xr6aouzjkjmurg0+0xffffffff800120e0>
ffffffff8000bc50: be 21 00 00 00       	mov	esi, 33
ffffffff8000bc55: ff d0                	call	rax
ffffffff8000bc57: 0f 0b                	ud2
ffffffff8000bc59: 48 8b 85 40 ff ff ff 	mov	rax, qword ptr [rbp - 192]
ffffffff8000bc60: 48 8b 8d 78 ff ff ff 	mov	rcx, qword ptr [rbp - 136]
ffffffff8000bc67: 48 39 c8             	cmp	rax, rcx
ffffffff8000bc6a: 74 20                	je	0xffffffff8000bc8c <_ZN3qos9allocator14page_allocator13PageAllocator14try_merge_node17hd8b9cc26434699c7E+0x26c>
ffffffff8000bc6c: eb a3                	jmp	0xffffffff8000bc11 <_ZN3qos9allocator14page_allocator13PageAllocator14try_merge_node17hd8b9cc26434699c7E+0x1f1>
ffffffff8000bc6e: 48 8d 3d db 64 ff ff 	lea	rdi, [rip - 39717]      # 0xffffffff80002150 <str.1>
ffffffff8000bc75: 48 8d 15 9c 5e 00 00 	lea	rdx, [rip + 24220]      # 0xffffffff80011b18 <xr6aouzjkjmurg0+0xffffffff80011b18>
ffffffff8000bc7c: 48 8b 05 5d 64 00 00 	mov	rax, qword ptr [rip + 25693] # 0xffffffff800120e0 <xr6aouzjkjmurg0+0xffffffff800120e0>
ffffffff8000bc83: be 1c 00 00 00       	mov	esi, 28
ffffffff8000bc88: ff d0                	call	rax
ffffffff8000bc8a: 0f 0b                	ud2
ffffffff8000bc8c: 48 8b 8d 48 ff ff ff 	mov	rcx, qword ptr [rbp - 184]
ffffffff8000bc93: 48 8b 85 78 ff ff ff 	mov	rax, qword ptr [rbp - 136]
ffffffff8000bc9a: 48 8b 00             	mov	rax, qword ptr [rax]
ffffffff8000bc9d: 48 03 01             	add	rax, qword ptr [rcx]
ffffffff8000bca0: 48 89 85 38 ff ff ff 	mov	qword ptr [rbp - 200], rax
ffffffff8000bca7: 0f 92 c0             	setb	al
ffffffff8000bcaa: a8 01                	test	al, 1
ffffffff8000bcac: 75 3e                	jne	0xffffffff8000bcec <_ZN3qos9allocator14page_allocator13PageAllocator14try_merge_node17hd8b9cc26434699c7E+0x2cc>
ffffffff8000bcae: 48 8b 85 78 ff ff ff 	mov	rax, qword ptr [rbp - 136]
ffffffff8000bcb5: 48 8b 8d 48 ff ff ff 	mov	rcx, qword ptr [rbp - 184]
ffffffff8000bcbc: 48 8b 95 38 ff ff ff 	mov	rdx, qword ptr [rbp - 200]
ffffffff8000bcc3: 48 89 11             	mov	qword ptr [rcx], rdx
ffffffff8000bcc6: 48 8b 50 10          	mov	rdx, qword ptr [rax + 16]
ffffffff8000bcca: 48 89 51 10          	mov	qword ptr [rcx + 16], rdx
ffffffff8000bcce: 48 8b 50 10          	mov	rdx, qword ptr [rax + 16]
ffffffff8000bcd2: b8 01 00 00 00       	mov	eax, 1
ffffffff8000bcd7: 31 c9                	xor	ecx, ecx
ffffffff8000bcd9: 48 83 fa 00          	cmp	rdx, 0
ffffffff8000bcdd: 48 0f 44 c1          	cmove	rax, rcx
ffffffff8000bce1: 48 83 f8 01          	cmp	rax, 1
ffffffff8000bce5: 74 23                	je	0xffffffff8000bd0a <_ZN3qos9allocator14page_allocator13PageAllocator14try_merge_node17hd8b9cc26434699c7E+0x2ea>
ffffffff8000bce7: e9 25 ff ff ff       	jmp	0xffffffff8000bc11 <_ZN3qos9allocator14page_allocator13PageAllocator14try_merge_node17hd8b9cc26434699c7E+0x1f1>
ffffffff8000bcec: 48 8d 3d 5d 64 ff ff 	lea	rdi, [rip - 39843]      # 0xffffffff80002150 <str.1>
ffffffff8000bcf3: 48 8d 15 36 5e 00 00 	lea	rdx, [rip + 24118]      # 0xffffffff80011b30 <xr6aouzjkjmurg0+0xffffffff80011b30>
ffffffff8000bcfa: 48 8b 05 df 63 00 00 	mov	rax, qword ptr [rip + 25567] # 0xffffffff800120e0 <xr6aouzjkjmurg0+0xffffffff800120e0>
ffffffff8000bd01: be 1c 00 00 00       	mov	esi, 28
ffffffff8000bd06: ff d0                	call	rax
ffffffff8000bd08: 0f 0b                	ud2
ffffffff8000bd0a: 48 8b 8d 48 ff ff ff 	mov	rcx, qword ptr [rbp - 184]
ffffffff8000bd11: 48 8b 85 78 ff ff ff 	mov	rax, qword ptr [rbp - 136]
ffffffff8000bd18: 48 8b 40 10          	mov	rax, qword ptr [rax + 16]
ffffffff8000bd1c: 48 89 45 d0          	mov	qword ptr [rbp - 48], rax
ffffffff8000bd20: 48 89 4d 88          	mov	qword ptr [rbp - 120], rcx
ffffffff8000bd24: 48 89 45 d8          	mov	qword ptr [rbp - 40], rax
ffffffff8000bd28: 48 8b 4d 88          	mov	rcx, qword ptr [rbp - 120]
ffffffff8000bd2c: 48 89 48 08          	mov	qword ptr [rax + 8], rcx
ffffffff8000bd30: e9 dc fe ff ff       	jmp	0xffffffff8000bc11 <_ZN3qos9allocator14page_allocator13PageAllocator14try_merge_node17hd8b9cc26434699c7E+0x1f1>
ffffffff8000bd35: cc                   	int3
ffffffff8000bd36: cc                   	int3
ffffffff8000bd37: cc                   	int3
ffffffff8000bd38: cc                   	int3
ffffffff8000bd39: cc                   	int3
ffffffff8000bd3a: cc                   	int3
ffffffff8000bd3b: cc                   	int3
ffffffff8000bd3c: cc                   	int3
ffffffff8000bd3d: cc                   	int3
ffffffff8000bd3e: cc                   	int3
ffffffff8000bd3f: cc                   	int3

ffffffff8000bd40 <_ZN3qos9allocator14page_allocator13PageAllocator11insert_node17h728224f545dda03dE>:
ffffffff8000bd40: 55                   	push	rbp
ffffffff8000bd41: 48 89 e5             	mov	rbp, rsp
ffffffff8000bd44: 48 81 ec e0 00 00 00 	sub	rsp, 224
ffffffff8000bd4b: 48 89 b5 38 ff ff ff 	mov	qword ptr [rbp - 200], rsi
ffffffff8000bd52: 48 89 bd 40 ff ff ff 	mov	qword ptr [rbp - 192], rdi
ffffffff8000bd59: 48 89 7d 88          	mov	qword ptr [rbp - 120], rdi
ffffffff8000bd5d: 48 89 75 90          	mov	qword ptr [rbp - 112], rsi
ffffffff8000bd61: e8 ba e4 ff ff       	call	0xffffffff8000a220 <_ZN4core6option15Option$LT$T$GT$7is_none17ha527efa599e06887E>
ffffffff8000bd66: a8 01                	test	al, 1
ffffffff8000bd68: 75 75                	jne	0xffffffff8000bddf <_ZN3qos9allocator14page_allocator13PageAllocator11insert_node17h728224f545dda03dE+0x9f>
ffffffff8000bd6a: 48 8b 85 40 ff ff ff 	mov	rax, qword ptr [rbp - 192]
ffffffff8000bd71: 48 8b 38             	mov	rdi, qword ptr [rax]
ffffffff8000bd74: 48 8d 35 cd 5d 00 00 	lea	rsi, [rip + 24013]      # 0xffffffff80011b48 <xr6aouzjkjmurg0+0xffffffff80011b48>
ffffffff8000bd7b: e8 f0 df ff ff       	call	0xffffffff80009d70 <_ZN4core6option15Option$LT$T$GT$16unwrap_unchecked17h801c467bc643e9f0E>
ffffffff8000bd80: 48 89 c1             	mov	rcx, rax
ffffffff8000bd83: 48 8b 85 40 ff ff ff 	mov	rax, qword ptr [rbp - 192]
ffffffff8000bd8a: 48 89 8d 28 ff ff ff 	mov	qword ptr [rbp - 216], rcx
ffffffff8000bd91: 48 89 4d 98          	mov	qword ptr [rbp - 104], rcx
ffffffff8000bd95: 48 8b 78 08          	mov	rdi, qword ptr [rax + 8]
ffffffff8000bd99: 48 8d 35 c0 5d 00 00 	lea	rsi, [rip + 24000]      # 0xffffffff80011b60 <xr6aouzjkjmurg0+0xffffffff80011b60>
ffffffff8000bda0: e8 cb df ff ff       	call	0xffffffff80009d70 <_ZN4core6option15Option$LT$T$GT$16unwrap_unchecked17h801c467bc643e9f0E>
ffffffff8000bda5: 48 8b 8d 28 ff ff ff 	mov	rcx, qword ptr [rbp - 216]
ffffffff8000bdac: 48 89 c2             	mov	rdx, rax
ffffffff8000bdaf: 48 8b 85 38 ff ff ff 	mov	rax, qword ptr [rbp - 200]
ffffffff8000bdb6: 48 89 95 30 ff ff ff 	mov	qword ptr [rbp - 208], rdx
ffffffff8000bdbd: 48 89 55 a0          	mov	qword ptr [rbp - 96], rdx
ffffffff8000bdc1: 48 89 45 f8          	mov	qword ptr [rbp - 8], rax
ffffffff8000bdc5: 48 89 45 a8          	mov	qword ptr [rbp - 88], rax
ffffffff8000bdc9: 48 89 4d f0          	mov	qword ptr [rbp - 16], rcx
ffffffff8000bdcd: 48 89 8d 50 ff ff ff 	mov	qword ptr [rbp - 176], rcx
ffffffff8000bdd4: 48 3b 85 50 ff ff ff 	cmp	rax, qword ptr [rbp - 176]
ffffffff8000bddb: 72 53                	jb	0xffffffff8000be30 <_ZN3qos9allocator14page_allocator13PageAllocator11insert_node17h728224f545dda03dE+0xf0>
ffffffff8000bddd: eb 2f                	jmp	0xffffffff8000be0e <_ZN3qos9allocator14page_allocator13PageAllocator11insert_node17h728224f545dda03dE+0xce>
ffffffff8000bddf: 48 8b 85 40 ff ff ff 	mov	rax, qword ptr [rbp - 192]
ffffffff8000bde6: 48 8b 8d 38 ff ff ff 	mov	rcx, qword ptr [rbp - 200]
ffffffff8000bded: 48 89 8d 48 ff ff ff 	mov	qword ptr [rbp - 184], rcx
ffffffff8000bdf4: 48 8b 8d 48 ff ff ff 	mov	rcx, qword ptr [rbp - 184]
ffffffff8000bdfb: 48 89 08             	mov	qword ptr [rax], rcx
ffffffff8000bdfe: 48 8b 08             	mov	rcx, qword ptr [rax]
ffffffff8000be01: 48 89 48 08          	mov	qword ptr [rax + 8], rcx
ffffffff8000be05: 48 81 c4 e0 00 00 00 	add	rsp, 224
ffffffff8000be0c: 5d                   	pop	rbp
ffffffff8000be0d: c3                   	ret
ffffffff8000be0e: 48 8b 85 50 ff ff ff 	mov	rax, qword ptr [rbp - 176]
ffffffff8000be15: 48 8b 50 10          	mov	rdx, qword ptr [rax + 16]
ffffffff8000be19: b8 01 00 00 00       	mov	eax, 1
ffffffff8000be1e: 31 c9                	xor	ecx, ecx
ffffffff8000be20: 48 83 fa 00          	cmp	rdx, 0
ffffffff8000be24: 48 0f 44 c1          	cmove	rax, rcx
ffffffff8000be28: 48 83 f8 01          	cmp	rax, 1
ffffffff8000be2c: 74 4c                	je	0xffffffff8000be7a <_ZN3qos9allocator14page_allocator13PageAllocator11insert_node17h728224f545dda03dE+0x13a>
ffffffff8000be2e: eb 70                	jmp	0xffffffff8000bea0 <_ZN3qos9allocator14page_allocator13PageAllocator11insert_node17h728224f545dda03dE+0x160>
ffffffff8000be30: 48 8b b5 38 ff ff ff 	mov	rsi, qword ptr [rbp - 200]
ffffffff8000be37: 48 8b bd 40 ff ff ff 	mov	rdi, qword ptr [rbp - 192]
ffffffff8000be3e: 48 8b 07             	mov	rax, qword ptr [rdi]
ffffffff8000be41: 48 89 45 b0          	mov	qword ptr [rbp - 80], rax
ffffffff8000be45: 48 89 b5 58 ff ff ff 	mov	qword ptr [rbp - 168], rsi
ffffffff8000be4c: 48 8b 8d 58 ff ff ff 	mov	rcx, qword ptr [rbp - 168]
ffffffff8000be53: 48 89 0f             	mov	qword ptr [rdi], rcx
ffffffff8000be56: 48 89 46 10          	mov	qword ptr [rsi + 16], rax
ffffffff8000be5a: 48 89 b5 60 ff ff ff 	mov	qword ptr [rbp - 160], rsi
ffffffff8000be61: 48 8b 85 50 ff ff ff 	mov	rax, qword ptr [rbp - 176]
ffffffff8000be68: 48 8b 8d 60 ff ff ff 	mov	rcx, qword ptr [rbp - 160]
ffffffff8000be6f: 48 89 48 08          	mov	qword ptr [rax + 8], rcx
ffffffff8000be73: e8 a8 fb ff ff       	call	0xffffffff8000ba20 <_ZN3qos9allocator14page_allocator13PageAllocator14try_merge_node17hd8b9cc26434699c7E>
ffffffff8000be78: eb 8b                	jmp	0xffffffff8000be05 <_ZN3qos9allocator14page_allocator13PageAllocator11insert_node17h728224f545dda03dE+0xc5>
ffffffff8000be7a: 48 8b 85 38 ff ff ff 	mov	rax, qword ptr [rbp - 200]
ffffffff8000be81: 48 8b 8d 50 ff ff ff 	mov	rcx, qword ptr [rbp - 176]
ffffffff8000be88: 48 8b 49 10          	mov	rcx, qword ptr [rcx + 16]
ffffffff8000be8c: 48 89 8d 20 ff ff ff 	mov	qword ptr [rbp - 224], rcx
ffffffff8000be93: 48 89 4d b8          	mov	qword ptr [rbp - 72], rcx
ffffffff8000be97: 48 89 4d e8          	mov	qword ptr [rbp - 24], rcx
ffffffff8000be9b: 48 39 c8             	cmp	rax, rcx
ffffffff8000be9e: 73 22                	jae	0xffffffff8000bec2 <_ZN3qos9allocator14page_allocator13PageAllocator11insert_node17h728224f545dda03dE+0x182>
ffffffff8000bea0: 48 8b 85 50 ff ff ff 	mov	rax, qword ptr [rbp - 176]
ffffffff8000bea7: 48 8b 50 10          	mov	rdx, qword ptr [rax + 16]
ffffffff8000beab: b8 01 00 00 00       	mov	eax, 1
ffffffff8000beb0: 31 c9                	xor	ecx, ecx
ffffffff8000beb2: 48 83 fa 00          	cmp	rdx, 0
ffffffff8000beb6: 48 0f 44 c1          	cmove	rax, rcx
ffffffff8000beba: 48 83 f8 01          	cmp	rax, 1
ffffffff8000bebe: 74 19                	je	0xffffffff8000bed9 <_ZN3qos9allocator14page_allocator13PageAllocator11insert_node17h728224f545dda03dE+0x199>
ffffffff8000bec0: eb 47                	jmp	0xffffffff8000bf09 <_ZN3qos9allocator14page_allocator13PageAllocator11insert_node17h728224f545dda03dE+0x1c9>
ffffffff8000bec2: 48 8b 85 20 ff ff ff 	mov	rax, qword ptr [rbp - 224]
ffffffff8000bec9: 48 89 45 d0          	mov	qword ptr [rbp - 48], rax
ffffffff8000becd: 48 89 85 50 ff ff ff 	mov	qword ptr [rbp - 176], rax
ffffffff8000bed4: e9 35 ff ff ff       	jmp	0xffffffff8000be0e <_ZN3qos9allocator14page_allocator13PageAllocator11insert_node17h728224f545dda03dE+0xce>
ffffffff8000bed9: 48 8b 8d 38 ff ff ff 	mov	rcx, qword ptr [rbp - 200]
ffffffff8000bee0: 48 8b 85 50 ff ff ff 	mov	rax, qword ptr [rbp - 176]
ffffffff8000bee7: 48 8b 40 10          	mov	rax, qword ptr [rax + 16]
ffffffff8000beeb: 48 89 45 c0          	mov	qword ptr [rbp - 64], rax
ffffffff8000beef: 48 89 45 e0          	mov	qword ptr [rbp - 32], rax
ffffffff8000bef3: 48 89 45 c8          	mov	qword ptr [rbp - 56], rax
ffffffff8000bef7: 48 89 8d 68 ff ff ff 	mov	qword ptr [rbp - 152], rcx
ffffffff8000befe: 48 8b 8d 68 ff ff ff 	mov	rcx, qword ptr [rbp - 152]
ffffffff8000bf05: 48 89 48 08          	mov	qword ptr [rax + 8], rcx
ffffffff8000bf09: 48 8b bd 50 ff ff ff 	mov	rdi, qword ptr [rbp - 176]
ffffffff8000bf10: e8 7b e3 ff ff       	call	0xffffffff8000a290 <_ZN4core3ptr8non_null16NonNull$LT$T$GT$13new_unchecked17h6ea6afab3fb18ed6E>
ffffffff8000bf15: 48 8b 8d 30 ff ff ff 	mov	rcx, qword ptr [rbp - 208]
ffffffff8000bf1c: 48 89 c2             	mov	rdx, rax
ffffffff8000bf1f: 48 8b 85 38 ff ff ff 	mov	rax, qword ptr [rbp - 200]
ffffffff8000bf26: 48 89 95 70 ff ff ff 	mov	qword ptr [rbp - 144], rdx
ffffffff8000bf2d: 48 8b 95 70 ff ff ff 	mov	rdx, qword ptr [rbp - 144]
ffffffff8000bf34: 48 89 50 08          	mov	qword ptr [rax + 8], rdx
ffffffff8000bf38: 48 8b 95 50 ff ff ff 	mov	rdx, qword ptr [rbp - 176]
ffffffff8000bf3f: 48 8b 52 10          	mov	rdx, qword ptr [rdx + 16]
ffffffff8000bf43: 48 89 50 10          	mov	qword ptr [rax + 16], rdx
ffffffff8000bf47: 48 89 85 78 ff ff ff 	mov	qword ptr [rbp - 136], rax
ffffffff8000bf4e: 48 8b 85 50 ff ff ff 	mov	rax, qword ptr [rbp - 176]
ffffffff8000bf55: 48 8b 95 78 ff ff ff 	mov	rdx, qword ptr [rbp - 136]
ffffffff8000bf5c: 48 89 50 10          	mov	qword ptr [rax + 16], rdx
ffffffff8000bf60: 48 8b 85 50 ff ff ff 	mov	rax, qword ptr [rbp - 176]
ffffffff8000bf67: 48 89 4d d8          	mov	qword ptr [rbp - 40], rcx
ffffffff8000bf6b: 48 39 c8             	cmp	rax, rcx
ffffffff8000bf6e: 74 18                	je	0xffffffff8000bf88 <_ZN3qos9allocator14page_allocator13PageAllocator11insert_node17h728224f545dda03dE+0x248>
ffffffff8000bf70: 48 8b b5 38 ff ff ff 	mov	rsi, qword ptr [rbp - 200]
ffffffff8000bf77: 48 8b bd 40 ff ff ff 	mov	rdi, qword ptr [rbp - 192]
ffffffff8000bf7e: e8 9d fa ff ff       	call	0xffffffff8000ba20 <_ZN3qos9allocator14page_allocator13PageAllocator14try_merge_node17hd8b9cc26434699c7E>
ffffffff8000bf83: e9 7d fe ff ff       	jmp	0xffffffff8000be05 <_ZN3qos9allocator14page_allocator13PageAllocator11insert_node17h728224f545dda03dE+0xc5>
ffffffff8000bf88: 48 8b 85 40 ff ff ff 	mov	rax, qword ptr [rbp - 192]
ffffffff8000bf8f: 48 8b 8d 38 ff ff ff 	mov	rcx, qword ptr [rbp - 200]
ffffffff8000bf96: 48 89 4d 80          	mov	qword ptr [rbp - 128], rcx
ffffffff8000bf9a: 48 8b 4d 80          	mov	rcx, qword ptr [rbp - 128]
ffffffff8000bf9e: 48 89 48 08          	mov	qword ptr [rax + 8], rcx
ffffffff8000bfa2: eb cc                	jmp	0xffffffff8000bf70 <_ZN3qos9allocator14page_allocator13PageAllocator11insert_node17h728224f545dda03dE+0x230>
ffffffff8000bfa4: cc                   	int3
ffffffff8000bfa5: cc                   	int3
ffffffff8000bfa6: cc                   	int3
ffffffff8000bfa7: cc                   	int3
ffffffff8000bfa8: cc                   	int3
ffffffff8000bfa9: cc                   	int3
ffffffff8000bfaa: cc                   	int3
ffffffff8000bfab: cc                   	int3
ffffffff8000bfac: cc                   	int3
ffffffff8000bfad: cc                   	int3
ffffffff8000bfae: cc                   	int3
ffffffff8000bfaf: cc                   	int3

ffffffff8000bfb0 <_ZN3qos9allocator14page_allocator13PageAllocator11remove_node17hdd473bfc9d994f61E>:
ffffffff8000bfb0: 55                   	push	rbp
ffffffff8000bfb1: 48 89 e5             	mov	rbp, rsp
ffffffff8000bfb4: 48 83 ec 70          	sub	rsp, 112
ffffffff8000bfb8: 48 89 7d 90          	mov	qword ptr [rbp - 112], rdi
ffffffff8000bfbc: 48 89 75 a0          	mov	qword ptr [rbp - 96], rsi
ffffffff8000bfc0: 48 89 7d b8          	mov	qword ptr [rbp - 72], rdi
ffffffff8000bfc4: 48 8b 45 a0          	mov	rax, qword ptr [rbp - 96]
ffffffff8000bfc8: 48 89 45 98          	mov	qword ptr [rbp - 104], rax
ffffffff8000bfcc: 48 89 45 f8          	mov	qword ptr [rbp - 8], rax
ffffffff8000bfd0: 48 89 45 c0          	mov	qword ptr [rbp - 64], rax
ffffffff8000bfd4: 48 8b 50 08          	mov	rdx, qword ptr [rax + 8]
ffffffff8000bfd8: b8 01 00 00 00       	mov	eax, 1
ffffffff8000bfdd: 31 c9                	xor	ecx, ecx
ffffffff8000bfdf: 48 83 fa 00          	cmp	rdx, 0
ffffffff8000bfe3: 48 0f 44 c1          	cmove	rax, rcx
ffffffff8000bfe7: 48 83 f8 01          	cmp	rax, 1
ffffffff8000bfeb: 75 1c                	jne	0xffffffff8000c009 <_ZN3qos9allocator14page_allocator13PageAllocator11remove_node17hdd473bfc9d994f61E+0x59>
ffffffff8000bfed: 48 8b 4d 98          	mov	rcx, qword ptr [rbp - 104]
ffffffff8000bff1: 48 8b 41 08          	mov	rax, qword ptr [rcx + 8]
ffffffff8000bff5: 48 89 45 c8          	mov	qword ptr [rbp - 56], rax
ffffffff8000bff9: 48 89 45 f0          	mov	qword ptr [rbp - 16], rax
ffffffff8000bffd: 48 89 45 d0          	mov	qword ptr [rbp - 48], rax
ffffffff8000c001: 48 8b 49 10          	mov	rcx, qword ptr [rcx + 16]
ffffffff8000c005: 48 89 48 10          	mov	qword ptr [rax + 16], rcx
ffffffff8000c009: 48 8b 45 98          	mov	rax, qword ptr [rbp - 104]
ffffffff8000c00d: 48 8b 50 10          	mov	rdx, qword ptr [rax + 16]
ffffffff8000c011: b8 01 00 00 00       	mov	eax, 1
ffffffff8000c016: 31 c9                	xor	ecx, ecx
ffffffff8000c018: 48 83 fa 00          	cmp	rdx, 0
ffffffff8000c01c: 48 0f 44 c1          	cmove	rax, rcx
ffffffff8000c020: 48 83 f8 01          	cmp	rax, 1
ffffffff8000c024: 75 1c                	jne	0xffffffff8000c042 <_ZN3qos9allocator14page_allocator13PageAllocator11remove_node17hdd473bfc9d994f61E+0x92>
ffffffff8000c026: 48 8b 4d 98          	mov	rcx, qword ptr [rbp - 104]
ffffffff8000c02a: 48 8b 41 10          	mov	rax, qword ptr [rcx + 16]
ffffffff8000c02e: 48 89 45 d8          	mov	qword ptr [rbp - 40], rax
ffffffff8000c032: 48 89 45 e8          	mov	qword ptr [rbp - 24], rax
ffffffff8000c036: 48 89 45 e0          	mov	qword ptr [rbp - 32], rax
ffffffff8000c03a: 48 8b 49 08          	mov	rcx, qword ptr [rcx + 8]
ffffffff8000c03e: 48 89 48 08          	mov	qword ptr [rax + 8], rcx
ffffffff8000c042: 48 8b 45 90          	mov	rax, qword ptr [rbp - 112]
ffffffff8000c046: 48 8b 38             	mov	rdi, qword ptr [rax]
ffffffff8000c049: 48 8d 35 28 5b 00 00 	lea	rsi, [rip + 23336]      # 0xffffffff80011b78 <xr6aouzjkjmurg0+0xffffffff80011b78>
ffffffff8000c050: e8 1b dd ff ff       	call	0xffffffff80009d70 <_ZN4core6option15Option$LT$T$GT$16unwrap_unchecked17h801c467bc643e9f0E>
ffffffff8000c055: 48 89 45 a8          	mov	qword ptr [rbp - 88], rax
ffffffff8000c059: 48 8d 7d a0          	lea	rdi, [rbp - 96]
ffffffff8000c05d: 48 8d 75 a8          	lea	rsi, [rbp - 88]
ffffffff8000c061: e8 2a e3 ff ff       	call	0xffffffff8000a390 <_ZN78_$LT$core..ptr..non_null..NonNull$LT$T$GT$$u20$as$u20$core..cmp..PartialEq$GT$2eq17h92ed4edf6c72f689E>
ffffffff8000c066: a8 01                	test	al, 1
ffffffff8000c068: 75 2b                	jne	0xffffffff8000c095 <_ZN3qos9allocator14page_allocator13PageAllocator11remove_node17hdd473bfc9d994f61E+0xe5>
ffffffff8000c06a: 48 8b 45 90          	mov	rax, qword ptr [rbp - 112]
ffffffff8000c06e: 48 8b 78 08          	mov	rdi, qword ptr [rax + 8]
ffffffff8000c072: 48 8d 35 17 5b 00 00 	lea	rsi, [rip + 23319]      # 0xffffffff80011b90 <xr6aouzjkjmurg0+0xffffffff80011b90>
ffffffff8000c079: e8 f2 dc ff ff       	call	0xffffffff80009d70 <_ZN4core6option15Option$LT$T$GT$16unwrap_unchecked17h801c467bc643e9f0E>
ffffffff8000c07e: 48 89 45 b0          	mov	qword ptr [rbp - 80], rax
ffffffff8000c082: 48 8d 7d a0          	lea	rdi, [rbp - 96]
ffffffff8000c086: 48 8d 75 b0          	lea	rsi, [rbp - 80]
ffffffff8000c08a: e8 01 e3 ff ff       	call	0xffffffff8000a390 <_ZN78_$LT$core..ptr..non_null..NonNull$LT$T$GT$$u20$as$u20$core..cmp..PartialEq$GT$2eq17h92ed4edf6c72f689E>
ffffffff8000c08f: a8 01                	test	al, 1
ffffffff8000c091: 75 19                	jne	0xffffffff8000c0ac <_ZN3qos9allocator14page_allocator13PageAllocator11remove_node17hdd473bfc9d994f61E+0xfc>
ffffffff8000c093: eb 11                	jmp	0xffffffff8000c0a6 <_ZN3qos9allocator14page_allocator13PageAllocator11remove_node17hdd473bfc9d994f61E+0xf6>
ffffffff8000c095: 48 8b 45 90          	mov	rax, qword ptr [rbp - 112]
ffffffff8000c099: 48 8b 4d 98          	mov	rcx, qword ptr [rbp - 104]
ffffffff8000c09d: 48 8b 49 10          	mov	rcx, qword ptr [rcx + 16]
ffffffff8000c0a1: 48 89 08             	mov	qword ptr [rax], rcx
ffffffff8000c0a4: eb c4                	jmp	0xffffffff8000c06a <_ZN3qos9allocator14page_allocator13PageAllocator11remove_node17hdd473bfc9d994f61E+0xba>
ffffffff8000c0a6: 48 83 c4 70          	add	rsp, 112
ffffffff8000c0aa: 5d                   	pop	rbp
ffffffff8000c0ab: c3                   	ret
ffffffff8000c0ac: 48 8b 45 90          	mov	rax, qword ptr [rbp - 112]
ffffffff8000c0b0: 48 8b 4d 98          	mov	rcx, qword ptr [rbp - 104]
ffffffff8000c0b4: 48 8b 49 08          	mov	rcx, qword ptr [rcx + 8]
ffffffff8000c0b8: 48 89 48 08          	mov	qword ptr [rax + 8], rcx
ffffffff8000c0bc: eb e8                	jmp	0xffffffff8000c0a6 <_ZN3qos9allocator14page_allocator13PageAllocator11remove_node17hdd473bfc9d994f61E+0xf6>
ffffffff8000c0be: cc                   	int3
ffffffff8000c0bf: cc                   	int3

ffffffff8000c0c0 <_ZN3qos9allocator14page_allocator13PageAllocator21get_min_size_min_addr17h70a3e857e79f8850E>:
ffffffff8000c0c0: 55                   	push	rbp
ffffffff8000c0c1: 48 89 e5             	mov	rbp, rsp
ffffffff8000c0c4: 48 81 ec a0 00 00 00 	sub	rsp, 160
ffffffff8000c0cb: 48 89 75 90          	mov	qword ptr [rbp - 112], rsi
ffffffff8000c0cf: 48 89 7d 98          	mov	qword ptr [rbp - 104], rdi
ffffffff8000c0d3: 48 89 7d b0          	mov	qword ptr [rbp - 80], rdi
ffffffff8000c0d7: 48 89 75 b8          	mov	qword ptr [rbp - 72], rsi
ffffffff8000c0db: 48 8b 07             	mov	rax, qword ptr [rdi]
ffffffff8000c0de: 48 89 45 a8          	mov	qword ptr [rbp - 88], rax
ffffffff8000c0e2: 48 8b 55 a8          	mov	rdx, qword ptr [rbp - 88]
ffffffff8000c0e6: b8 01 00 00 00       	mov	eax, 1
ffffffff8000c0eb: 31 c9                	xor	ecx, ecx
ffffffff8000c0ed: 48 83 fa 00          	cmp	rdx, 0
ffffffff8000c0f1: 48 0f 44 c1          	cmove	rax, rcx
ffffffff8000c0f5: 48 83 f8 01          	cmp	rax, 1
ffffffff8000c0f9: 75 1f                	jne	0xffffffff8000c11a <_ZN3qos9allocator14page_allocator13PageAllocator21get_min_size_min_addr17h70a3e857e79f8850E+0x5a>
ffffffff8000c0fb: 48 8b 4d 90          	mov	rcx, qword ptr [rbp - 112]
ffffffff8000c0ff: 48 8b 45 a8          	mov	rax, qword ptr [rbp - 88]
ffffffff8000c103: 48 89 45 88          	mov	qword ptr [rbp - 120], rax
ffffffff8000c107: 48 89 45 c0          	mov	qword ptr [rbp - 64], rax
ffffffff8000c10b: 48 89 45 d8          	mov	qword ptr [rbp - 40], rax
ffffffff8000c10f: 48 89 45 c8          	mov	qword ptr [rbp - 56], rax
ffffffff8000c113: 48 39 08             	cmp	qword ptr [rax], rcx
ffffffff8000c116: 73 41                	jae	0xffffffff8000c159 <_ZN3qos9allocator14page_allocator13PageAllocator21get_min_size_min_addr17h70a3e857e79f8850E+0x99>
ffffffff8000c118: eb 31                	jmp	0xffffffff8000c14b <_ZN3qos9allocator14page_allocator13PageAllocator21get_min_size_min_addr17h70a3e857e79f8850E+0x8b>
ffffffff8000c11a: 48 c7 45 f0 00 00 00 00      	mov	qword ptr [rbp - 16], 0
ffffffff8000c122: 48 8b 45 f0          	mov	rax, qword ptr [rbp - 16]
ffffffff8000c126: 48 89 45 f8          	mov	qword ptr [rbp - 8], rax
ffffffff8000c12a: 48 89 45 e8          	mov	qword ptr [rbp - 24], rax
ffffffff8000c12e: 48 8b 45 e8          	mov	rax, qword ptr [rbp - 24]
ffffffff8000c132: 48 89 45 e0          	mov	qword ptr [rbp - 32], rax
ffffffff8000c136: 48 8b 45 e0          	mov	rax, qword ptr [rbp - 32]
ffffffff8000c13a: 48 89 45 a0          	mov	qword ptr [rbp - 96], rax
ffffffff8000c13e: 48 8b 45 a0          	mov	rax, qword ptr [rbp - 96]
ffffffff8000c142: 48 81 c4 a0 00 00 00 	add	rsp, 160
ffffffff8000c149: 5d                   	pop	rbp
ffffffff8000c14a: c3                   	ret
ffffffff8000c14b: 48 8b 45 88          	mov	rax, qword ptr [rbp - 120]
ffffffff8000c14f: 48 8b 40 10          	mov	rax, qword ptr [rax + 16]
ffffffff8000c153: 48 89 45 a8          	mov	qword ptr [rbp - 88], rax
ffffffff8000c157: eb 89                	jmp	0xffffffff8000c0e2 <_ZN3qos9allocator14page_allocator13PageAllocator21get_min_size_min_addr17h70a3e857e79f8850E+0x22>
ffffffff8000c159: 48 8b 4d 90          	mov	rcx, qword ptr [rbp - 112]
ffffffff8000c15d: 48 8b 45 88          	mov	rax, qword ptr [rbp - 120]
ffffffff8000c161: 48 8b 00             	mov	rax, qword ptr [rax]
ffffffff8000c164: 48 89 c2             	mov	rdx, rax
ffffffff8000c167: 48 29 ca             	sub	rdx, rcx
ffffffff8000c16a: 48 89 55 80          	mov	qword ptr [rbp - 128], rdx
ffffffff8000c16e: 48 39 c8             	cmp	rax, rcx
ffffffff8000c171: 0f 92 c0             	setb	al
ffffffff8000c174: a8 01                	test	al, 1
ffffffff8000c176: 75 21                	jne	0xffffffff8000c199 <_ZN3qos9allocator14page_allocator13PageAllocator21get_min_size_min_addr17h70a3e857e79f8850E+0xd9>
ffffffff8000c178: 48 8b 45 80          	mov	rax, qword ptr [rbp - 128]
ffffffff8000c17c: 48 8b 75 88          	mov	rsi, qword ptr [rbp - 120]
ffffffff8000c180: 48 8b 7d 98          	mov	rdi, qword ptr [rbp - 104]
ffffffff8000c184: 48 89 45 d0          	mov	qword ptr [rbp - 48], rax
ffffffff8000c188: e8 23 fe ff ff       	call	0xffffffff8000bfb0 <_ZN3qos9allocator14page_allocator13PageAllocator11remove_node17hdd473bfc9d994f61E>
ffffffff8000c18d: 48 8b 45 80          	mov	rax, qword ptr [rbp - 128]
ffffffff8000c191: 48 83 f8 00          	cmp	rax, 0
ffffffff8000c195: 77 2d                	ja	0xffffffff8000c1c4 <_ZN3qos9allocator14page_allocator13PageAllocator21get_min_size_min_addr17h70a3e857e79f8850E+0x104>
ffffffff8000c197: eb 1e                	jmp	0xffffffff8000c1b7 <_ZN3qos9allocator14page_allocator13PageAllocator21get_min_size_min_addr17h70a3e857e79f8850E+0xf7>
ffffffff8000c199: 48 8d 3d d0 5f ff ff 	lea	rdi, [rip - 41008]      # 0xffffffff80002170 <str.2>
ffffffff8000c1a0: 48 8d 15 01 5a 00 00 	lea	rdx, [rip + 23041]      # 0xffffffff80011ba8 <xr6aouzjkjmurg0+0xffffffff80011ba8>
ffffffff8000c1a7: 48 8b 05 32 5f 00 00 	mov	rax, qword ptr [rip + 24370] # 0xffffffff800120e0 <xr6aouzjkjmurg0+0xffffffff800120e0>
ffffffff8000c1ae: be 21 00 00 00       	mov	esi, 33
ffffffff8000c1b3: ff d0                	call	rax
ffffffff8000c1b5: 0f 0b                	ud2
ffffffff8000c1b7: 48 8b 45 88          	mov	rax, qword ptr [rbp - 120]
ffffffff8000c1bb: 48 89 45 a0          	mov	qword ptr [rbp - 96], rax
ffffffff8000c1bf: e9 7a ff ff ff       	jmp	0xffffffff8000c13e <_ZN3qos9allocator14page_allocator13PageAllocator21get_min_size_min_addr17h70a3e857e79f8850E+0x7e>
ffffffff8000c1c4: 48 8b 45 90          	mov	rax, qword ptr [rbp - 112]
ffffffff8000c1c8: b9 00 10 00 00       	mov	ecx, 4096
ffffffff8000c1cd: 48 f7 e1             	mul	rcx
ffffffff8000c1d0: 48 89 85 78 ff ff ff 	mov	qword ptr [rbp - 136], rax
ffffffff8000c1d7: 0f 90 c0             	seto	al
ffffffff8000c1da: a8 01                	test	al, 1
ffffffff8000c1dc: 75 1e                	jne	0xffffffff8000c1fc <_ZN3qos9allocator14page_allocator13PageAllocator21get_min_size_min_addr17h70a3e857e79f8850E+0x13c>
ffffffff8000c1de: 48 8b 8d 78 ff ff ff 	mov	rcx, qword ptr [rbp - 136]
ffffffff8000c1e5: 48 8b 45 88          	mov	rax, qword ptr [rbp - 120]
ffffffff8000c1e9: 48 01 c8             	add	rax, rcx
ffffffff8000c1ec: 48 89 85 70 ff ff ff 	mov	qword ptr [rbp - 144], rax
ffffffff8000c1f3: 0f 92 c0             	setb	al
ffffffff8000c1f6: a8 01                	test	al, 1
ffffffff8000c1f8: 75 3c                	jne	0xffffffff8000c236 <_ZN3qos9allocator14page_allocator13PageAllocator21get_min_size_min_addr17h70a3e857e79f8850E+0x176>
ffffffff8000c1fa: eb 1e                	jmp	0xffffffff8000c21a <_ZN3qos9allocator14page_allocator13PageAllocator21get_min_size_min_addr17h70a3e857e79f8850E+0x15a>
ffffffff8000c1fc: 48 8d 3d 1d 5f ff ff 	lea	rdi, [rip - 41187]      # 0xffffffff80002120 <str.0>
ffffffff8000c203: 48 8d 15 b6 59 00 00 	lea	rdx, [rip + 22966]      # 0xffffffff80011bc0 <xr6aouzjkjmurg0+0xffffffff80011bc0>
ffffffff8000c20a: 48 8b 05 cf 5e 00 00 	mov	rax, qword ptr [rip + 24271] # 0xffffffff800120e0 <xr6aouzjkjmurg0+0xffffffff800120e0>
ffffffff8000c211: be 21 00 00 00       	mov	esi, 33
ffffffff8000c216: ff d0                	call	rax
ffffffff8000c218: 0f 0b                	ud2
ffffffff8000c21a: 48 8b 45 80          	mov	rax, qword ptr [rbp - 128]
ffffffff8000c21e: b9 00 10 00 00       	mov	ecx, 4096
ffffffff8000c223: 48 f7 e1             	mul	rcx
ffffffff8000c226: 48 89 85 68 ff ff ff 	mov	qword ptr [rbp - 152], rax
ffffffff8000c22d: 0f 90 c0             	seto	al
ffffffff8000c230: a8 01                	test	al, 1
ffffffff8000c232: 75 3c                	jne	0xffffffff8000c270 <_ZN3qos9allocator14page_allocator13PageAllocator21get_min_size_min_addr17h70a3e857e79f8850E+0x1b0>
ffffffff8000c234: eb 1e                	jmp	0xffffffff8000c254 <_ZN3qos9allocator14page_allocator13PageAllocator21get_min_size_min_addr17h70a3e857e79f8850E+0x194>
ffffffff8000c236: 48 8d 3d 13 5f ff ff 	lea	rdi, [rip - 41197]      # 0xffffffff80002150 <str.1>
ffffffff8000c23d: 48 8d 15 94 59 00 00 	lea	rdx, [rip + 22932]      # 0xffffffff80011bd8 <xr6aouzjkjmurg0+0xffffffff80011bd8>
ffffffff8000c244: 48 8b 05 95 5e 00 00 	mov	rax, qword ptr [rip + 24213] # 0xffffffff800120e0 <xr6aouzjkjmurg0+0xffffffff800120e0>
ffffffff8000c24b: be 1c 00 00 00       	mov	esi, 28
ffffffff8000c250: ff d0                	call	rax
ffffffff8000c252: 0f 0b                	ud2
ffffffff8000c254: 48 8b 95 68 ff ff ff 	mov	rdx, qword ptr [rbp - 152]
ffffffff8000c25b: 48 8b b5 70 ff ff ff 	mov	rsi, qword ptr [rbp - 144]
ffffffff8000c262: 48 8b 7d 98          	mov	rdi, qword ptr [rbp - 104]
ffffffff8000c266: e8 b5 01 00 00       	call	0xffffffff8000c420 <_ZN3qos9allocator14page_allocator13PageAllocator19add_memory_internal17he8fff0e7f11224caE>
ffffffff8000c26b: e9 47 ff ff ff       	jmp	0xffffffff8000c1b7 <_ZN3qos9allocator14page_allocator13PageAllocator21get_min_size_min_addr17h70a3e857e79f8850E+0xf7>
ffffffff8000c270: 48 8d 3d a9 5e ff ff 	lea	rdi, [rip - 41303]      # 0xffffffff80002120 <str.0>
ffffffff8000c277: 48 8d 15 72 59 00 00 	lea	rdx, [rip + 22898]      # 0xffffffff80011bf0 <xr6aouzjkjmurg0+0xffffffff80011bf0>
ffffffff8000c27e: 48 8b 05 5b 5e 00 00 	mov	rax, qword ptr [rip + 24155] # 0xffffffff800120e0 <xr6aouzjkjmurg0+0xffffffff800120e0>
ffffffff8000c285: be 21 00 00 00       	mov	esi, 33
ffffffff8000c28a: ff d0                	call	rax
ffffffff8000c28c: 0f 0b                	ud2
ffffffff8000c28e: cc                   	int3
ffffffff8000c28f: cc                   	int3

ffffffff8000c290 <_ZN3qos9allocator14page_allocator13PageAllocator12get_min_size17ha3cb45e4dd956059E>:
ffffffff8000c290: 55                   	push	rbp
ffffffff8000c291: 48 89 e5             	mov	rbp, rsp
ffffffff8000c294: 48 81 ec 90 00 00 00 	sub	rsp, 144
ffffffff8000c29b: 48 89 75 90          	mov	qword ptr [rbp - 112], rsi
ffffffff8000c29f: 48 89 7d 98          	mov	qword ptr [rbp - 104], rdi
ffffffff8000c2a3: 48 89 7d b0          	mov	qword ptr [rbp - 80], rdi
ffffffff8000c2a7: 48 89 75 b8          	mov	qword ptr [rbp - 72], rsi
ffffffff8000c2ab: 48 8b 47 08          	mov	rax, qword ptr [rdi + 8]
ffffffff8000c2af: 48 89 45 a8          	mov	qword ptr [rbp - 88], rax
ffffffff8000c2b3: 48 8b 55 a8          	mov	rdx, qword ptr [rbp - 88]
ffffffff8000c2b7: b8 01 00 00 00       	mov	eax, 1
ffffffff8000c2bc: 31 c9                	xor	ecx, ecx
ffffffff8000c2be: 48 83 fa 00          	cmp	rdx, 0
ffffffff8000c2c2: 48 0f 44 c1          	cmove	rax, rcx
ffffffff8000c2c6: 48 83 f8 01          	cmp	rax, 1
ffffffff8000c2ca: 75 1f                	jne	0xffffffff8000c2eb <_ZN3qos9allocator14page_allocator13PageAllocator12get_min_size17ha3cb45e4dd956059E+0x5b>
ffffffff8000c2cc: 48 8b 4d 90          	mov	rcx, qword ptr [rbp - 112]
ffffffff8000c2d0: 48 8b 45 a8          	mov	rax, qword ptr [rbp - 88]
ffffffff8000c2d4: 48 89 45 88          	mov	qword ptr [rbp - 120], rax
ffffffff8000c2d8: 48 89 45 c0          	mov	qword ptr [rbp - 64], rax
ffffffff8000c2dc: 48 89 45 d8          	mov	qword ptr [rbp - 40], rax
ffffffff8000c2e0: 48 89 45 c8          	mov	qword ptr [rbp - 56], rax
ffffffff8000c2e4: 48 39 08             	cmp	qword ptr [rax], rcx
ffffffff8000c2e7: 73 41                	jae	0xffffffff8000c32a <_ZN3qos9allocator14page_allocator13PageAllocator12get_min_size17ha3cb45e4dd956059E+0x9a>
ffffffff8000c2e9: eb 31                	jmp	0xffffffff8000c31c <_ZN3qos9allocator14page_allocator13PageAllocator12get_min_size17ha3cb45e4dd956059E+0x8c>
ffffffff8000c2eb: 48 c7 45 f0 00 00 00 00      	mov	qword ptr [rbp - 16], 0
ffffffff8000c2f3: 48 8b 45 f0          	mov	rax, qword ptr [rbp - 16]
ffffffff8000c2f7: 48 89 45 f8          	mov	qword ptr [rbp - 8], rax
ffffffff8000c2fb: 48 89 45 e8          	mov	qword ptr [rbp - 24], rax
ffffffff8000c2ff: 48 8b 45 e8          	mov	rax, qword ptr [rbp - 24]
ffffffff8000c303: 48 89 45 e0          	mov	qword ptr [rbp - 32], rax
ffffffff8000c307: 48 8b 45 e0          	mov	rax, qword ptr [rbp - 32]
ffffffff8000c30b: 48 89 45 a0          	mov	qword ptr [rbp - 96], rax
ffffffff8000c30f: 48 8b 45 a0          	mov	rax, qword ptr [rbp - 96]
ffffffff8000c313: 48 81 c4 90 00 00 00 	add	rsp, 144
ffffffff8000c31a: 5d                   	pop	rbp
ffffffff8000c31b: c3                   	ret
ffffffff8000c31c: 48 8b 45 88          	mov	rax, qword ptr [rbp - 120]
ffffffff8000c320: 48 8b 40 08          	mov	rax, qword ptr [rax + 8]
ffffffff8000c324: 48 89 45 a8          	mov	qword ptr [rbp - 88], rax
ffffffff8000c328: eb 89                	jmp	0xffffffff8000c2b3 <_ZN3qos9allocator14page_allocator13PageAllocator12get_min_size17ha3cb45e4dd956059E+0x23>
ffffffff8000c32a: 48 8b 4d 90          	mov	rcx, qword ptr [rbp - 112]
ffffffff8000c32e: 48 8b 45 88          	mov	rax, qword ptr [rbp - 120]
ffffffff8000c332: 48 8b 00             	mov	rax, qword ptr [rax]
ffffffff8000c335: 48 89 c2             	mov	rdx, rax
ffffffff8000c338: 48 29 ca             	sub	rdx, rcx
ffffffff8000c33b: 48 89 55 80          	mov	qword ptr [rbp - 128], rdx
ffffffff8000c33f: 48 39 c8             	cmp	rax, rcx
ffffffff8000c342: 0f 92 c0             	setb	al
ffffffff8000c345: a8 01                	test	al, 1
ffffffff8000c347: 75 10                	jne	0xffffffff8000c359 <_ZN3qos9allocator14page_allocator13PageAllocator12get_min_size17ha3cb45e4dd956059E+0xc9>
ffffffff8000c349: 48 8b 45 80          	mov	rax, qword ptr [rbp - 128]
ffffffff8000c34d: 48 89 45 d0          	mov	qword ptr [rbp - 48], rax
ffffffff8000c351: 48 83 f8 00          	cmp	rax, 0
ffffffff8000c355: 74 20                	je	0xffffffff8000c377 <_ZN3qos9allocator14page_allocator13PageAllocator12get_min_size17ha3cb45e4dd956059E+0xe7>
ffffffff8000c357: eb 2d                	jmp	0xffffffff8000c386 <_ZN3qos9allocator14page_allocator13PageAllocator12get_min_size17ha3cb45e4dd956059E+0xf6>
ffffffff8000c359: 48 8d 3d 10 5e ff ff 	lea	rdi, [rip - 41456]      # 0xffffffff80002170 <str.2>
ffffffff8000c360: 48 8d 15 a1 58 00 00 	lea	rdx, [rip + 22689]      # 0xffffffff80011c08 <xr6aouzjkjmurg0+0xffffffff80011c08>
ffffffff8000c367: 48 8b 05 72 5d 00 00 	mov	rax, qword ptr [rip + 23922] # 0xffffffff800120e0 <xr6aouzjkjmurg0+0xffffffff800120e0>
ffffffff8000c36e: be 21 00 00 00       	mov	esi, 33
ffffffff8000c373: ff d0                	call	rax
ffffffff8000c375: 0f 0b                	ud2
ffffffff8000c377: 48 8b 75 88          	mov	rsi, qword ptr [rbp - 120]
ffffffff8000c37b: 48 8b 7d 98          	mov	rdi, qword ptr [rbp - 104]
ffffffff8000c37f: e8 2c fc ff ff       	call	0xffffffff8000bfb0 <_ZN3qos9allocator14page_allocator13PageAllocator11remove_node17hdd473bfc9d994f61E>
ffffffff8000c384: eb 0b                	jmp	0xffffffff8000c391 <_ZN3qos9allocator14page_allocator13PageAllocator12get_min_size17ha3cb45e4dd956059E+0x101>
ffffffff8000c386: 48 8b 45 88          	mov	rax, qword ptr [rbp - 120]
ffffffff8000c38a: 48 8b 4d 80          	mov	rcx, qword ptr [rbp - 128]
ffffffff8000c38e: 48 89 08             	mov	qword ptr [rax], rcx
ffffffff8000c391: 48 8b 45 80          	mov	rax, qword ptr [rbp - 128]
ffffffff8000c395: b9 00 10 00 00       	mov	ecx, 4096
ffffffff8000c39a: 48 f7 e1             	mul	rcx
ffffffff8000c39d: 48 89 85 78 ff ff ff 	mov	qword ptr [rbp - 136], rax
ffffffff8000c3a4: 0f 90 c0             	seto	al
ffffffff8000c3a7: a8 01                	test	al, 1
ffffffff8000c3a9: 75 1e                	jne	0xffffffff8000c3c9 <_ZN3qos9allocator14page_allocator13PageAllocator12get_min_size17ha3cb45e4dd956059E+0x139>
ffffffff8000c3ab: 48 8b 8d 78 ff ff ff 	mov	rcx, qword ptr [rbp - 136]
ffffffff8000c3b2: 48 8b 45 88          	mov	rax, qword ptr [rbp - 120]
ffffffff8000c3b6: 48 01 c8             	add	rax, rcx
ffffffff8000c3b9: 48 89 85 70 ff ff ff 	mov	qword ptr [rbp - 144], rax
ffffffff8000c3c0: 0f 92 c0             	setb	al
ffffffff8000c3c3: a8 01                	test	al, 1
ffffffff8000c3c5: 75 30                	jne	0xffffffff8000c3f7 <_ZN3qos9allocator14page_allocator13PageAllocator12get_min_size17ha3cb45e4dd956059E+0x167>
ffffffff8000c3c7: eb 1e                	jmp	0xffffffff8000c3e7 <_ZN3qos9allocator14page_allocator13PageAllocator12get_min_size17ha3cb45e4dd956059E+0x157>
ffffffff8000c3c9: 48 8d 3d 50 5d ff ff 	lea	rdi, [rip - 41648]      # 0xffffffff80002120 <str.0>
ffffffff8000c3d0: 48 8d 15 49 58 00 00 	lea	rdx, [rip + 22601]      # 0xffffffff80011c20 <xr6aouzjkjmurg0+0xffffffff80011c20>
ffffffff8000c3d7: 48 8b 05 02 5d 00 00 	mov	rax, qword ptr [rip + 23810] # 0xffffffff800120e0 <xr6aouzjkjmurg0+0xffffffff800120e0>
ffffffff8000c3de: be 21 00 00 00       	mov	esi, 33
ffffffff8000c3e3: ff d0                	call	rax
ffffffff8000c3e5: 0f 0b                	ud2
ffffffff8000c3e7: 48 8b 85 70 ff ff ff 	mov	rax, qword ptr [rbp - 144]
ffffffff8000c3ee: 48 89 45 a0          	mov	qword ptr [rbp - 96], rax
ffffffff8000c3f2: e9 18 ff ff ff       	jmp	0xffffffff8000c30f <_ZN3qos9allocator14page_allocator13PageAllocator12get_min_size17ha3cb45e4dd956059E+0x7f>
ffffffff8000c3f7: 48 8d 3d 52 5d ff ff 	lea	rdi, [rip - 41646]      # 0xffffffff80002150 <str.1>
ffffffff8000c3fe: 48 8d 15 33 58 00 00 	lea	rdx, [rip + 22579]      # 0xffffffff80011c38 <xr6aouzjkjmurg0+0xffffffff80011c38>
ffffffff8000c405: 48 8b 05 d4 5c 00 00 	mov	rax, qword ptr [rip + 23764] # 0xffffffff800120e0 <xr6aouzjkjmurg0+0xffffffff800120e0>
ffffffff8000c40c: be 1c 00 00 00       	mov	esi, 28
ffffffff8000c411: ff d0                	call	rax
ffffffff8000c413: 0f 0b                	ud2
ffffffff8000c415: cc                   	int3
ffffffff8000c416: cc                   	int3
ffffffff8000c417: cc                   	int3
ffffffff8000c418: cc                   	int3
ffffffff8000c419: cc                   	int3
ffffffff8000c41a: cc                   	int3
ffffffff8000c41b: cc                   	int3
ffffffff8000c41c: cc                   	int3
ffffffff8000c41d: cc                   	int3
ffffffff8000c41e: cc                   	int3
ffffffff8000c41f: cc                   	int3

ffffffff8000c420 <_ZN3qos9allocator14page_allocator13PageAllocator19add_memory_internal17he8fff0e7f11224caE>:
ffffffff8000c420: 55                   	push	rbp
ffffffff8000c421: 48 89 e5             	mov	rbp, rsp
ffffffff8000c424: 48 81 ec 80 00 00 00 	sub	rsp, 128
ffffffff8000c42b: 48 89 75 80          	mov	qword ptr [rbp - 128], rsi
ffffffff8000c42f: 48 89 7d 88          	mov	qword ptr [rbp - 120], rdi
ffffffff8000c433: 48 89 7d b0          	mov	qword ptr [rbp - 80], rdi
ffffffff8000c437: 48 89 75 b8          	mov	qword ptr [rbp - 72], rsi
ffffffff8000c43b: 48 89 55 c0          	mov	qword ptr [rbp - 64], rdx
ffffffff8000c43f: 48 c1 ea 0c          	shr	rdx, 12
ffffffff8000c443: 48 89 55 90          	mov	qword ptr [rbp - 112], rdx
ffffffff8000c447: 48 89 55 c8          	mov	qword ptr [rbp - 56], rdx
ffffffff8000c44b: 48 83 fa 00          	cmp	rdx, 0
ffffffff8000c44f: 75 09                	jne	0xffffffff8000c45a <_ZN3qos9allocator14page_allocator13PageAllocator19add_memory_internal17he8fff0e7f11224caE+0x3a>
ffffffff8000c451: 48 81 c4 80 00 00 00 	add	rsp, 128
ffffffff8000c458: 5d                   	pop	rbp
ffffffff8000c459: c3                   	ret
ffffffff8000c45a: 48 8b 7d 80          	mov	rdi, qword ptr [rbp - 128]
ffffffff8000c45e: 48 8b 45 90          	mov	rax, qword ptr [rbp - 112]
ffffffff8000c462: 48 89 7d d0          	mov	qword ptr [rbp - 48], rdi
ffffffff8000c466: 48 89 45 98          	mov	qword ptr [rbp - 104], rax
ffffffff8000c46a: 48 c7 45 a0 00 00 00 00      	mov	qword ptr [rbp - 96], 0
ffffffff8000c472: 48 c7 45 a8 00 00 00 00      	mov	qword ptr [rbp - 88], 0
ffffffff8000c47a: 48 89 7d f0          	mov	qword ptr [rbp - 16], rdi
ffffffff8000c47e: 48 89 7d f8          	mov	qword ptr [rbp - 8], rdi
ffffffff8000c482: 48 8b 45 98          	mov	rax, qword ptr [rbp - 104]
ffffffff8000c486: 48 89 45 d8          	mov	qword ptr [rbp - 40], rax
ffffffff8000c48a: 48 8b 45 a0          	mov	rax, qword ptr [rbp - 96]
ffffffff8000c48e: 48 89 45 e0          	mov	qword ptr [rbp - 32], rax
ffffffff8000c492: 48 8b 45 a8          	mov	rax, qword ptr [rbp - 88]
ffffffff8000c496: 48 89 45 e8          	mov	qword ptr [rbp - 24], rax
ffffffff8000c49a: 48 8b 45 d8          	mov	rax, qword ptr [rbp - 40]
ffffffff8000c49e: 48 89 07             	mov	qword ptr [rdi], rax
ffffffff8000c4a1: 48 8b 45 e0          	mov	rax, qword ptr [rbp - 32]
ffffffff8000c4a5: 48 89 47 08          	mov	qword ptr [rdi + 8], rax
ffffffff8000c4a9: 48 8b 45 e8          	mov	rax, qword ptr [rbp - 24]
ffffffff8000c4ad: 48 89 47 10          	mov	qword ptr [rdi + 16], rax
ffffffff8000c4b1: e8 da dd ff ff       	call	0xffffffff8000a290 <_ZN4core3ptr8non_null16NonNull$LT$T$GT$13new_unchecked17h6ea6afab3fb18ed6E>
ffffffff8000c4b6: 48 8b 7d 88          	mov	rdi, qword ptr [rbp - 120]
ffffffff8000c4ba: 48 89 c6             	mov	rsi, rax
ffffffff8000c4bd: e8 7e f8 ff ff       	call	0xffffffff8000bd40 <_ZN3qos9allocator14page_allocator13PageAllocator11insert_node17h728224f545dda03dE>
ffffffff8000c4c2: eb 8d                	jmp	0xffffffff8000c451 <_ZN3qos9allocator14page_allocator13PageAllocator19add_memory_internal17he8fff0e7f11224caE+0x31>
ffffffff8000c4c4: cc                   	int3
ffffffff8000c4c5: cc                   	int3
ffffffff8000c4c6: cc                   	int3
ffffffff8000c4c7: cc                   	int3
ffffffff8000c4c8: cc                   	int3
ffffffff8000c4c9: cc                   	int3
ffffffff8000c4ca: cc                   	int3
ffffffff8000c4cb: cc                   	int3
ffffffff8000c4cc: cc                   	int3
ffffffff8000c4cd: cc                   	int3
ffffffff8000c4ce: cc                   	int3
ffffffff8000c4cf: cc                   	int3

ffffffff8000c4d0 <_ZN3qos9allocator14page_allocator13PageAllocator10add_memory17hef00e06ae2b30283E>:
ffffffff8000c4d0: 55                   	push	rbp
ffffffff8000c4d1: 48 89 e5             	mov	rbp, rsp
ffffffff8000c4d4: 48 81 ec 90 00 00 00 	sub	rsp, 144
ffffffff8000c4db: 48 89 bd 78 ff ff ff 	mov	qword ptr [rbp - 136], rdi
ffffffff8000c4e2: 48 89 75 88          	mov	qword ptr [rbp - 120], rsi
ffffffff8000c4e6: 48 89 7d b0          	mov	qword ptr [rbp - 80], rdi
ffffffff8000c4ea: 48 89 55 b8          	mov	qword ptr [rbp - 72], rdx
ffffffff8000c4ee: 48 c1 ea 0c          	shr	rdx, 12
ffffffff8000c4f2: 48 89 55 80          	mov	qword ptr [rbp - 128], rdx
ffffffff8000c4f6: 48 89 55 c0          	mov	qword ptr [rbp - 64], rdx
ffffffff8000c4fa: 48 83 fa 00          	cmp	rdx, 0
ffffffff8000c4fe: 75 09                	jne	0xffffffff8000c509 <_ZN3qos9allocator14page_allocator13PageAllocator10add_memory17hef00e06ae2b30283E+0x39>
ffffffff8000c500: 48 81 c4 90 00 00 00 	add	rsp, 144
ffffffff8000c507: 5d                   	pop	rbp
ffffffff8000c508: c3                   	ret
ffffffff8000c509: 48 8d 7d 88          	lea	rdi, [rbp - 120]
ffffffff8000c50d: e8 2e bf ff ff       	call	0xffffffff80008440 <_ZN3qos6paging8PhysAddr7as_virt17hc5964947f4fd1c8dE>
ffffffff8000c512: 48 89 45 90          	mov	qword ptr [rbp - 112], rax
ffffffff8000c516: 48 8d 7d 90          	lea	rdi, [rbp - 112]
ffffffff8000c51a: e8 e1 bd ff ff       	call	0xffffffff80008300 <_ZN3qos6paging8VirtAddr8as_usize17h475f889e4233a8dfE>
ffffffff8000c51f: 48 89 c7             	mov	rdi, rax
ffffffff8000c522: 48 8b 45 80          	mov	rax, qword ptr [rbp - 128]
ffffffff8000c526: 48 89 bd 70 ff ff ff 	mov	qword ptr [rbp - 144], rdi
ffffffff8000c52d: 48 89 7d c8          	mov	qword ptr [rbp - 56], rdi
ffffffff8000c531: 48 89 7d d0          	mov	qword ptr [rbp - 48], rdi
ffffffff8000c535: 48 89 45 98          	mov	qword ptr [rbp - 104], rax
ffffffff8000c539: 48 c7 45 a0 00 00 00 00      	mov	qword ptr [rbp - 96], 0
ffffffff8000c541: 48 c7 45 a8 00 00 00 00      	mov	qword ptr [rbp - 88], 0
ffffffff8000c549: 48 89 7d f0          	mov	qword ptr [rbp - 16], rdi
ffffffff8000c54d: 48 89 7d f8          	mov	qword ptr [rbp - 8], rdi
ffffffff8000c551: 48 8b 45 98          	mov	rax, qword ptr [rbp - 104]
ffffffff8000c555: 48 89 45 d8          	mov	qword ptr [rbp - 40], rax
ffffffff8000c559: 48 8b 45 a0          	mov	rax, qword ptr [rbp - 96]
ffffffff8000c55d: 48 89 45 e0          	mov	qword ptr [rbp - 32], rax
ffffffff8000c561: 48 8b 45 a8          	mov	rax, qword ptr [rbp - 88]
ffffffff8000c565: 48 89 45 e8          	mov	qword ptr [rbp - 24], rax
ffffffff8000c569: 48 8b 45 d8          	mov	rax, qword ptr [rbp - 40]
ffffffff8000c56d: 48 89 07             	mov	qword ptr [rdi], rax
ffffffff8000c570: 48 8b 45 e0          	mov	rax, qword ptr [rbp - 32]
ffffffff8000c574: 48 89 47 08          	mov	qword ptr [rdi + 8], rax
ffffffff8000c578: 48 8b 45 e8          	mov	rax, qword ptr [rbp - 24]
ffffffff8000c57c: 48 89 47 10          	mov	qword ptr [rdi + 16], rax
ffffffff8000c580: e8 0b dd ff ff       	call	0xffffffff8000a290 <_ZN4core3ptr8non_null16NonNull$LT$T$GT$13new_unchecked17h6ea6afab3fb18ed6E>
ffffffff8000c585: 48 8b bd 78 ff ff ff 	mov	rdi, qword ptr [rbp - 136]
ffffffff8000c58c: 48 89 c6             	mov	rsi, rax
ffffffff8000c58f: e8 ac f7 ff ff       	call	0xffffffff8000bd40 <_ZN3qos9allocator14page_allocator13PageAllocator11insert_node17h728224f545dda03dE>
ffffffff8000c594: e9 67 ff ff ff       	jmp	0xffffffff8000c500 <_ZN3qos9allocator14page_allocator13PageAllocator10add_memory17hef00e06ae2b30283E+0x30>
ffffffff8000c599: cc                   	int3
ffffffff8000c59a: cc                   	int3
ffffffff8000c59b: cc                   	int3
ffffffff8000c59c: cc                   	int3
ffffffff8000c59d: cc                   	int3
ffffffff8000c59e: cc                   	int3
ffffffff8000c59f: cc                   	int3

ffffffff8000c5a0 <_ZN3qos9allocator14page_allocator13PageAllocator11alloc_pages17h08e225ec3e39b698E>:
ffffffff8000c5a0: 55                   	push	rbp
ffffffff8000c5a1: 48 89 e5             	mov	rbp, rsp
ffffffff8000c5a4: 48 83 ec 10          	sub	rsp, 16
ffffffff8000c5a8: 48 89 7d f0          	mov	qword ptr [rbp - 16], rdi
ffffffff8000c5ac: 48 89 75 f8          	mov	qword ptr [rbp - 8], rsi
ffffffff8000c5b0: e8 db fc ff ff       	call	0xffffffff8000c290 <_ZN3qos9allocator14page_allocator13PageAllocator12get_min_size17ha3cb45e4dd956059E>
ffffffff8000c5b5: 48 83 c4 10          	add	rsp, 16
ffffffff8000c5b9: 5d                   	pop	rbp
ffffffff8000c5ba: c3                   	ret
ffffffff8000c5bb: cc                   	int3
ffffffff8000c5bc: cc                   	int3
ffffffff8000c5bd: cc                   	int3
ffffffff8000c5be: cc                   	int3
ffffffff8000c5bf: cc                   	int3

ffffffff8000c5c0 <_ZN3qos9allocator14page_allocator13PageAllocator15alloc_pages_low17h1124476fbec6b6c8E>:
ffffffff8000c5c0: 55                   	push	rbp
ffffffff8000c5c1: 48 89 e5             	mov	rbp, rsp
ffffffff8000c5c4: 48 83 ec 10          	sub	rsp, 16
ffffffff8000c5c8: 48 89 7d f0          	mov	qword ptr [rbp - 16], rdi
ffffffff8000c5cc: 48 89 75 f8          	mov	qword ptr [rbp - 8], rsi
ffffffff8000c5d0: e8 eb fa ff ff       	call	0xffffffff8000c0c0 <_ZN3qos9allocator14page_allocator13PageAllocator21get_min_size_min_addr17h70a3e857e79f8850E>
ffffffff8000c5d5: 48 83 c4 10          	add	rsp, 16
ffffffff8000c5d9: 5d                   	pop	rbp
ffffffff8000c5da: c3                   	ret
ffffffff8000c5db: cc                   	int3
ffffffff8000c5dc: cc                   	int3
ffffffff8000c5dd: cc                   	int3
ffffffff8000c5de: cc                   	int3
ffffffff8000c5df: cc                   	int3

ffffffff8000c5e0 <_ZN6x86_6410structures3idt12EntryOptions11set_present17hb8fe10ed6b8e9e5aE>:
ffffffff8000c5e0: 55                   	push	rbp
ffffffff8000c5e1: 48 89 e5             	mov	rbp, rsp
ffffffff8000c5e4: 48 83 ec 20          	sub	rsp, 32
ffffffff8000c5e8: 48 89 7d e8          	mov	qword ptr [rbp - 24], rdi
ffffffff8000c5ec: 40 88 f0             	mov	al, sil
ffffffff8000c5ef: 48 89 7d f0          	mov	qword ptr [rbp - 16], rdi
ffffffff8000c5f3: 88 c1                	mov	cl, al
ffffffff8000c5f5: 80 e1 01             	and	cl, 1
ffffffff8000c5f8: 88 4d ff             	mov	byte ptr [rbp - 1], cl
ffffffff8000c5fb: 0f b6 d0             	movzx	edx, al
ffffffff8000c5fe: 83 e2 01             	and	edx, 1
ffffffff8000c601: be 0f 00 00 00       	mov	esi, 15
ffffffff8000c606: e8 65 86 ff ff       	call	0xffffffff80004c70 <_ZN43_$LT$u16$u20$as$u20$bit_field..BitField$GT$7set_bit17h2570f78dba7cb5baE>
ffffffff8000c60b: 48 8b 45 e8          	mov	rax, qword ptr [rbp - 24]
ffffffff8000c60f: 48 83 c4 20          	add	rsp, 32
ffffffff8000c613: 5d                   	pop	rbp
ffffffff8000c614: c3                   	ret
ffffffff8000c615: cc                   	int3
ffffffff8000c616: cc                   	int3
ffffffff8000c617: cc                   	int3
ffffffff8000c618: cc                   	int3
ffffffff8000c619: cc                   	int3
ffffffff8000c61a: cc                   	int3
ffffffff8000c61b: cc                   	int3
ffffffff8000c61c: cc                   	int3
ffffffff8000c61d: cc                   	int3
ffffffff8000c61e: cc                   	int3
ffffffff8000c61f: cc                   	int3

ffffffff8000c620 <_ZN6x86_6410structures3idt132Entry$LT$extern$u20$$u22$x86.interrupt$u22$$u20$fn$LP$x86_64..structures..idt..InterruptStackFrame$C$u64$RP$$u20$.$GT$$u20$$u21$$GT$14set_handler_fn17h5a86998c3bfa37d4E>:
ffffffff8000c620: 55                   	push	rbp
ffffffff8000c621: 48 89 e5             	mov	rbp, rsp
ffffffff8000c624: 48 83 ec 30          	sub	rsp, 48
ffffffff8000c628: 48 89 75 d8          	mov	qword ptr [rbp - 40], rsi
ffffffff8000c62c: 48 89 f8             	mov	rax, rdi
ffffffff8000c62f: 48 8b 7d d8          	mov	rdi, qword ptr [rbp - 40]
ffffffff8000c633: 48 89 45 e0          	mov	qword ptr [rbp - 32], rax
ffffffff8000c637: 48 89 45 e8          	mov	qword ptr [rbp - 24], rax
ffffffff8000c63b: 48 89 7d f0          	mov	qword ptr [rbp - 16], rdi
ffffffff8000c63f: e8 2c 98 ff ff       	call	0xffffffff80005e70 <_ZN6x86_644addr8VirtAddr3new17h56df287fc3f4ff9eE>
ffffffff8000c644: 48 8b 7d e0          	mov	rdi, qword ptr [rbp - 32]
ffffffff8000c648: 48 89 c6             	mov	rsi, rax
ffffffff8000c64b: 48 89 75 f8          	mov	qword ptr [rbp - 8], rsi
ffffffff8000c64f: e8 2c 87 ff ff       	call	0xffffffff80004d80 <_ZN6x86_6410structures3idt14Entry$LT$F$GT$16set_handler_addr17h539db899c07251c2E>
ffffffff8000c654: 48 83 c4 30          	add	rsp, 48
ffffffff8000c658: 5d                   	pop	rbp
ffffffff8000c659: c3                   	ret
ffffffff8000c65a: cc                   	int3
ffffffff8000c65b: cc                   	int3
ffffffff8000c65c: cc                   	int3
ffffffff8000c65d: cc                   	int3
ffffffff8000c65e: cc                   	int3
ffffffff8000c65f: cc                   	int3

ffffffff8000c660 <_ZN6x86_6410structures3idt152Entry$LT$extern$u20$$u22$x86.interrupt$u22$$u20$fn$LP$x86_64..structures..idt..InterruptStackFrame$C$x86_64..structures..idt..PageFaultErrorCode$RP$$GT$14set_handler_fn17hae6567ad9a762b98E>:
ffffffff8000c660: 55                   	push	rbp
ffffffff8000c661: 48 89 e5             	mov	rbp, rsp
ffffffff8000c664: 48 83 ec 30          	sub	rsp, 48
ffffffff8000c668: 48 89 75 d8          	mov	qword ptr [rbp - 40], rsi
ffffffff8000c66c: 48 89 f8             	mov	rax, rdi
ffffffff8000c66f: 48 8b 7d d8          	mov	rdi, qword ptr [rbp - 40]
ffffffff8000c673: 48 89 45 e0          	mov	qword ptr [rbp - 32], rax
ffffffff8000c677: 48 89 45 e8          	mov	qword ptr [rbp - 24], rax
ffffffff8000c67b: 48 89 7d f0          	mov	qword ptr [rbp - 16], rdi
ffffffff8000c67f: e8 ec 97 ff ff       	call	0xffffffff80005e70 <_ZN6x86_644addr8VirtAddr3new17h56df287fc3f4ff9eE>
ffffffff8000c684: 48 8b 7d e0          	mov	rdi, qword ptr [rbp - 32]
ffffffff8000c688: 48 89 c6             	mov	rsi, rax
ffffffff8000c68b: 48 89 75 f8          	mov	qword ptr [rbp - 8], rsi
ffffffff8000c68f: e8 6c 87 ff ff       	call	0xffffffff80004e00 <_ZN6x86_6410structures3idt14Entry$LT$F$GT$16set_handler_addr17hc5a8c93ea91df3d7E>
ffffffff8000c694: 48 83 c4 30          	add	rsp, 48
ffffffff8000c698: 5d                   	pop	rbp
ffffffff8000c699: c3                   	ret
ffffffff8000c69a: cc                   	int3
ffffffff8000c69b: cc                   	int3
ffffffff8000c69c: cc                   	int3
ffffffff8000c69d: cc                   	int3
ffffffff8000c69e: cc                   	int3
ffffffff8000c69f: cc                   	int3

ffffffff8000c6a0 <_ZN6x86_6410structures3idt24InterruptDescriptorTable11load_unsafe17h0522020243f5b559E>:
ffffffff8000c6a0: 55                   	push	rbp
ffffffff8000c6a1: 48 89 e5             	mov	rbp, rsp
ffffffff8000c6a4: 48 83 ec 20          	sub	rsp, 32
ffffffff8000c6a8: 48 89 fe             	mov	rsi, rdi
ffffffff8000c6ab: 48 89 75 f8          	mov	qword ptr [rbp - 8], rsi
ffffffff8000c6af: 48 8b 05 1a 5b 00 00 	mov	rax, qword ptr [rip + 23322] # 0xffffffff800121d0 <xr6aouzjkjmurg0+0xffffffff800121d0>
ffffffff8000c6b6: 48 8d 7d e8          	lea	rdi, [rbp - 24]
ffffffff8000c6ba: ff d0                	call	rax
ffffffff8000c6bc: 48 8d 7d e8          	lea	rdi, [rbp - 24]
ffffffff8000c6c0: e8 2b 9a ff ff       	call	0xffffffff800060f0 <_ZN6x86_6412instructions6tables4lidt17ha096ec453a8db43cE>
ffffffff8000c6c5: 48 83 c4 20          	add	rsp, 32
ffffffff8000c6c9: 5d                   	pop	rbp
ffffffff8000c6ca: c3                   	ret
ffffffff8000c6cb: cc                   	int3
ffffffff8000c6cc: cc                   	int3
ffffffff8000c6cd: cc                   	int3
ffffffff8000c6ce: cc                   	int3
ffffffff8000c6cf: cc                   	int3

ffffffff8000c6d0 <_ZN6x86_6410structures3idt24InterruptDescriptorTable4load17h0a6cf700a83f5004E>:
ffffffff8000c6d0: 55                   	push	rbp
ffffffff8000c6d1: 48 89 e5             	mov	rbp, rsp
ffffffff8000c6d4: 48 83 ec 10          	sub	rsp, 16
ffffffff8000c6d8: 48 89 7d f8          	mov	qword ptr [rbp - 8], rdi
ffffffff8000c6dc: e8 bf ff ff ff       	call	0xffffffff8000c6a0 <_ZN6x86_6410structures3idt24InterruptDescriptorTable11load_unsafe17h0522020243f5b559E>
ffffffff8000c6e1: 48 83 c4 10          	add	rsp, 16
ffffffff8000c6e5: 5d                   	pop	rbp
ffffffff8000c6e6: c3                   	ret
ffffffff8000c6e7: cc                   	int3
ffffffff8000c6e8: cc                   	int3
ffffffff8000c6e9: cc                   	int3
ffffffff8000c6ea: cc                   	int3
ffffffff8000c6eb: cc                   	int3
ffffffff8000c6ec: cc                   	int3
ffffffff8000c6ed: cc                   	int3
ffffffff8000c6ee: cc                   	int3
ffffffff8000c6ef: cc                   	int3

ffffffff8000c6f0 <_ZN4core3ops8function6FnOnce9call_once17h3992f2e9517d7becE>:
ffffffff8000c6f0: 55                   	push	rbp
ffffffff8000c6f1: 48 89 e5             	mov	rbp, rsp
ffffffff8000c6f4: 48 83 ec 20          	sub	rsp, 32
ffffffff8000c6f8: 48 89 f8             	mov	rax, rdi
ffffffff8000c6fb: 48 89 45 e8          	mov	qword ptr [rbp - 24], rax
ffffffff8000c6ff: 48 8d 75 f0          	lea	rsi, [rbp - 16]
ffffffff8000c703: e8 a8 8f ff ff       	call	0xffffffff800056b0 <_ZN3qos2fb6WRITER28_$u7b$$u7b$closure$u7d$$u7d$17hd67f534cb809b8c8E>
ffffffff8000c708: 48 8b 45 e8          	mov	rax, qword ptr [rbp - 24]
ffffffff8000c70c: 48 83 c4 20          	add	rsp, 32
ffffffff8000c710: 5d                   	pop	rbp
ffffffff8000c711: c3                   	ret
ffffffff8000c712: cc                   	int3
ffffffff8000c713: cc                   	int3
ffffffff8000c714: cc                   	int3
ffffffff8000c715: cc                   	int3
ffffffff8000c716: cc                   	int3
ffffffff8000c717: cc                   	int3
ffffffff8000c718: cc                   	int3
ffffffff8000c719: cc                   	int3
ffffffff8000c71a: cc                   	int3
ffffffff8000c71b: cc                   	int3
ffffffff8000c71c: cc                   	int3
ffffffff8000c71d: cc                   	int3
ffffffff8000c71e: cc                   	int3
ffffffff8000c71f: cc                   	int3

ffffffff8000c720 <_ZN4core3ops8function6FnOnce9call_once17h78d04fa1be85f723E>:
ffffffff8000c720: 55                   	push	rbp
ffffffff8000c721: 48 89 e5             	mov	rbp, rsp
ffffffff8000c724: 48 83 ec 20          	sub	rsp, 32
ffffffff8000c728: 48 89 f8             	mov	rax, rdi
ffffffff8000c72b: 48 89 45 e8          	mov	qword ptr [rbp - 24], rax
ffffffff8000c72f: 48 89 75 f8          	mov	qword ptr [rbp - 8], rsi
ffffffff8000c733: ff d6                	call	rsi
ffffffff8000c735: 48 8b 45 e8          	mov	rax, qword ptr [rbp - 24]
ffffffff8000c739: 48 83 c4 20          	add	rsp, 32
ffffffff8000c73d: 5d                   	pop	rbp
ffffffff8000c73e: c3                   	ret
ffffffff8000c73f: cc                   	int3

ffffffff8000c740 <_ZN4core3ptr30drop_in_place$LT$$RF$usize$GT$17h8e1e6c9c67a7b5a6E>:
ffffffff8000c740: 55                   	push	rbp
ffffffff8000c741: 48 89 e5             	mov	rbp, rsp
ffffffff8000c744: 50                   	push	rax
ffffffff8000c745: 48 89 7d f8          	mov	qword ptr [rbp - 8], rdi
ffffffff8000c749: 48 83 c4 08          	add	rsp, 8
ffffffff8000c74d: 5d                   	pop	rbp
ffffffff8000c74e: c3                   	ret
ffffffff8000c74f: cc                   	int3

ffffffff8000c750 <_ZN4core3ptr37drop_in_place$LT$core..fmt..Error$GT$17h18a640c24d3666e3E>:
ffffffff8000c750: 55                   	push	rbp
ffffffff8000c751: 48 89 e5             	mov	rbp, rsp
ffffffff8000c754: 50                   	push	rax
ffffffff8000c755: 48 89 7d f8          	mov	qword ptr [rbp - 8], rdi
ffffffff8000c759: 48 83 c4 08          	add	rsp, 8
ffffffff8000c75d: 5d                   	pop	rbp
ffffffff8000c75e: c3                   	ret
ffffffff8000c75f: cc                   	int3

ffffffff8000c760 <_ZN4core3ptr48drop_in_place$LT$$RF$mut$u20$qos..fb..Writer$GT$17hfe1d893b33636ac7E>:
ffffffff8000c760: 55                   	push	rbp
ffffffff8000c761: 48 89 e5             	mov	rbp, rsp
ffffffff8000c764: 50                   	push	rax
ffffffff8000c765: 48 89 7d f8          	mov	qword ptr [rbp - 8], rdi
ffffffff8000c769: 48 83 c4 08          	add	rsp, 8
ffffffff8000c76d: 5d                   	pop	rbp
ffffffff8000c76e: c3                   	ret
ffffffff8000c76f: cc                   	int3

ffffffff8000c770 <_ZN4core3ptr48drop_in_place$LT$core..str..error..Utf8Error$GT$17hb2f57b53aaa49bdcE>:
ffffffff8000c770: 55                   	push	rbp
ffffffff8000c771: 48 89 e5             	mov	rbp, rsp
ffffffff8000c774: 50                   	push	rax
ffffffff8000c775: 48 89 7d f8          	mov	qword ptr [rbp - 8], rdi
ffffffff8000c779: 48 83 c4 08          	add	rsp, 8
ffffffff8000c77d: 5d                   	pop	rbp
ffffffff8000c77e: c3                   	ret
ffffffff8000c77f: cc                   	int3

ffffffff8000c780 <_ZN4core3ptr65drop_in_place$LT$qos..sync..MutexGuard$LT$qos..fb..Writer$GT$$GT$17h9681f7fde08cec56E>:
ffffffff8000c780: 55                   	push	rbp
ffffffff8000c781: 48 89 e5             	mov	rbp, rsp
ffffffff8000c784: 48 83 ec 10          	sub	rsp, 16
ffffffff8000c788: 48 89 7d f8          	mov	qword ptr [rbp - 8], rdi
ffffffff8000c78c: e8 5f 00 00 00       	call	0xffffffff8000c7f0 <_ZN72_$LT$qos..sync..MutexGuard$LT$T$GT$$u20$as$u20$core..ops..drop..Drop$GT$4drop17hc0df219d3c671563E>
ffffffff8000c791: 48 83 c4 10          	add	rsp, 16
ffffffff8000c795: 5d                   	pop	rbp
ffffffff8000c796: c3                   	ret
ffffffff8000c797: cc                   	int3
ffffffff8000c798: cc                   	int3
ffffffff8000c799: cc                   	int3
ffffffff8000c79a: cc                   	int3
ffffffff8000c79b: cc                   	int3
ffffffff8000c79c: cc                   	int3
ffffffff8000c79d: cc                   	int3
ffffffff8000c79e: cc                   	int3
ffffffff8000c79f: cc                   	int3

ffffffff8000c7a0 <_ZN4core3ptr95drop_in_place$LT$qos..sync..MutexGuard$LT$qos..allocator..page_allocator..PageAllocator$GT$$GT$17h528ae5d18d2696deE>:
ffffffff8000c7a0: 55                   	push	rbp
ffffffff8000c7a1: 48 89 e5             	mov	rbp, rsp
ffffffff8000c7a4: 48 83 ec 10          	sub	rsp, 16
ffffffff8000c7a8: 48 89 7d f8          	mov	qword ptr [rbp - 8], rdi
ffffffff8000c7ac: e8 0f 00 00 00       	call	0xffffffff8000c7c0 <_ZN72_$LT$qos..sync..MutexGuard$LT$T$GT$$u20$as$u20$core..ops..drop..Drop$GT$4drop17h663857b681d69befE>
ffffffff8000c7b1: 48 83 c4 10          	add	rsp, 16
ffffffff8000c7b5: 5d                   	pop	rbp
ffffffff8000c7b6: c3                   	ret
ffffffff8000c7b7: cc                   	int3
ffffffff8000c7b8: cc                   	int3
ffffffff8000c7b9: cc                   	int3
ffffffff8000c7ba: cc                   	int3
ffffffff8000c7bb: cc                   	int3
ffffffff8000c7bc: cc                   	int3
ffffffff8000c7bd: cc                   	int3
ffffffff8000c7be: cc                   	int3
ffffffff8000c7bf: cc                   	int3

ffffffff8000c7c0 <_ZN72_$LT$qos..sync..MutexGuard$LT$T$GT$$u20$as$u20$core..ops..drop..Drop$GT$4drop17h663857b681d69befE>:
ffffffff8000c7c0: 55                   	push	rbp
ffffffff8000c7c1: 48 89 e5             	mov	rbp, rsp
ffffffff8000c7c4: 48 83 ec 10          	sub	rsp, 16
ffffffff8000c7c8: 48 89 7d f8          	mov	qword ptr [rbp - 8], rdi
ffffffff8000c7cc: 48 8b 3f             	mov	rdi, qword ptr [rdi]
ffffffff8000c7cf: 48 83 c7 10          	add	rdi, 16
ffffffff8000c7d3: c6 45 f7 01          	mov	byte ptr [rbp - 9], 1
ffffffff8000c7d7: 8a 45 f7             	mov	al, byte ptr [rbp - 9]
ffffffff8000c7da: 31 c9                	xor	ecx, ecx
ffffffff8000c7dc: 0f b6 d0             	movzx	edx, al
ffffffff8000c7df: 31 f6                	xor	esi, esi
ffffffff8000c7e1: e8 4a 84 ff ff       	call	0xffffffff80004c30 <_ZN4core4sync6atomic10AtomicBool5store17h6b15ae4f4b929367E>
ffffffff8000c7e6: 48 83 c4 10          	add	rsp, 16
ffffffff8000c7ea: 5d                   	pop	rbp
ffffffff8000c7eb: c3                   	ret
ffffffff8000c7ec: cc                   	int3
ffffffff8000c7ed: cc                   	int3
ffffffff8000c7ee: cc                   	int3
ffffffff8000c7ef: cc                   	int3

ffffffff8000c7f0 <_ZN72_$LT$qos..sync..MutexGuard$LT$T$GT$$u20$as$u20$core..ops..drop..Drop$GT$4drop17hc0df219d3c671563E>:
ffffffff8000c7f0: 55                   	push	rbp
ffffffff8000c7f1: 48 89 e5             	mov	rbp, rsp
ffffffff8000c7f4: 48 83 ec 10          	sub	rsp, 16
ffffffff8000c7f8: 48 89 7d f8          	mov	qword ptr [rbp - 8], rdi
ffffffff8000c7fc: 48 8b 3f             	mov	rdi, qword ptr [rdi]
ffffffff8000c7ff: 48 83 c7 60          	add	rdi, 96
ffffffff8000c803: c6 45 f7 01          	mov	byte ptr [rbp - 9], 1
ffffffff8000c807: 8a 45 f7             	mov	al, byte ptr [rbp - 9]
ffffffff8000c80a: 31 c9                	xor	ecx, ecx
ffffffff8000c80c: 0f b6 d0             	movzx	edx, al
ffffffff8000c80f: 31 f6                	xor	esi, esi
ffffffff8000c811: e8 1a 84 ff ff       	call	0xffffffff80004c30 <_ZN4core4sync6atomic10AtomicBool5store17h6b15ae4f4b929367E>
ffffffff8000c816: 48 83 c4 10          	add	rsp, 16
ffffffff8000c81a: 5d                   	pop	rbp
ffffffff8000c81b: c3                   	ret
ffffffff8000c81c: cc                   	int3
ffffffff8000c81d: cc                   	int3
ffffffff8000c81e: cc                   	int3
ffffffff8000c81f: cc                   	int3

ffffffff8000c820 <__rust_alloc>:
ffffffff8000c820: e9 ab ef ff ff       	jmp	0xffffffff8000b7d0 <__rg_alloc>
ffffffff8000c825: cc                   	int3
ffffffff8000c826: cc                   	int3
ffffffff8000c827: cc                   	int3
ffffffff8000c828: cc                   	int3
ffffffff8000c829: cc                   	int3
ffffffff8000c82a: cc                   	int3
ffffffff8000c82b: cc                   	int3
ffffffff8000c82c: cc                   	int3
ffffffff8000c82d: cc                   	int3
ffffffff8000c82e: cc                   	int3
ffffffff8000c82f: cc                   	int3

ffffffff8000c830 <__rust_alloc_zeroed>:
ffffffff8000c830: e9 cb ef ff ff       	jmp	0xffffffff8000b800 <__rg_alloc_zeroed>
ffffffff8000c835: cc                   	int3
ffffffff8000c836: cc                   	int3
ffffffff8000c837: cc                   	int3
ffffffff8000c838: cc                   	int3
ffffffff8000c839: cc                   	int3
ffffffff8000c83a: cc                   	int3
ffffffff8000c83b: cc                   	int3
ffffffff8000c83c: cc                   	int3
ffffffff8000c83d: cc                   	int3
ffffffff8000c83e: cc                   	int3
ffffffff8000c83f: cc                   	int3

ffffffff8000c840 <__rust_alloc_error_handler>:
ffffffff8000c840: e9 7b 09 00 00       	jmp	0xffffffff8000d1c0 <__rdl_oom>
ffffffff8000c845: cc                   	int3
ffffffff8000c846: cc                   	int3
ffffffff8000c847: cc                   	int3
ffffffff8000c848: cc                   	int3
ffffffff8000c849: cc                   	int3
ffffffff8000c84a: cc                   	int3
ffffffff8000c84b: cc                   	int3
ffffffff8000c84c: cc                   	int3
ffffffff8000c84d: cc                   	int3
ffffffff8000c84e: cc                   	int3
ffffffff8000c84f: cc                   	int3

ffffffff8000c850 <_ZN6x86_6410structures3idt24InterruptDescriptorTable7pointer17h6b270a97a050b342E>:
ffffffff8000c850: 55                   	push	rbp
ffffffff8000c851: 48 89 e5             	mov	rbp, rsp
ffffffff8000c854: 48 83 ec 30          	sub	rsp, 48
ffffffff8000c858: 48 89 75 d0          	mov	qword ptr [rbp - 48], rsi
ffffffff8000c85c: 48 89 f8             	mov	rax, rdi
ffffffff8000c85f: 48 8b 7d d0          	mov	rdi, qword ptr [rbp - 48]
ffffffff8000c863: 48 89 45 d8          	mov	qword ptr [rbp - 40], rax
ffffffff8000c867: 48 89 45 e0          	mov	qword ptr [rbp - 32], rax
ffffffff8000c86b: 48 89 7d f8          	mov	qword ptr [rbp - 8], rdi
ffffffff8000c86f: e8 0c 01 00 00       	call	0xffffffff8000c980 <_ZN6x86_644addr8VirtAddr3new17hcabc4b3da43ade4aE>
ffffffff8000c874: 48 89 45 e8          	mov	qword ptr [rbp - 24], rax
ffffffff8000c878: b8 00 10 00 00       	mov	eax, 4096
ffffffff8000c87d: 48 83 e8 01          	sub	rax, 1
ffffffff8000c881: 48 89 45 f0          	mov	qword ptr [rbp - 16], rax
ffffffff8000c885: b8 00 10 00 00       	mov	eax, 4096
ffffffff8000c88a: 48 83 f8 01          	cmp	rax, 1
ffffffff8000c88e: 0f 92 c0             	setb	al
ffffffff8000c891: a8 01                	test	al, 1
ffffffff8000c893: 75 1d                	jne	0xffffffff8000c8b2 <_ZN6x86_6410structures3idt24InterruptDescriptorTable7pointer17h6b270a97a050b342E+0x62>
ffffffff8000c895: 48 8b 45 e0          	mov	rax, qword ptr [rbp - 32]
ffffffff8000c899: 48 8b 4d d8          	mov	rcx, qword ptr [rbp - 40]
ffffffff8000c89d: 48 8b 55 e8          	mov	rdx, qword ptr [rbp - 24]
ffffffff8000c8a1: 48 8b 75 f0          	mov	rsi, qword ptr [rbp - 16]
ffffffff8000c8a5: 66 89 31             	mov	word ptr [rcx], si
ffffffff8000c8a8: 48 89 51 02          	mov	qword ptr [rcx + 2], rdx
ffffffff8000c8ac: 48 83 c4 30          	add	rsp, 48
ffffffff8000c8b0: 5d                   	pop	rbp
ffffffff8000c8b1: c3                   	ret
ffffffff8000c8b2: 48 8d 3d 37 59 ff ff 	lea	rdi, [rip - 42697]      # 0xffffffff800021f0 <str.0>
ffffffff8000c8b9: 48 8d 15 90 53 00 00 	lea	rdx, [rip + 21392]      # 0xffffffff80011c50 <xr6aouzjkjmurg0+0xffffffff80011c50>
ffffffff8000c8c0: 48 8b 05 19 58 00 00 	mov	rax, qword ptr [rip + 22553] # 0xffffffff800120e0 <xr6aouzjkjmurg0+0xffffffff800120e0>
ffffffff8000c8c7: be 21 00 00 00       	mov	esi, 33
ffffffff8000c8cc: ff d0                	call	rax
ffffffff8000c8ce: 0f 0b                	ud2

ffffffff8000c8d0 <_ZN67_$LT$x86_64..addr..VirtAddrNotValid$u20$as$u20$core..fmt..Debug$GT$3fmt17h087279875086ed3aE>:
ffffffff8000c8d0: 55                   	push	rbp
ffffffff8000c8d1: 48 89 e5             	mov	rbp, rsp
ffffffff8000c8d4: 48 81 ec 80 00 00 00 	sub	rsp, 128
ffffffff8000c8db: 48 89 7d 90          	mov	qword ptr [rbp - 112], rdi
ffffffff8000c8df: 48 89 7d f0          	mov	qword ptr [rbp - 16], rdi
ffffffff8000c8e3: 48 89 75 f8          	mov	qword ptr [rbp - 8], rsi
ffffffff8000c8e7: 48 8d 15 04 53 ff ff 	lea	rdx, [rip - 44284]      # 0xffffffff80001bf2 <str.0+0x162>
ffffffff8000c8ee: 48 8b 05 f3 58 00 00 	mov	rax, qword ptr [rip + 22771] # 0xffffffff800121e8 <xr6aouzjkjmurg0+0xffffffff800121e8>
ffffffff8000c8f5: 48 8d 7d 98          	lea	rdi, [rbp - 104]
ffffffff8000c8f9: b9 10 00 00 00       	mov	ecx, 16
ffffffff8000c8fe: ff d0                	call	rax
ffffffff8000c900: 48 8b 7d 90          	mov	rdi, qword ptr [rbp - 112]
ffffffff8000c904: 48 8b 05 f5 58 00 00 	mov	rax, qword ptr [rip + 22773] # 0xffffffff80012200 <xr6aouzjkjmurg0+0xffffffff80012200>
ffffffff8000c90b: ff d0                	call	rax
ffffffff8000c90d: 48 89 45 e0          	mov	qword ptr [rbp - 32], rax
ffffffff8000c911: 48 89 55 e8          	mov	qword ptr [rbp - 24], rdx
ffffffff8000c915: 48 89 e0             	mov	rax, rsp
ffffffff8000c918: 48 c7 00 01 00 00 00 	mov	qword ptr [rax], 1
ffffffff8000c91f: 48 8d 35 42 53 00 00 	lea	rsi, [rip + 21314]      # 0xffffffff80011c68 <xr6aouzjkjmurg0+0xffffffff80011c68>
ffffffff8000c926: 4c 8d 0d eb 58 ff ff 	lea	r9, [rip - 42773]       # 0xffffffff80002218 <str.0+0x28>
ffffffff8000c92d: 48 8d 7d b0          	lea	rdi, [rbp - 80]
ffffffff8000c931: 48 8d 4d e0          	lea	rcx, [rbp - 32]
ffffffff8000c935: 41 b8 01 00 00 00    	mov	r8d, 1
ffffffff8000c93b: 4c 89 c2             	mov	rdx, r8
ffffffff8000c93e: e8 4d 03 00 00       	call	0xffffffff8000cc90 <_ZN4core3fmt9Arguments16new_v1_formatted17hcfaadfd26533ceb6E>
ffffffff8000c943: 48 8d 15 2e 53 00 00 	lea	rdx, [rip + 21294]      # 0xffffffff80011c78 <xr6aouzjkjmurg0+0xffffffff80011c78>
ffffffff8000c94a: 48 8b 05 9f 58 00 00 	mov	rax, qword ptr [rip + 22687] # 0xffffffff800121f0 <xr6aouzjkjmurg0+0xffffffff800121f0>
ffffffff8000c951: 48 8d 7d 98          	lea	rdi, [rbp - 104]
ffffffff8000c955: 48 8d 75 b0          	lea	rsi, [rbp - 80]
ffffffff8000c959: ff d0                	call	rax
ffffffff8000c95b: 48 89 c7             	mov	rdi, rax
ffffffff8000c95e: 48 8b 05 93 58 00 00 	mov	rax, qword ptr [rip + 22675] # 0xffffffff800121f8 <xr6aouzjkjmurg0+0xffffffff800121f8>
ffffffff8000c965: ff d0                	call	rax
ffffffff8000c967: 24 01                	and	al, 1
ffffffff8000c969: 0f b6 c0             	movzx	eax, al
ffffffff8000c96c: 48 81 c4 80 00 00 00 	add	rsp, 128
ffffffff8000c973: 5d                   	pop	rbp
ffffffff8000c974: c3                   	ret
ffffffff8000c975: cc                   	int3
ffffffff8000c976: cc                   	int3
ffffffff8000c977: cc                   	int3
ffffffff8000c978: cc                   	int3
ffffffff8000c979: cc                   	int3
ffffffff8000c97a: cc                   	int3
ffffffff8000c97b: cc                   	int3
ffffffff8000c97c: cc                   	int3
ffffffff8000c97d: cc                   	int3
ffffffff8000c97e: cc                   	int3
ffffffff8000c97f: cc                   	int3

ffffffff8000c980 <_ZN6x86_644addr8VirtAddr3new17hcabc4b3da43ade4aE>:
ffffffff8000c980: 55                   	push	rbp
ffffffff8000c981: 48 89 e5             	mov	rbp, rsp
ffffffff8000c984: 48 83 ec 10          	sub	rsp, 16
ffffffff8000c988: 48 89 7d f8          	mov	qword ptr [rbp - 8], rdi
ffffffff8000c98c: e8 2f 00 00 00       	call	0xffffffff8000c9c0 <_ZN6x86_644addr8VirtAddr7try_new17h68d199b75e2ee1d5E>
ffffffff8000c991: 48 89 c7             	mov	rdi, rax
ffffffff8000c994: 48 89 d6             	mov	rsi, rdx
ffffffff8000c997: 48 8d 15 b2 58 ff ff 	lea	rdx, [rip - 42830]      # 0xffffffff80002250 <str.0+0x60>
ffffffff8000c99e: 4c 8d 05 f3 52 00 00 	lea	r8, [rip + 21235]       # 0xffffffff80011c98 <xr6aouzjkjmurg0+0xffffffff80011c98>
ffffffff8000c9a5: 48 8b 05 7c 57 00 00 	mov	rax, qword ptr [rip + 22396] # 0xffffffff80012128 <xr6aouzjkjmurg0+0xffffffff80012128>
ffffffff8000c9ac: b9 4a 00 00 00       	mov	ecx, 74
ffffffff8000c9b1: ff d0                	call	rax
ffffffff8000c9b3: 48 83 c4 10          	add	rsp, 16
ffffffff8000c9b7: 5d                   	pop	rbp
ffffffff8000c9b8: c3                   	ret
ffffffff8000c9b9: cc                   	int3
ffffffff8000c9ba: cc                   	int3
ffffffff8000c9bb: cc                   	int3
ffffffff8000c9bc: cc                   	int3
ffffffff8000c9bd: cc                   	int3
ffffffff8000c9be: cc                   	int3
ffffffff8000c9bf: cc                   	int3

ffffffff8000c9c0 <_ZN6x86_644addr8VirtAddr7try_new17h68d199b75e2ee1d5E>:
ffffffff8000c9c0: 55                   	push	rbp
ffffffff8000c9c1: 48 89 e5             	mov	rbp, rsp
ffffffff8000c9c4: 48 83 ec 40          	sub	rsp, 64
ffffffff8000c9c8: 48 89 7d c8          	mov	qword ptr [rbp - 56], rdi
ffffffff8000c9cc: 48 c7 45 e0 2f 00 00 00      	mov	qword ptr [rbp - 32], 47
ffffffff8000c9d4: 48 c7 45 e8 40 00 00 00      	mov	qword ptr [rbp - 24], 64
ffffffff8000c9dc: 48 8b 75 e0          	mov	rsi, qword ptr [rbp - 32]
ffffffff8000c9e0: 48 8b 55 e8          	mov	rdx, qword ptr [rbp - 24]
ffffffff8000c9e4: 48 8b 05 45 57 00 00 	mov	rax, qword ptr [rip + 22341] # 0xffffffff80012130 <xr6aouzjkjmurg0+0xffffffff80012130>
ffffffff8000c9eb: 48 8d 7d c8          	lea	rdi, [rbp - 56]
ffffffff8000c9ef: ff d0                	call	rax
ffffffff8000c9f1: 48 89 c1             	mov	rcx, rax
ffffffff8000c9f4: 48 89 4d c0          	mov	qword ptr [rbp - 64], rcx
ffffffff8000c9f8: 48 85 c0             	test	rax, rax
ffffffff8000c9fb: 74 36                	je	0xffffffff8000ca33 <_ZN6x86_644addr8VirtAddr7try_new17h68d199b75e2ee1d5E+0x73>
ffffffff8000c9fd: eb 00                	jmp	0xffffffff8000c9ff <_ZN6x86_644addr8VirtAddr7try_new17h68d199b75e2ee1d5E+0x3f>
ffffffff8000c9ff: 48 8b 45 c0          	mov	rax, qword ptr [rbp - 64]
ffffffff8000ca03: 48 83 e8 01          	sub	rax, 1
ffffffff8000ca07: 74 44                	je	0xffffffff8000ca4d <_ZN6x86_644addr8VirtAddr7try_new17h68d199b75e2ee1d5E+0x8d>
ffffffff8000ca09: eb 00                	jmp	0xffffffff8000ca0b <_ZN6x86_644addr8VirtAddr7try_new17h68d199b75e2ee1d5E+0x4b>
ffffffff8000ca0b: 48 8b 45 c0          	mov	rax, qword ptr [rbp - 64]
ffffffff8000ca0f: 48 2d ff ff 01 00    	sub	rax, 131071
ffffffff8000ca15: 74 1c                	je	0xffffffff8000ca33 <_ZN6x86_644addr8VirtAddr7try_new17h68d199b75e2ee1d5E+0x73>
ffffffff8000ca17: eb 00                	jmp	0xffffffff8000ca19 <_ZN6x86_644addr8VirtAddr7try_new17h68d199b75e2ee1d5E+0x59>
ffffffff8000ca19: 48 8b 45 c8          	mov	rax, qword ptr [rbp - 56]
ffffffff8000ca1d: 48 89 45 f8          	mov	qword ptr [rbp - 8], rax
ffffffff8000ca21: 48 8b 45 f8          	mov	rax, qword ptr [rbp - 8]
ffffffff8000ca25: 48 89 45 d8          	mov	qword ptr [rbp - 40], rax
ffffffff8000ca29: 48 c7 45 d0 01 00 00 00      	mov	qword ptr [rbp - 48], 1
ffffffff8000ca31: eb 2f                	jmp	0xffffffff8000ca62 <_ZN6x86_644addr8VirtAddr7try_new17h68d199b75e2ee1d5E+0xa2>
ffffffff8000ca33: 48 8b 45 c8          	mov	rax, qword ptr [rbp - 56]
ffffffff8000ca37: 48 89 45 f0          	mov	qword ptr [rbp - 16], rax
ffffffff8000ca3b: 48 8b 45 f0          	mov	rax, qword ptr [rbp - 16]
ffffffff8000ca3f: 48 89 45 d8          	mov	qword ptr [rbp - 40], rax
ffffffff8000ca43: 48 c7 45 d0 00 00 00 00      	mov	qword ptr [rbp - 48], 0
ffffffff8000ca4b: eb 15                	jmp	0xffffffff8000ca62 <_ZN6x86_644addr8VirtAddr7try_new17h68d199b75e2ee1d5E+0xa2>
ffffffff8000ca4d: 48 8b 7d c8          	mov	rdi, qword ptr [rbp - 56]
ffffffff8000ca51: e8 1a 00 00 00       	call	0xffffffff8000ca70 <_ZN6x86_644addr8VirtAddr12new_truncate17h759bc9e5f0aac05dE>
ffffffff8000ca56: 48 89 45 d8          	mov	qword ptr [rbp - 40], rax
ffffffff8000ca5a: 48 c7 45 d0 00 00 00 00      	mov	qword ptr [rbp - 48], 0
ffffffff8000ca62: 48 8b 45 d0          	mov	rax, qword ptr [rbp - 48]
ffffffff8000ca66: 48 8b 55 d8          	mov	rdx, qword ptr [rbp - 40]
ffffffff8000ca6a: 48 83 c4 40          	add	rsp, 64
ffffffff8000ca6e: 5d                   	pop	rbp
ffffffff8000ca6f: c3                   	ret

ffffffff8000ca70 <_ZN6x86_644addr8VirtAddr12new_truncate17h759bc9e5f0aac05dE>:
ffffffff8000ca70: 55                   	push	rbp
ffffffff8000ca71: 48 89 e5             	mov	rbp, rsp
ffffffff8000ca74: 48 83 ec 10          	sub	rsp, 16
ffffffff8000ca78: 48 89 f8             	mov	rax, rdi
ffffffff8000ca7b: 48 89 45 f8          	mov	qword ptr [rbp - 8], rax
ffffffff8000ca7f: 48 c1 e0 10          	shl	rax, 16
ffffffff8000ca83: 48 c1 f8 10          	sar	rax, 16
ffffffff8000ca87: 48 89 45 f0          	mov	qword ptr [rbp - 16], rax
ffffffff8000ca8b: 48 8b 45 f0          	mov	rax, qword ptr [rbp - 16]
ffffffff8000ca8f: 48 83 c4 10          	add	rsp, 16
ffffffff8000ca93: 5d                   	pop	rbp
ffffffff8000ca94: c3                   	ret
ffffffff8000ca95: cc                   	int3
ffffffff8000ca96: cc                   	int3
ffffffff8000ca97: cc                   	int3
ffffffff8000ca98: cc                   	int3
ffffffff8000ca99: cc                   	int3
ffffffff8000ca9a: cc                   	int3
ffffffff8000ca9b: cc                   	int3
ffffffff8000ca9c: cc                   	int3
ffffffff8000ca9d: cc                   	int3
ffffffff8000ca9e: cc                   	int3
ffffffff8000ca9f: cc                   	int3

ffffffff8000caa0 <_ZN153_$LT$core..result..Result$LT$T$C$F$GT$$u20$as$u20$core..ops..try_trait..FromResidual$LT$core..result..Result$LT$core..convert..Infallible$C$E$GT$$GT$$GT$13from_residual17h32e02e3e12c4d917E>:
ffffffff8000caa0: 55                   	push	rbp
ffffffff8000caa1: 48 89 e5             	mov	rbp, rsp
ffffffff8000caa4: 48 83 ec 18          	sub	rsp, 24
ffffffff8000caa8: c6 45 ef 01          	mov	byte ptr [rbp - 17], 1
ffffffff8000caac: 8a 45 ef             	mov	al, byte ptr [rbp - 17]
ffffffff8000caaf: 24 01                	and	al, 1
ffffffff8000cab1: 0f b6 c0             	movzx	eax, al
ffffffff8000cab4: 48 83 c4 18          	add	rsp, 24
ffffffff8000cab8: 5d                   	pop	rbp
ffffffff8000cab9: c3                   	ret
ffffffff8000caba: cc                   	int3
ffffffff8000cabb: cc                   	int3
ffffffff8000cabc: cc                   	int3
ffffffff8000cabd: cc                   	int3
ffffffff8000cabe: cc                   	int3
ffffffff8000cabf: cc                   	int3

ffffffff8000cac0 <_ZN4core6result19Result$LT$T$C$E$GT$6expect17h52d4c62fa570346cE>:
ffffffff8000cac0: 55                   	push	rbp
ffffffff8000cac1: 48 89 e5             	mov	rbp, rsp
ffffffff8000cac4: 48 83 ec 50          	sub	rsp, 80
ffffffff8000cac8: 4c 89 45 b8          	mov	qword ptr [rbp - 72], r8
ffffffff8000cacc: 48 89 4d c0          	mov	qword ptr [rbp - 64], rcx
ffffffff8000cad0: 48 89 55 c8          	mov	qword ptr [rbp - 56], rdx
ffffffff8000cad4: 48 89 7d d0          	mov	qword ptr [rbp - 48], rdi
ffffffff8000cad8: 48 89 75 d8          	mov	qword ptr [rbp - 40], rsi
ffffffff8000cadc: 48 89 55 e8          	mov	qword ptr [rbp - 24], rdx
ffffffff8000cae0: 48 89 4d f0          	mov	qword ptr [rbp - 16], rcx
ffffffff8000cae4: 48 83 7d d0 00       	cmp	qword ptr [rbp - 48], 0
ffffffff8000cae9: 75 0e                	jne	0xffffffff8000caf9 <_ZN4core6result19Result$LT$T$C$E$GT$6expect17h52d4c62fa570346cE+0x39>
ffffffff8000caeb: 48 8b 45 d8          	mov	rax, qword ptr [rbp - 40]
ffffffff8000caef: 48 89 45 f8          	mov	qword ptr [rbp - 8], rax
ffffffff8000caf3: 48 83 c4 50          	add	rsp, 80
ffffffff8000caf7: 5d                   	pop	rbp
ffffffff8000caf8: c3                   	ret
ffffffff8000caf9: 4c 8b 45 b8          	mov	r8, qword ptr [rbp - 72]
ffffffff8000cafd: 48 8b 75 c0          	mov	rsi, qword ptr [rbp - 64]
ffffffff8000cb01: 48 8b 7d c8          	mov	rdi, qword ptr [rbp - 56]
ffffffff8000cb05: 48 8b 45 d8          	mov	rax, qword ptr [rbp - 40]
ffffffff8000cb09: 48 89 45 e0          	mov	qword ptr [rbp - 32], rax
ffffffff8000cb0d: 48 8d 0d 9c 51 00 00 	lea	rcx, [rip + 20892]      # 0xffffffff80011cb0 <xr6aouzjkjmurg0+0xffffffff80011cb0>
ffffffff8000cb14: 48 8b 05 35 56 00 00 	mov	rax, qword ptr [rip + 22069] # 0xffffffff80012150 <xr6aouzjkjmurg0+0xffffffff80012150>
ffffffff8000cb1b: 48 8d 55 e0          	lea	rdx, [rbp - 32]
ffffffff8000cb1f: ff d0                	call	rax
ffffffff8000cb21: 0f 0b                	ud2
ffffffff8000cb23: cc                   	int3
ffffffff8000cb24: cc                   	int3
ffffffff8000cb25: cc                   	int3
ffffffff8000cb26: cc                   	int3
ffffffff8000cb27: cc                   	int3
ffffffff8000cb28: cc                   	int3
ffffffff8000cb29: cc                   	int3
ffffffff8000cb2a: cc                   	int3
ffffffff8000cb2b: cc                   	int3
ffffffff8000cb2c: cc                   	int3
ffffffff8000cb2d: cc                   	int3
ffffffff8000cb2e: cc                   	int3
ffffffff8000cb2f: cc                   	int3

ffffffff8000cb30 <_ZN79_$LT$core..result..Result$LT$T$C$E$GT$$u20$as$u20$core..ops..try_trait..Try$GT$6branch17h3e3f4d8af0e4bdd3E>:
ffffffff8000cb30: 55                   	push	rbp
ffffffff8000cb31: 48 89 e5             	mov	rbp, rsp
ffffffff8000cb34: 48 83 ec 20          	sub	rsp, 32
ffffffff8000cb38: 40 88 f8             	mov	al, dil
ffffffff8000cb3b: 24 01                	and	al, 1
ffffffff8000cb3d: 88 45 e6             	mov	byte ptr [rbp - 26], al
ffffffff8000cb40: 8a 45 e6             	mov	al, byte ptr [rbp - 26]
ffffffff8000cb43: 24 01                	and	al, 1
ffffffff8000cb45: 0f b6 c0             	movzx	eax, al
ffffffff8000cb48: 48 83 f8 00          	cmp	rax, 0
ffffffff8000cb4c: 75 06                	jne	0xffffffff8000cb54 <_ZN79_$LT$core..result..Result$LT$T$C$E$GT$$u20$as$u20$core..ops..try_trait..Try$GT$6branch17h3e3f4d8af0e4bdd3E+0x24>
ffffffff8000cb4e: c6 45 e7 00          	mov	byte ptr [rbp - 25], 0
ffffffff8000cb52: eb 04                	jmp	0xffffffff8000cb58 <_ZN79_$LT$core..result..Result$LT$T$C$E$GT$$u20$as$u20$core..ops..try_trait..Try$GT$6branch17h3e3f4d8af0e4bdd3E+0x28>
ffffffff8000cb54: c6 45 e7 01          	mov	byte ptr [rbp - 25], 1
ffffffff8000cb58: 8a 45 e7             	mov	al, byte ptr [rbp - 25]
ffffffff8000cb5b: 24 01                	and	al, 1
ffffffff8000cb5d: 0f b6 c0             	movzx	eax, al
ffffffff8000cb60: 48 83 c4 20          	add	rsp, 32
ffffffff8000cb64: 5d                   	pop	rbp
ffffffff8000cb65: c3                   	ret
ffffffff8000cb66: cc                   	int3
ffffffff8000cb67: cc                   	int3
ffffffff8000cb68: cc                   	int3
ffffffff8000cb69: cc                   	int3
ffffffff8000cb6a: cc                   	int3
ffffffff8000cb6b: cc                   	int3
ffffffff8000cb6c: cc                   	int3
ffffffff8000cb6d: cc                   	int3
ffffffff8000cb6e: cc                   	int3
ffffffff8000cb6f: cc                   	int3

ffffffff8000cb70 <_ZN42_$LT$$RF$T$u20$as$u20$core..fmt..Debug$GT$3fmt17h4a845c484dd59f02E>:
ffffffff8000cb70: 55                   	push	rbp
ffffffff8000cb71: 48 89 e5             	mov	rbp, rsp
ffffffff8000cb74: 48 83 ec 10          	sub	rsp, 16
ffffffff8000cb78: 48 89 7d f0          	mov	qword ptr [rbp - 16], rdi
ffffffff8000cb7c: 48 89 75 f8          	mov	qword ptr [rbp - 8], rsi
ffffffff8000cb80: 48 8b 3f             	mov	rdi, qword ptr [rdi]
ffffffff8000cb83: e8 68 00 00 00       	call	0xffffffff8000cbf0 <_ZN4core3fmt3num52_$LT$impl$u20$core..fmt..Debug$u20$for$u20$usize$GT$3fmt17hc27d2f14923159c9E>
ffffffff8000cb88: 24 01                	and	al, 1
ffffffff8000cb8a: 0f b6 c0             	movzx	eax, al
ffffffff8000cb8d: 48 83 c4 10          	add	rsp, 16
ffffffff8000cb91: 5d                   	pop	rbp
ffffffff8000cb92: c3                   	ret
ffffffff8000cb93: cc                   	int3
ffffffff8000cb94: cc                   	int3
ffffffff8000cb95: cc                   	int3
ffffffff8000cb96: cc                   	int3
ffffffff8000cb97: cc                   	int3
ffffffff8000cb98: cc                   	int3
ffffffff8000cb99: cc                   	int3
ffffffff8000cb9a: cc                   	int3
ffffffff8000cb9b: cc                   	int3
ffffffff8000cb9c: cc                   	int3
ffffffff8000cb9d: cc                   	int3
ffffffff8000cb9e: cc                   	int3
ffffffff8000cb9f: cc                   	int3

ffffffff8000cba0 <_ZN4core3fmt10ArgumentV113new_lower_hex17hbdfcb01cee4485faE>:
ffffffff8000cba0: 55                   	push	rbp
ffffffff8000cba1: 48 89 e5             	mov	rbp, rsp
ffffffff8000cba4: 48 83 ec 38          	sub	rsp, 56
ffffffff8000cba8: 48 89 7d d8          	mov	qword ptr [rbp - 40], rdi
ffffffff8000cbac: 48 89 7d e0          	mov	qword ptr [rbp - 32], rdi
ffffffff8000cbb0: 48 8b 05 51 56 00 00 	mov	rax, qword ptr [rip + 22097] # 0xffffffff80012208 <xr6aouzjkjmurg0+0xffffffff80012208>
ffffffff8000cbb7: 48 89 45 e8          	mov	qword ptr [rbp - 24], rax
ffffffff8000cbbb: 48 89 45 f0          	mov	qword ptr [rbp - 16], rax
ffffffff8000cbbf: 48 8b 45 f0          	mov	rax, qword ptr [rbp - 16]
ffffffff8000cbc3: 48 89 7d f8          	mov	qword ptr [rbp - 8], rdi
ffffffff8000cbc7: 48 8b 4d f8          	mov	rcx, qword ptr [rbp - 8]
ffffffff8000cbcb: 48 89 4d c8          	mov	qword ptr [rbp - 56], rcx
ffffffff8000cbcf: 48 89 45 d0          	mov	qword ptr [rbp - 48], rax
ffffffff8000cbd3: 48 8b 45 c8          	mov	rax, qword ptr [rbp - 56]
ffffffff8000cbd7: 48 8b 55 d0          	mov	rdx, qword ptr [rbp - 48]
ffffffff8000cbdb: 48 83 c4 38          	add	rsp, 56
ffffffff8000cbdf: 5d                   	pop	rbp
ffffffff8000cbe0: c3                   	ret
ffffffff8000cbe1: cc                   	int3
ffffffff8000cbe2: cc                   	int3
ffffffff8000cbe3: cc                   	int3
ffffffff8000cbe4: cc                   	int3
ffffffff8000cbe5: cc                   	int3
ffffffff8000cbe6: cc                   	int3
ffffffff8000cbe7: cc                   	int3
ffffffff8000cbe8: cc                   	int3
ffffffff8000cbe9: cc                   	int3
ffffffff8000cbea: cc                   	int3
ffffffff8000cbeb: cc                   	int3
ffffffff8000cbec: cc                   	int3
ffffffff8000cbed: cc                   	int3
ffffffff8000cbee: cc                   	int3
ffffffff8000cbef: cc                   	int3

ffffffff8000cbf0 <_ZN4core3fmt3num52_$LT$impl$u20$core..fmt..Debug$u20$for$u20$usize$GT$3fmt17hc27d2f14923159c9E>:
ffffffff8000cbf0: 55                   	push	rbp
ffffffff8000cbf1: 48 89 e5             	mov	rbp, rsp
ffffffff8000cbf4: 48 83 ec 30          	sub	rsp, 48
ffffffff8000cbf8: 48 89 75 d8          	mov	qword ptr [rbp - 40], rsi
ffffffff8000cbfc: 48 89 f8             	mov	rax, rdi
ffffffff8000cbff: 48 8b 7d d8          	mov	rdi, qword ptr [rbp - 40]
ffffffff8000cc03: 48 89 45 e0          	mov	qword ptr [rbp - 32], rax
ffffffff8000cc07: 48 89 45 f0          	mov	qword ptr [rbp - 16], rax
ffffffff8000cc0b: 48 89 7d f8          	mov	qword ptr [rbp - 8], rdi
ffffffff8000cc0f: 48 8b 05 12 56 00 00 	mov	rax, qword ptr [rip + 22034] # 0xffffffff80012228 <xr6aouzjkjmurg0+0xffffffff80012228>
ffffffff8000cc16: ff d0                	call	rax
ffffffff8000cc18: a8 01                	test	al, 1
ffffffff8000cc1a: 75 13                	jne	0xffffffff8000cc2f <_ZN4core3fmt3num52_$LT$impl$u20$core..fmt..Debug$u20$for$u20$usize$GT$3fmt17hc27d2f14923159c9E+0x3f>
ffffffff8000cc1c: 48 8b 7d d8          	mov	rdi, qword ptr [rbp - 40]
ffffffff8000cc20: 48 8b 05 09 56 00 00 	mov	rax, qword ptr [rip + 22025] # 0xffffffff80012230 <xr6aouzjkjmurg0+0xffffffff80012230>
ffffffff8000cc27: ff d0                	call	rax
ffffffff8000cc29: a8 01                	test	al, 1
ffffffff8000cc2b: 75 3e                	jne	0xffffffff8000cc6b <_ZN4core3fmt3num52_$LT$impl$u20$core..fmt..Debug$u20$for$u20$usize$GT$3fmt17hc27d2f14923159c9E+0x7b>
ffffffff8000cc2d: eb 24                	jmp	0xffffffff8000cc53 <_ZN4core3fmt3num52_$LT$impl$u20$core..fmt..Debug$u20$for$u20$usize$GT$3fmt17hc27d2f14923159c9E+0x63>
ffffffff8000cc2f: 48 8b 75 d8          	mov	rsi, qword ptr [rbp - 40]
ffffffff8000cc33: 48 8b 7d e0          	mov	rdi, qword ptr [rbp - 32]
ffffffff8000cc37: 48 8b 05 02 56 00 00 	mov	rax, qword ptr [rip + 22018] # 0xffffffff80012240 <xr6aouzjkjmurg0+0xffffffff80012240>
ffffffff8000cc3e: ff d0                	call	rax
ffffffff8000cc40: 24 01                	and	al, 1
ffffffff8000cc42: 88 45 ef             	mov	byte ptr [rbp - 17], al
ffffffff8000cc45: 8a 45 ef             	mov	al, byte ptr [rbp - 17]
ffffffff8000cc48: 24 01                	and	al, 1
ffffffff8000cc4a: 0f b6 c0             	movzx	eax, al
ffffffff8000cc4d: 48 83 c4 30          	add	rsp, 48
ffffffff8000cc51: 5d                   	pop	rbp
ffffffff8000cc52: c3                   	ret
ffffffff8000cc53: 48 8b 75 d8          	mov	rsi, qword ptr [rbp - 40]
ffffffff8000cc57: 48 8b 7d e0          	mov	rdi, qword ptr [rbp - 32]
ffffffff8000cc5b: 48 8b 05 1e 55 00 00 	mov	rax, qword ptr [rip + 21790] # 0xffffffff80012180 <xr6aouzjkjmurg0+0xffffffff80012180>
ffffffff8000cc62: ff d0                	call	rax
ffffffff8000cc64: 24 01                	and	al, 1
ffffffff8000cc66: 88 45 ef             	mov	byte ptr [rbp - 17], al
ffffffff8000cc69: eb 16                	jmp	0xffffffff8000cc81 <_ZN4core3fmt3num52_$LT$impl$u20$core..fmt..Debug$u20$for$u20$usize$GT$3fmt17hc27d2f14923159c9E+0x91>
ffffffff8000cc6b: 48 8b 75 d8          	mov	rsi, qword ptr [rbp - 40]
ffffffff8000cc6f: 48 8b 7d e0          	mov	rdi, qword ptr [rbp - 32]
ffffffff8000cc73: 48 8b 05 46 55 00 00 	mov	rax, qword ptr [rip + 21830] # 0xffffffff800121c0 <xr6aouzjkjmurg0+0xffffffff800121c0>
ffffffff8000cc7a: ff d0                	call	rax
ffffffff8000cc7c: 24 01                	and	al, 1
ffffffff8000cc7e: 88 45 ef             	mov	byte ptr [rbp - 17], al
ffffffff8000cc81: eb c2                	jmp	0xffffffff8000cc45 <_ZN4core3fmt3num52_$LT$impl$u20$core..fmt..Debug$u20$for$u20$usize$GT$3fmt17hc27d2f14923159c9E+0x55>
ffffffff8000cc83: cc                   	int3
ffffffff8000cc84: cc                   	int3
ffffffff8000cc85: cc                   	int3
ffffffff8000cc86: cc                   	int3
ffffffff8000cc87: cc                   	int3
ffffffff8000cc88: cc                   	int3
ffffffff8000cc89: cc                   	int3
ffffffff8000cc8a: cc                   	int3
ffffffff8000cc8b: cc                   	int3
ffffffff8000cc8c: cc                   	int3
ffffffff8000cc8d: cc                   	int3
ffffffff8000cc8e: cc                   	int3
ffffffff8000cc8f: cc                   	int3

ffffffff8000cc90 <_ZN4core3fmt9Arguments16new_v1_formatted17hcfaadfd26533ceb6E>:
ffffffff8000cc90: 55                   	push	rbp
ffffffff8000cc91: 48 89 e5             	mov	rbp, rsp
ffffffff8000cc94: 48 83 ec 48          	sub	rsp, 72
ffffffff8000cc98: 4d 89 ca             	mov	r10, r9
ffffffff8000cc9b: 48 89 f8             	mov	rax, rdi
ffffffff8000cc9e: 4c 8b 4d 10          	mov	r9, qword ptr [rbp + 16]
ffffffff8000cca2: 48 89 75 c8          	mov	qword ptr [rbp - 56], rsi
ffffffff8000cca6: 48 89 55 d0          	mov	qword ptr [rbp - 48], rdx
ffffffff8000ccaa: 48 89 4d d8          	mov	qword ptr [rbp - 40], rcx
ffffffff8000ccae: 4c 89 45 e0          	mov	qword ptr [rbp - 32], r8
ffffffff8000ccb2: 4c 89 55 e8          	mov	qword ptr [rbp - 24], r10
ffffffff8000ccb6: 4c 89 4d f0          	mov	qword ptr [rbp - 16], r9
ffffffff8000ccba: 4c 89 55 b8          	mov	qword ptr [rbp - 72], r10
ffffffff8000ccbe: 4c 89 4d c0          	mov	qword ptr [rbp - 64], r9
ffffffff8000ccc2: 48 89 77 10          	mov	qword ptr [rdi + 16], rsi
ffffffff8000ccc6: 48 89 57 18          	mov	qword ptr [rdi + 24], rdx
ffffffff8000ccca: 48 8b 75 b8          	mov	rsi, qword ptr [rbp - 72]
ffffffff8000ccce: 48 8b 55 c0          	mov	rdx, qword ptr [rbp - 64]
ffffffff8000ccd2: 48 89 37             	mov	qword ptr [rdi], rsi
ffffffff8000ccd5: 48 89 57 08          	mov	qword ptr [rdi + 8], rdx
ffffffff8000ccd9: 48 89 4f 20          	mov	qword ptr [rdi + 32], rcx
ffffffff8000ccdd: 4c 89 47 28          	mov	qword ptr [rdi + 40], r8
ffffffff8000cce1: 48 83 c4 48          	add	rsp, 72
ffffffff8000cce5: 5d                   	pop	rbp
ffffffff8000cce6: c3                   	ret
ffffffff8000cce7: cc                   	int3
ffffffff8000cce8: cc                   	int3
ffffffff8000cce9: cc                   	int3
ffffffff8000ccea: cc                   	int3
ffffffff8000cceb: cc                   	int3
ffffffff8000ccec: cc                   	int3
ffffffff8000cced: cc                   	int3
ffffffff8000ccee: cc                   	int3
ffffffff8000ccef: cc                   	int3

ffffffff8000ccf0 <_ZN4core3ptr41drop_in_place$LT$core..fmt..Arguments$GT$17hff5df2b9562f515eE>:
ffffffff8000ccf0: 55                   	push	rbp
ffffffff8000ccf1: 48 89 e5             	mov	rbp, rsp
ffffffff8000ccf4: 50                   	push	rax
ffffffff8000ccf5: 48 89 7d f8          	mov	qword ptr [rbp - 8], rdi
ffffffff8000ccf9: 48 83 c4 08          	add	rsp, 8
ffffffff8000ccfd: 5d                   	pop	rbp
ffffffff8000ccfe: c3                   	ret
ffffffff8000ccff: cc                   	int3

ffffffff8000cd00 <_ZN4core3ptr51drop_in_place$LT$x86_64..addr..VirtAddrNotValid$GT$17hbc25a8e8597ece14E>:
ffffffff8000cd00: 55                   	push	rbp
ffffffff8000cd01: 48 89 e5             	mov	rbp, rsp
ffffffff8000cd04: 50                   	push	rax
ffffffff8000cd05: 48 89 7d f8          	mov	qword ptr [rbp - 8], rdi
ffffffff8000cd09: 48 83 c4 08          	add	rsp, 8
ffffffff8000cd0d: 5d                   	pop	rbp
ffffffff8000cd0e: c3                   	ret
ffffffff8000cd0f: cc                   	int3

ffffffff8000cd10 <_ZN91_$LT$core..ops..range..Range$LT$T$GT$$u20$as$u20$core..ops..range..RangeBounds$LT$T$GT$$GT$11start_bound17h4ca9fdd81dff11aeE>:
ffffffff8000cd10: 55                   	push	rbp
ffffffff8000cd11: 48 89 e5             	mov	rbp, rsp
ffffffff8000cd14: 48 83 ec 18          	sub	rsp, 24
ffffffff8000cd18: 48 89 7d f8          	mov	qword ptr [rbp - 8], rdi
ffffffff8000cd1c: 48 89 7d f0          	mov	qword ptr [rbp - 16], rdi
ffffffff8000cd20: 48 c7 45 e8 00 00 00 00      	mov	qword ptr [rbp - 24], 0
ffffffff8000cd28: 48 8b 45 e8          	mov	rax, qword ptr [rbp - 24]
ffffffff8000cd2c: 48 8b 55 f0          	mov	rdx, qword ptr [rbp - 16]
ffffffff8000cd30: 48 83 c4 18          	add	rsp, 24
ffffffff8000cd34: 5d                   	pop	rbp
ffffffff8000cd35: c3                   	ret
ffffffff8000cd36: cc                   	int3
ffffffff8000cd37: cc                   	int3
ffffffff8000cd38: cc                   	int3
ffffffff8000cd39: cc                   	int3
ffffffff8000cd3a: cc                   	int3
ffffffff8000cd3b: cc                   	int3
ffffffff8000cd3c: cc                   	int3
ffffffff8000cd3d: cc                   	int3
ffffffff8000cd3e: cc                   	int3
ffffffff8000cd3f: cc                   	int3

ffffffff8000cd40 <_ZN91_$LT$core..ops..range..Range$LT$T$GT$$u20$as$u20$core..ops..range..RangeBounds$LT$T$GT$$GT$9end_bound17hae131b02d30ef17aE>:
ffffffff8000cd40: 55                   	push	rbp
ffffffff8000cd41: 48 89 e5             	mov	rbp, rsp
ffffffff8000cd44: 48 83 ec 18          	sub	rsp, 24
ffffffff8000cd48: 48 89 7d f8          	mov	qword ptr [rbp - 8], rdi
ffffffff8000cd4c: 48 83 c7 08          	add	rdi, 8
ffffffff8000cd50: 48 89 7d f0          	mov	qword ptr [rbp - 16], rdi
ffffffff8000cd54: 48 c7 45 e8 01 00 00 00      	mov	qword ptr [rbp - 24], 1
ffffffff8000cd5c: 48 8b 45 e8          	mov	rax, qword ptr [rbp - 24]
ffffffff8000cd60: 48 8b 55 f0          	mov	rdx, qword ptr [rbp - 16]
ffffffff8000cd64: 48 83 c4 18          	add	rsp, 24
ffffffff8000cd68: 5d                   	pop	rbp
ffffffff8000cd69: c3                   	ret
ffffffff8000cd6a: cc                   	int3
ffffffff8000cd6b: cc                   	int3
ffffffff8000cd6c: cc                   	int3
ffffffff8000cd6d: cc                   	int3
ffffffff8000cd6e: cc                   	int3
ffffffff8000cd6f: cc                   	int3

ffffffff8000cd70 <_ZN6x86_6412instructions12segmentation106_$LT$impl$u20$x86_64..registers..segmentation..Segment$u20$for$u20$x86_64..registers..segmentation..CS$GT$7get_reg17h44abac6ef3c6262fE>:
ffffffff8000cd70: 55                   	push	rbp
ffffffff8000cd71: 48 89 e5             	mov	rbp, rsp
ffffffff8000cd74: 48 83 ec 04          	sub	rsp, 4
ffffffff8000cd78: 8c c8                	mov	eax, cs
ffffffff8000cd7a: 66 89 45 fe          	mov	word ptr [rbp - 2], ax
ffffffff8000cd7e: 66 8b 45 fe          	mov	ax, word ptr [rbp - 2]
ffffffff8000cd82: 66 89 45 fc          	mov	word ptr [rbp - 4], ax
ffffffff8000cd86: 66 8b 45 fc          	mov	ax, word ptr [rbp - 4]
ffffffff8000cd8a: 48 83 c4 04          	add	rsp, 4
ffffffff8000cd8e: 5d                   	pop	rbp
ffffffff8000cd8f: c3                   	ret

ffffffff8000cd90 <_ZN43_$LT$u64$u20$as$u20$bit_field..BitField$GT$8get_bits17h262a50710f3bcc1aE>:
ffffffff8000cd90: 55                   	push	rbp
ffffffff8000cd91: 48 89 e5             	mov	rbp, rsp
ffffffff8000cd94: 48 81 ec 80 00 00 00 	sub	rsp, 128
ffffffff8000cd9b: 48 89 7d b8          	mov	qword ptr [rbp - 72], rdi
ffffffff8000cd9f: 48 89 75 d0          	mov	qword ptr [rbp - 48], rsi
ffffffff8000cda3: 48 89 55 d8          	mov	qword ptr [rbp - 40], rdx
ffffffff8000cda7: 48 89 7d e0          	mov	qword ptr [rbp - 32], rdi
ffffffff8000cdab: 48 8b 05 96 54 00 00 	mov	rax, qword ptr [rip + 21654] # 0xffffffff80012248 <xr6aouzjkjmurg0+0xffffffff80012248>
ffffffff8000cdb2: 48 8d 7d d0          	lea	rdi, [rbp - 48]
ffffffff8000cdb6: be 40 00 00 00       	mov	esi, 64
ffffffff8000cdbb: ff d0                	call	rax
ffffffff8000cdbd: 48 89 55 c0          	mov	qword ptr [rbp - 64], rdx
ffffffff8000cdc1: 48 89 45 c8          	mov	qword ptr [rbp - 56], rax
ffffffff8000cdc5: 48 89 45 e8          	mov	qword ptr [rbp - 24], rax
ffffffff8000cdc9: 48 89 55 f0          	mov	qword ptr [rbp - 16], rdx
ffffffff8000cdcd: 48 83 f8 40          	cmp	rax, 64
ffffffff8000cdd1: 0f 92 c0             	setb	al
ffffffff8000cdd4: 34 ff                	xor	al, -1
ffffffff8000cdd6: a8 01                	test	al, 1
ffffffff8000cdd8: 75 13                	jne	0xffffffff8000cded <_ZN43_$LT$u64$u20$as$u20$bit_field..BitField$GT$8get_bits17h262a50710f3bcc1aE+0x5d>
ffffffff8000cdda: 48 8b 45 c0          	mov	rax, qword ptr [rbp - 64]
ffffffff8000cdde: 48 83 f8 40          	cmp	rax, 64
ffffffff8000cde2: 0f 96 c0             	setbe	al
ffffffff8000cde5: 34 ff                	xor	al, -1
ffffffff8000cde7: a8 01                	test	al, 1
ffffffff8000cde9: 75 36                	jne	0xffffffff8000ce21 <_ZN43_$LT$u64$u20$as$u20$bit_field..BitField$GT$8get_bits17h262a50710f3bcc1aE+0x91>
ffffffff8000cdeb: eb 1e                	jmp	0xffffffff8000ce0b <_ZN43_$LT$u64$u20$as$u20$bit_field..BitField$GT$8get_bits17h262a50710f3bcc1aE+0x7b>
ffffffff8000cded: 48 8d 3d fb 54 ff ff 	lea	rdi, [rip - 43781]      # 0xffffffff800022ef <str.0+0xff>
ffffffff8000cdf4: 48 8d 15 d5 4e 00 00 	lea	rdx, [rip + 20181]      # 0xffffffff80011cd0 <xr6aouzjkjmurg0+0xffffffff80011cd0>
ffffffff8000cdfb: 48 8b 05 de 52 00 00 	mov	rax, qword ptr [rip + 21214] # 0xffffffff800120e0 <xr6aouzjkjmurg0+0xffffffff800120e0>
ffffffff8000ce02: be 30 00 00 00       	mov	esi, 48
ffffffff8000ce07: ff d0                	call	rax
ffffffff8000ce09: 0f 0b                	ud2
ffffffff8000ce0b: 48 8b 45 c8          	mov	rax, qword ptr [rbp - 56]
ffffffff8000ce0f: 48 8b 4d c0          	mov	rcx, qword ptr [rbp - 64]
ffffffff8000ce13: 48 39 c8             	cmp	rax, rcx
ffffffff8000ce16: 0f 92 c0             	setb	al
ffffffff8000ce19: 34 ff                	xor	al, -1
ffffffff8000ce1b: a8 01                	test	al, 1
ffffffff8000ce1d: 75 4c                	jne	0xffffffff8000ce6b <_ZN43_$LT$u64$u20$as$u20$bit_field..BitField$GT$8get_bits17h262a50710f3bcc1aE+0xdb>
ffffffff8000ce1f: eb 1e                	jmp	0xffffffff8000ce3f <_ZN43_$LT$u64$u20$as$u20$bit_field..BitField$GT$8get_bits17h262a50710f3bcc1aE+0xaf>
ffffffff8000ce21: 48 8d 3d 4d 55 ff ff 	lea	rdi, [rip - 43699]      # 0xffffffff80002375 <str.0+0x185>
ffffffff8000ce28: 48 8d 15 a1 4e 00 00 	lea	rdx, [rip + 20129]      # 0xffffffff80011cd0 <xr6aouzjkjmurg0+0xffffffff80011cd0>
ffffffff8000ce2f: 48 8b 05 aa 52 00 00 	mov	rax, qword ptr [rip + 21162] # 0xffffffff800120e0 <xr6aouzjkjmurg0+0xffffffff800120e0>
ffffffff8000ce36: be 2f 00 00 00       	mov	esi, 47
ffffffff8000ce3b: ff d0                	call	rax
ffffffff8000ce3d: 0f 0b                	ud2
ffffffff8000ce3f: 48 8b 4d c0          	mov	rcx, qword ptr [rbp - 64]
ffffffff8000ce43: 48 8b 45 b8          	mov	rax, qword ptr [rbp - 72]
ffffffff8000ce47: 48 8b 00             	mov	rax, qword ptr [rax]
ffffffff8000ce4a: 48 89 45 a8          	mov	qword ptr [rbp - 88], rax
ffffffff8000ce4e: b8 40 00 00 00       	mov	eax, 64
ffffffff8000ce53: 48 29 c8             	sub	rax, rcx
ffffffff8000ce56: 48 89 45 b0          	mov	qword ptr [rbp - 80], rax
ffffffff8000ce5a: b8 40 00 00 00       	mov	eax, 64
ffffffff8000ce5f: 48 39 c8             	cmp	rax, rcx
ffffffff8000ce62: 0f 92 c0             	setb	al
ffffffff8000ce65: a8 01                	test	al, 1
ffffffff8000ce67: 75 47                	jne	0xffffffff8000ceb0 <_ZN43_$LT$u64$u20$as$u20$bit_field..BitField$GT$8get_bits17h262a50710f3bcc1aE+0x120>
ffffffff8000ce69: eb 1e                	jmp	0xffffffff8000ce89 <_ZN43_$LT$u64$u20$as$u20$bit_field..BitField$GT$8get_bits17h262a50710f3bcc1aE+0xf9>
ffffffff8000ce6b: 48 8d 3d 32 55 ff ff 	lea	rdi, [rip - 43726]      # 0xffffffff800023a4 <str.0+0x1b4>
ffffffff8000ce72: 48 8d 15 57 4e 00 00 	lea	rdx, [rip + 20055]      # 0xffffffff80011cd0 <xr6aouzjkjmurg0+0xffffffff80011cd0>
ffffffff8000ce79: 48 8b 05 60 52 00 00 	mov	rax, qword ptr [rip + 21088] # 0xffffffff800120e0 <xr6aouzjkjmurg0+0xffffffff800120e0>
ffffffff8000ce80: be 29 00 00 00       	mov	esi, 41
ffffffff8000ce85: ff d0                	call	rax
ffffffff8000ce87: 0f 0b                	ud2
ffffffff8000ce89: 48 8b 55 a8          	mov	rdx, qword ptr [rbp - 88]
ffffffff8000ce8d: 48 8b 4d b0          	mov	rcx, qword ptr [rbp - 80]
ffffffff8000ce91: 48 89 c8             	mov	rax, rcx
ffffffff8000ce94: 48 83 e0 c0          	and	rax, -64
ffffffff8000ce98: 48 83 f8 00          	cmp	rax, 0
ffffffff8000ce9c: 0f 95 c0             	setne	al
ffffffff8000ce9f: 48 83 e1 3f          	and	rcx, 63
ffffffff8000cea3: 48 d3 e2             	shl	rdx, cl
ffffffff8000cea6: 48 89 55 a0          	mov	qword ptr [rbp - 96], rdx
ffffffff8000ceaa: a8 01                	test	al, 1
ffffffff8000ceac: 75 41                	jne	0xffffffff8000ceef <_ZN43_$LT$u64$u20$as$u20$bit_field..BitField$GT$8get_bits17h262a50710f3bcc1aE+0x15f>
ffffffff8000ceae: eb 1e                	jmp	0xffffffff8000cece <_ZN43_$LT$u64$u20$as$u20$bit_field..BitField$GT$8get_bits17h262a50710f3bcc1aE+0x13e>
ffffffff8000ceb0: 48 8d 3d 19 55 ff ff 	lea	rdi, [rip - 43751]      # 0xffffffff800023d0 <str.0>
ffffffff8000ceb7: 48 8d 15 12 4e 00 00 	lea	rdx, [rip + 19986]      # 0xffffffff80011cd0 <xr6aouzjkjmurg0+0xffffffff80011cd0>
ffffffff8000cebe: 48 8b 05 1b 52 00 00 	mov	rax, qword ptr [rip + 21019] # 0xffffffff800120e0 <xr6aouzjkjmurg0+0xffffffff800120e0>
ffffffff8000cec5: be 21 00 00 00       	mov	esi, 33
ffffffff8000ceca: ff d0                	call	rax
ffffffff8000cecc: 0f 0b                	ud2
ffffffff8000cece: 48 8b 4d c0          	mov	rcx, qword ptr [rbp - 64]
ffffffff8000ced2: b8 40 00 00 00       	mov	eax, 64
ffffffff8000ced7: 48 29 c8             	sub	rax, rcx
ffffffff8000ceda: 48 89 45 98          	mov	qword ptr [rbp - 104], rax
ffffffff8000cede: b8 40 00 00 00       	mov	eax, 64
ffffffff8000cee3: 48 39 c8             	cmp	rax, rcx
ffffffff8000cee6: 0f 92 c0             	setb	al
ffffffff8000cee9: a8 01                	test	al, 1
ffffffff8000ceeb: 75 47                	jne	0xffffffff8000cf34 <_ZN43_$LT$u64$u20$as$u20$bit_field..BitField$GT$8get_bits17h262a50710f3bcc1aE+0x1a4>
ffffffff8000ceed: eb 1e                	jmp	0xffffffff8000cf0d <_ZN43_$LT$u64$u20$as$u20$bit_field..BitField$GT$8get_bits17h262a50710f3bcc1aE+0x17d>
ffffffff8000ceef: 48 8d 3d 0a 55 ff ff 	lea	rdi, [rip - 43766]      # 0xffffffff80002400 <str.1>
ffffffff8000cef6: 48 8d 15 d3 4d 00 00 	lea	rdx, [rip + 19923]      # 0xffffffff80011cd0 <xr6aouzjkjmurg0+0xffffffff80011cd0>
ffffffff8000cefd: 48 8b 05 dc 51 00 00 	mov	rax, qword ptr [rip + 20956] # 0xffffffff800120e0 <xr6aouzjkjmurg0+0xffffffff800120e0>
ffffffff8000cf04: be 23 00 00 00       	mov	esi, 35
ffffffff8000cf09: ff d0                	call	rax
ffffffff8000cf0b: 0f 0b                	ud2
ffffffff8000cf0d: 48 8b 55 a0          	mov	rdx, qword ptr [rbp - 96]
ffffffff8000cf11: 48 8b 4d 98          	mov	rcx, qword ptr [rbp - 104]
ffffffff8000cf15: 48 89 c8             	mov	rax, rcx
ffffffff8000cf18: 48 83 e0 c0          	and	rax, -64
ffffffff8000cf1c: 48 83 f8 00          	cmp	rax, 0
ffffffff8000cf20: 0f 95 c0             	setne	al
ffffffff8000cf23: 48 83 e1 3f          	and	rcx, 63
ffffffff8000cf27: 48 d3 ea             	shr	rdx, cl
ffffffff8000cf2a: 48 89 55 90          	mov	qword ptr [rbp - 112], rdx
ffffffff8000cf2e: a8 01                	test	al, 1
ffffffff8000cf30: 75 4b                	jne	0xffffffff8000cf7d <_ZN43_$LT$u64$u20$as$u20$bit_field..BitField$GT$8get_bits17h262a50710f3bcc1aE+0x1ed>
ffffffff8000cf32: eb 1e                	jmp	0xffffffff8000cf52 <_ZN43_$LT$u64$u20$as$u20$bit_field..BitField$GT$8get_bits17h262a50710f3bcc1aE+0x1c2>
ffffffff8000cf34: 48 8d 3d 95 54 ff ff 	lea	rdi, [rip - 43883]      # 0xffffffff800023d0 <str.0>
ffffffff8000cf3b: 48 8d 15 8e 4d 00 00 	lea	rdx, [rip + 19854]      # 0xffffffff80011cd0 <xr6aouzjkjmurg0+0xffffffff80011cd0>
ffffffff8000cf42: 48 8b 05 97 51 00 00 	mov	rax, qword ptr [rip + 20887] # 0xffffffff800120e0 <xr6aouzjkjmurg0+0xffffffff800120e0>
ffffffff8000cf49: be 21 00 00 00       	mov	esi, 33
ffffffff8000cf4e: ff d0                	call	rax
ffffffff8000cf50: 0f 0b                	ud2
ffffffff8000cf52: 48 8b 55 90          	mov	rdx, qword ptr [rbp - 112]
ffffffff8000cf56: 48 8b 4d c8          	mov	rcx, qword ptr [rbp - 56]
ffffffff8000cf5a: 48 89 55 f8          	mov	qword ptr [rbp - 8], rdx
ffffffff8000cf5e: 48 89 c8             	mov	rax, rcx
ffffffff8000cf61: 48 83 e0 c0          	and	rax, -64
ffffffff8000cf65: 48 83 f8 00          	cmp	rax, 0
ffffffff8000cf69: 0f 95 c0             	setne	al
ffffffff8000cf6c: 48 83 e1 3f          	and	rcx, 63
ffffffff8000cf70: 48 d3 ea             	shr	rdx, cl
ffffffff8000cf73: 48 89 55 88          	mov	qword ptr [rbp - 120], rdx
ffffffff8000cf77: a8 01                	test	al, 1
ffffffff8000cf79: 75 2d                	jne	0xffffffff8000cfa8 <_ZN43_$LT$u64$u20$as$u20$bit_field..BitField$GT$8get_bits17h262a50710f3bcc1aE+0x218>
ffffffff8000cf7b: eb 1e                	jmp	0xffffffff8000cf9b <_ZN43_$LT$u64$u20$as$u20$bit_field..BitField$GT$8get_bits17h262a50710f3bcc1aE+0x20b>
ffffffff8000cf7d: 48 8d 3d ac 54 ff ff 	lea	rdi, [rip - 43860]      # 0xffffffff80002430 <str.2>
ffffffff8000cf84: 48 8d 15 45 4d 00 00 	lea	rdx, [rip + 19781]      # 0xffffffff80011cd0 <xr6aouzjkjmurg0+0xffffffff80011cd0>
ffffffff8000cf8b: 48 8b 05 4e 51 00 00 	mov	rax, qword ptr [rip + 20814] # 0xffffffff800120e0 <xr6aouzjkjmurg0+0xffffffff800120e0>
ffffffff8000cf92: be 24 00 00 00       	mov	esi, 36
ffffffff8000cf97: ff d0                	call	rax
ffffffff8000cf99: 0f 0b                	ud2
ffffffff8000cf9b: 48 8b 45 88          	mov	rax, qword ptr [rbp - 120]
ffffffff8000cf9f: 48 81 c4 80 00 00 00 	add	rsp, 128
ffffffff8000cfa6: 5d                   	pop	rbp
ffffffff8000cfa7: c3                   	ret
ffffffff8000cfa8: 48 8d 3d 81 54 ff ff 	lea	rdi, [rip - 43903]      # 0xffffffff80002430 <str.2>
ffffffff8000cfaf: 48 8d 15 1a 4d 00 00 	lea	rdx, [rip + 19738]      # 0xffffffff80011cd0 <xr6aouzjkjmurg0+0xffffffff80011cd0>
ffffffff8000cfb6: 48 8b 05 23 51 00 00 	mov	rax, qword ptr [rip + 20771] # 0xffffffff800120e0 <xr6aouzjkjmurg0+0xffffffff800120e0>
ffffffff8000cfbd: be 24 00 00 00       	mov	esi, 36
ffffffff8000cfc2: ff d0                	call	rax
ffffffff8000cfc4: 0f 0b                	ud2
ffffffff8000cfc6: cc                   	int3
ffffffff8000cfc7: cc                   	int3
ffffffff8000cfc8: cc                   	int3
ffffffff8000cfc9: cc                   	int3
ffffffff8000cfca: cc                   	int3
ffffffff8000cfcb: cc                   	int3
ffffffff8000cfcc: cc                   	int3
ffffffff8000cfcd: cc                   	int3
ffffffff8000cfce: cc                   	int3
ffffffff8000cfcf: cc                   	int3

ffffffff8000cfd0 <_ZN9bit_field16to_regular_range17h9319edb8a4e85410E>:
ffffffff8000cfd0: 55                   	push	rbp
ffffffff8000cfd1: 48 89 e5             	mov	rbp, rsp
ffffffff8000cfd4: 48 81 ec a0 00 00 00 	sub	rsp, 160
ffffffff8000cfdb: 48 89 b5 78 ff ff ff 	mov	qword ptr [rbp - 136], rsi
ffffffff8000cfe2: 48 89 7d 80          	mov	qword ptr [rbp - 128], rdi
ffffffff8000cfe6: 48 89 7d d0          	mov	qword ptr [rbp - 48], rdi
ffffffff8000cfea: 48 89 75 d8          	mov	qword ptr [rbp - 40], rsi
ffffffff8000cfee: 48 8b 05 1b 52 00 00 	mov	rax, qword ptr [rip + 21019] # 0xffffffff80012210 <xr6aouzjkjmurg0+0xffffffff80012210>
ffffffff8000cff5: ff d0                	call	rax
ffffffff8000cff7: 48 89 55 b0          	mov	qword ptr [rbp - 80], rdx
ffffffff8000cffb: 48 89 45 a8          	mov	qword ptr [rbp - 88], rax
ffffffff8000cfff: 48 8b 45 a8          	mov	rax, qword ptr [rbp - 88]
ffffffff8000d003: 48 89 45 88          	mov	qword ptr [rbp - 120], rax
ffffffff8000d007: 48 85 c0             	test	rax, rax
ffffffff8000d00a: 74 12                	je	0xffffffff8000d01e <_ZN9bit_field16to_regular_range17h9319edb8a4e85410E+0x4e>
ffffffff8000d00c: eb 00                	jmp	0xffffffff8000d00e <_ZN9bit_field16to_regular_range17h9319edb8a4e85410E+0x3e>
ffffffff8000d00e: 48 8b 45 88          	mov	rax, qword ptr [rbp - 120]
ffffffff8000d012: 48 83 e8 01          	sub	rax, 1
ffffffff8000d016: 74 17                	je	0xffffffff8000d02f <_ZN9bit_field16to_regular_range17h9319edb8a4e85410E+0x5f>
ffffffff8000d018: eb 00                	jmp	0xffffffff8000d01a <_ZN9bit_field16to_regular_range17h9319edb8a4e85410E+0x4a>
ffffffff8000d01a: eb 32                	jmp	0xffffffff8000d04e <_ZN9bit_field16to_regular_range17h9319edb8a4e85410E+0x7e>
ffffffff8000d01c: 0f 0b                	ud2
ffffffff8000d01e: 48 8b 45 b0          	mov	rax, qword ptr [rbp - 80]
ffffffff8000d022: 48 8b 00             	mov	rax, qword ptr [rax]
ffffffff8000d025: 48 89 45 e8          	mov	qword ptr [rbp - 24], rax
ffffffff8000d029: 48 89 45 a0          	mov	qword ptr [rbp - 96], rax
ffffffff8000d02d: eb 27                	jmp	0xffffffff8000d056 <_ZN9bit_field16to_regular_range17h9319edb8a4e85410E+0x86>
ffffffff8000d02f: 48 8b 45 b0          	mov	rax, qword ptr [rbp - 80]
ffffffff8000d033: 48 8b 00             	mov	rax, qword ptr [rax]
ffffffff8000d036: 48 89 45 e0          	mov	qword ptr [rbp - 32], rax
ffffffff8000d03a: 48 83 c0 01          	add	rax, 1
ffffffff8000d03e: 48 89 85 70 ff ff ff 	mov	qword ptr [rbp - 144], rax
ffffffff8000d045: 0f 92 c0             	setb	al
ffffffff8000d048: a8 01                	test	al, 1
ffffffff8000d04a: 75 4f                	jne	0xffffffff8000d09b <_ZN9bit_field16to_regular_range17h9319edb8a4e85410E+0xcb>
ffffffff8000d04c: eb 40                	jmp	0xffffffff8000d08e <_ZN9bit_field16to_regular_range17h9319edb8a4e85410E+0xbe>
ffffffff8000d04e: 48 c7 45 a0 00 00 00 00      	mov	qword ptr [rbp - 96], 0
ffffffff8000d056: 48 8b 7d 80          	mov	rdi, qword ptr [rbp - 128]
ffffffff8000d05a: 48 8b 05 b7 51 00 00 	mov	rax, qword ptr [rip + 20919] # 0xffffffff80012218 <xr6aouzjkjmurg0+0xffffffff80012218>
ffffffff8000d061: ff d0                	call	rax
ffffffff8000d063: 48 89 55 c8          	mov	qword ptr [rbp - 56], rdx
ffffffff8000d067: 48 89 45 c0          	mov	qword ptr [rbp - 64], rax
ffffffff8000d06b: 48 8b 45 c0          	mov	rax, qword ptr [rbp - 64]
ffffffff8000d06f: 48 89 85 68 ff ff ff 	mov	qword ptr [rbp - 152], rax
ffffffff8000d076: 48 85 c0             	test	rax, rax
ffffffff8000d079: 74 40                	je	0xffffffff8000d0bb <_ZN9bit_field16to_regular_range17h9319edb8a4e85410E+0xeb>
ffffffff8000d07b: eb 00                	jmp	0xffffffff8000d07d <_ZN9bit_field16to_regular_range17h9319edb8a4e85410E+0xad>
ffffffff8000d07d: 48 8b 85 68 ff ff ff 	mov	rax, qword ptr [rbp - 152]
ffffffff8000d084: 48 83 e8 01          	sub	rax, 1
ffffffff8000d088: 74 50                	je	0xffffffff8000d0da <_ZN9bit_field16to_regular_range17h9319edb8a4e85410E+0x10a>
ffffffff8000d08a: eb 00                	jmp	0xffffffff8000d08c <_ZN9bit_field16to_regular_range17h9319edb8a4e85410E+0xbc>
ffffffff8000d08c: eb 5d                	jmp	0xffffffff8000d0eb <_ZN9bit_field16to_regular_range17h9319edb8a4e85410E+0x11b>
ffffffff8000d08e: 48 8b 85 70 ff ff ff 	mov	rax, qword ptr [rbp - 144]
ffffffff8000d095: 48 89 45 a0          	mov	qword ptr [rbp - 96], rax
ffffffff8000d099: eb bb                	jmp	0xffffffff8000d056 <_ZN9bit_field16to_regular_range17h9319edb8a4e85410E+0x86>
ffffffff8000d09b: 48 8d 3d be 53 ff ff 	lea	rdi, [rip - 44098]      # 0xffffffff80002460 <str.3>
ffffffff8000d0a2: 48 8d 15 3f 4c 00 00 	lea	rdx, [rip + 19519]      # 0xffffffff80011ce8 <xr6aouzjkjmurg0+0xffffffff80011ce8>
ffffffff8000d0a9: 48 8b 05 30 50 00 00 	mov	rax, qword ptr [rip + 20528] # 0xffffffff800120e0 <xr6aouzjkjmurg0+0xffffffff800120e0>
ffffffff8000d0b0: be 1c 00 00 00       	mov	esi, 28
ffffffff8000d0b5: ff d0                	call	rax
ffffffff8000d0b7: 0f 0b                	ud2
ffffffff8000d0b9: 0f 0b                	ud2
ffffffff8000d0bb: 48 8b 45 c8          	mov	rax, qword ptr [rbp - 56]
ffffffff8000d0bf: 48 8b 00             	mov	rax, qword ptr [rax]
ffffffff8000d0c2: 48 89 45 f8          	mov	qword ptr [rbp - 8], rax
ffffffff8000d0c6: 48 83 c0 01          	add	rax, 1
ffffffff8000d0ca: 48 89 85 60 ff ff ff 	mov	qword ptr [rbp - 160], rax
ffffffff8000d0d1: 0f 92 c0             	setb	al
ffffffff8000d0d4: a8 01                	test	al, 1
ffffffff8000d0d6: 75 4c                	jne	0xffffffff8000d124 <_ZN9bit_field16to_regular_range17h9319edb8a4e85410E+0x154>
ffffffff8000d0d8: eb 3d                	jmp	0xffffffff8000d117 <_ZN9bit_field16to_regular_range17h9319edb8a4e85410E+0x147>
ffffffff8000d0da: 48 8b 45 c8          	mov	rax, qword ptr [rbp - 56]
ffffffff8000d0de: 48 8b 00             	mov	rax, qword ptr [rax]
ffffffff8000d0e1: 48 89 45 f0          	mov	qword ptr [rbp - 16], rax
ffffffff8000d0e5: 48 89 45 b8          	mov	qword ptr [rbp - 72], rax
ffffffff8000d0e9: eb 0b                	jmp	0xffffffff8000d0f6 <_ZN9bit_field16to_regular_range17h9319edb8a4e85410E+0x126>
ffffffff8000d0eb: 48 8b 85 78 ff ff ff 	mov	rax, qword ptr [rbp - 136]
ffffffff8000d0f2: 48 89 45 b8          	mov	qword ptr [rbp - 72], rax
ffffffff8000d0f6: 48 8b 4d a0          	mov	rcx, qword ptr [rbp - 96]
ffffffff8000d0fa: 48 8b 45 b8          	mov	rax, qword ptr [rbp - 72]
ffffffff8000d0fe: 48 89 4d 90          	mov	qword ptr [rbp - 112], rcx
ffffffff8000d102: 48 89 45 98          	mov	qword ptr [rbp - 104], rax
ffffffff8000d106: 48 8b 45 90          	mov	rax, qword ptr [rbp - 112]
ffffffff8000d10a: 48 8b 55 98          	mov	rdx, qword ptr [rbp - 104]
ffffffff8000d10e: 48 81 c4 a0 00 00 00 	add	rsp, 160
ffffffff8000d115: 5d                   	pop	rbp
ffffffff8000d116: c3                   	ret
ffffffff8000d117: 48 8b 85 60 ff ff ff 	mov	rax, qword ptr [rbp - 160]
ffffffff8000d11e: 48 89 45 b8          	mov	qword ptr [rbp - 72], rax
ffffffff8000d122: eb d2                	jmp	0xffffffff8000d0f6 <_ZN9bit_field16to_regular_range17h9319edb8a4e85410E+0x126>
ffffffff8000d124: 48 8d 3d 35 53 ff ff 	lea	rdi, [rip - 44235]      # 0xffffffff80002460 <str.3>
ffffffff8000d12b: 48 8d 15 ce 4b 00 00 	lea	rdx, [rip + 19406]      # 0xffffffff80011d00 <xr6aouzjkjmurg0+0xffffffff80011d00>
ffffffff8000d132: 48 8b 05 a7 4f 00 00 	mov	rax, qword ptr [rip + 20391] # 0xffffffff800120e0 <xr6aouzjkjmurg0+0xffffffff800120e0>
ffffffff8000d139: be 1c 00 00 00       	mov	esi, 28
ffffffff8000d13e: ff d0                	call	rax
ffffffff8000d140: 0f 0b                	ud2
ffffffff8000d142: cc                   	int3
ffffffff8000d143: cc                   	int3
ffffffff8000d144: cc                   	int3
ffffffff8000d145: cc                   	int3
ffffffff8000d146: cc                   	int3
ffffffff8000d147: cc                   	int3
ffffffff8000d148: cc                   	int3
ffffffff8000d149: cc                   	int3
ffffffff8000d14a: cc                   	int3
ffffffff8000d14b: cc                   	int3
ffffffff8000d14c: cc                   	int3
ffffffff8000d14d: cc                   	int3
ffffffff8000d14e: cc                   	int3
ffffffff8000d14f: cc                   	int3

ffffffff8000d150 <_ZN4core3ptr7mut_ptr31_$LT$impl$u20$$BP$mut$u20$T$GT$13guaranteed_eq17he377e5ee6c879f29E>:
ffffffff8000d150: 55                   	push	rbp
ffffffff8000d151: 48 89 e5             	mov	rbp, rsp
ffffffff8000d154: 48 83 ec 30          	sub	rsp, 48
ffffffff8000d158: 48 89 7d d8          	mov	qword ptr [rbp - 40], rdi
ffffffff8000d15c: 48 89 75 e0          	mov	qword ptr [rbp - 32], rsi
ffffffff8000d160: 48 89 7d e8          	mov	qword ptr [rbp - 24], rdi
ffffffff8000d164: 48 89 75 f0          	mov	qword ptr [rbp - 16], rsi
ffffffff8000d168: 48 39 f7             	cmp	rdi, rsi
ffffffff8000d16b: 0f 94 c0             	sete	al
ffffffff8000d16e: 24 01                	and	al, 1
ffffffff8000d170: 88 45 fe             	mov	byte ptr [rbp - 2], al
ffffffff8000d173: 8a 45 fe             	mov	al, byte ptr [rbp - 2]
ffffffff8000d176: 88 45 d6             	mov	byte ptr [rbp - 42], al
ffffffff8000d179: 3c 02                	cmp	al, 2
ffffffff8000d17b: 75 06                	jne	0xffffffff8000d183 <_ZN4core3ptr7mut_ptr31_$LT$impl$u20$$BP$mut$u20$T$GT$13guaranteed_eq17he377e5ee6c879f29E+0x33>
ffffffff8000d17d: c6 45 d7 02          	mov	byte ptr [rbp - 41], 2
ffffffff8000d181: eb 10                	jmp	0xffffffff8000d193 <_ZN4core3ptr7mut_ptr31_$LT$impl$u20$$BP$mut$u20$T$GT$13guaranteed_eq17he377e5ee6c879f29E+0x43>
ffffffff8000d183: 8a 45 d6             	mov	al, byte ptr [rbp - 42]
ffffffff8000d186: 88 45 ff             	mov	byte ptr [rbp - 1], al
ffffffff8000d189: 3c 01                	cmp	al, 1
ffffffff8000d18b: 0f 94 c0             	sete	al
ffffffff8000d18e: 24 01                	and	al, 1
ffffffff8000d190: 88 45 d7             	mov	byte ptr [rbp - 41], al
ffffffff8000d193: 8a 45 d7             	mov	al, byte ptr [rbp - 41]
ffffffff8000d196: 48 83 c4 30          	add	rsp, 48
ffffffff8000d19a: 5d                   	pop	rbp
ffffffff8000d19b: c3                   	ret
ffffffff8000d19c: cc                   	int3
ffffffff8000d19d: cc                   	int3
ffffffff8000d19e: cc                   	int3
ffffffff8000d19f: cc                   	int3

ffffffff8000d1a0 <_ZN5alloc5alloc18handle_alloc_error17h63551c30b335d75dE>:
ffffffff8000d1a0: 50                   	push	rax
ffffffff8000d1a1: ff 15 a9 50 00 00    	call	qword ptr [rip + 20649] # 0xffffffff80012250 <xr6aouzjkjmurg0+0xffffffff80012250>
ffffffff8000d1a7: 0f 0b                	ud2
ffffffff8000d1a9: cc                   	int3
ffffffff8000d1aa: cc                   	int3
ffffffff8000d1ab: cc                   	int3
ffffffff8000d1ac: cc                   	int3
ffffffff8000d1ad: cc                   	int3
ffffffff8000d1ae: cc                   	int3
ffffffff8000d1af: cc                   	int3

ffffffff8000d1b0 <_ZN5alloc5alloc18handle_alloc_error8rt_error17ha4189a95ad703eecE>:
ffffffff8000d1b0: 50                   	push	rax
ffffffff8000d1b1: ff 15 21 50 00 00    	call	qword ptr [rip + 20513] # 0xffffffff800121d8 <xr6aouzjkjmurg0+0xffffffff800121d8>
ffffffff8000d1b7: 0f 0b                	ud2
ffffffff8000d1b9: cc                   	int3
ffffffff8000d1ba: cc                   	int3
ffffffff8000d1bb: cc                   	int3
ffffffff8000d1bc: cc                   	int3
ffffffff8000d1bd: cc                   	int3
ffffffff8000d1be: cc                   	int3
ffffffff8000d1bf: cc                   	int3

ffffffff8000d1c0 <__rdl_oom>:
ffffffff8000d1c0: 48 83 ec 48          	sub	rsp, 72
ffffffff8000d1c4: 48 89 3c 24          	mov	qword ptr [rsp], rdi
ffffffff8000d1c8: 48 89 e0             	mov	rax, rsp
ffffffff8000d1cb: 48 89 44 24 08       	mov	qword ptr [rsp + 8], rax
ffffffff8000d1d0: 48 8b 05 a9 4f 00 00 	mov	rax, qword ptr [rip + 20393] # 0xffffffff80012180 <xr6aouzjkjmurg0+0xffffffff80012180>
ffffffff8000d1d7: 48 89 44 24 10       	mov	qword ptr [rsp + 16], rax
ffffffff8000d1dc: 48 8d 05 35 4b 00 00 	lea	rax, [rip + 19253]      # 0xffffffff80011d18 <xr6aouzjkjmurg0+0xffffffff80011d18>
ffffffff8000d1e3: 48 89 44 24 28       	mov	qword ptr [rsp + 40], rax
ffffffff8000d1e8: 48 c7 44 24 30 02 00 00 00   	mov	qword ptr [rsp + 48], 2
ffffffff8000d1f1: 48 c7 44 24 18 00 00 00 00   	mov	qword ptr [rsp + 24], 0
ffffffff8000d1fa: 48 8d 44 24 08       	lea	rax, [rsp + 8]
ffffffff8000d1ff: 48 89 44 24 38       	mov	qword ptr [rsp + 56], rax
ffffffff8000d204: 48 c7 44 24 40 01 00 00 00   	mov	qword ptr [rsp + 64], 1
ffffffff8000d20d: 48 8d 35 24 4b 00 00 	lea	rsi, [rip + 19236]      # 0xffffffff80011d38 <xr6aouzjkjmurg0+0xffffffff80011d38>
ffffffff8000d214: 48 8d 7c 24 18       	lea	rdi, [rsp + 24]
ffffffff8000d219: ff 15 01 4f 00 00    	call	qword ptr [rip + 20225] # 0xffffffff80012120 <xr6aouzjkjmurg0+0xffffffff80012120>
ffffffff8000d21f: 0f 0b                	ud2
ffffffff8000d221: cc                   	int3
ffffffff8000d222: cc                   	int3
ffffffff8000d223: cc                   	int3
ffffffff8000d224: cc                   	int3
ffffffff8000d225: cc                   	int3
ffffffff8000d226: cc                   	int3
ffffffff8000d227: cc                   	int3
ffffffff8000d228: cc                   	int3
ffffffff8000d229: cc                   	int3
ffffffff8000d22a: cc                   	int3
ffffffff8000d22b: cc                   	int3
ffffffff8000d22c: cc                   	int3
ffffffff8000d22d: cc                   	int3
ffffffff8000d22e: cc                   	int3
ffffffff8000d22f: cc                   	int3

ffffffff8000d230 <_ZN4core3ops8function6FnOnce9call_once17h6f0a40a33e530650E>:
ffffffff8000d230: 48 8b 07             	mov	rax, qword ptr [rdi]
ffffffff8000d233: 66 66 66 66 2e 0f 1f 84 00 00 00 00 00       	nop	word ptr cs:[rax + rax]
ffffffff8000d240: eb fe                	jmp	0xffffffff8000d240 <_ZN4core3ops8function6FnOnce9call_once17h6f0a40a33e530650E+0x10>
ffffffff8000d242: cc                   	int3
ffffffff8000d243: cc                   	int3
ffffffff8000d244: cc                   	int3
ffffffff8000d245: cc                   	int3
ffffffff8000d246: cc                   	int3
ffffffff8000d247: cc                   	int3
ffffffff8000d248: cc                   	int3
ffffffff8000d249: cc                   	int3
ffffffff8000d24a: cc                   	int3
ffffffff8000d24b: cc                   	int3
ffffffff8000d24c: cc                   	int3
ffffffff8000d24d: cc                   	int3
ffffffff8000d24e: cc                   	int3
ffffffff8000d24f: cc                   	int3

ffffffff8000d250 <_ZN4core3ptr102drop_in_place$LT$$RF$core..iter..adapters..copied..Copied$LT$core..slice..iter..Iter$LT$u8$GT$$GT$$GT$17h58b3f901d570a1cfE>:
ffffffff8000d250: c3                   	ret
ffffffff8000d251: cc                   	int3
ffffffff8000d252: cc                   	int3
ffffffff8000d253: cc                   	int3
ffffffff8000d254: cc                   	int3
ffffffff8000d255: cc                   	int3
ffffffff8000d256: cc                   	int3
ffffffff8000d257: cc                   	int3
ffffffff8000d258: cc                   	int3
ffffffff8000d259: cc                   	int3
ffffffff8000d25a: cc                   	int3
ffffffff8000d25b: cc                   	int3
ffffffff8000d25c: cc                   	int3
ffffffff8000d25d: cc                   	int3
ffffffff8000d25e: cc                   	int3
ffffffff8000d25f: cc                   	int3

ffffffff8000d260 <_ZN36_$LT$T$u20$as$u20$core..any..Any$GT$7type_id17h56d0ffcaaf7567c6E>:
ffffffff8000d260: 48 b8 e8 20 53 f7 ab 0b 82 93	movabs	rax, -7817673169945026328
ffffffff8000d26a: c3                   	ret
ffffffff8000d26b: cc                   	int3
ffffffff8000d26c: cc                   	int3
ffffffff8000d26d: cc                   	int3
ffffffff8000d26e: cc                   	int3
ffffffff8000d26f: cc                   	int3

ffffffff8000d270 <_ZN4core3ffi5c_str4CStr8from_ptr9strlen_rt17hf015c5e530108840E>:
ffffffff8000d270: ff 25 ea 4f 00 00    	jmp	qword ptr [rip + 20458] # 0xffffffff80012260 <xr6aouzjkjmurg0+0xffffffff80012260>
ffffffff8000d276: cc                   	int3
ffffffff8000d277: cc                   	int3
ffffffff8000d278: cc                   	int3
ffffffff8000d279: cc                   	int3
ffffffff8000d27a: cc                   	int3
ffffffff8000d27b: cc                   	int3
ffffffff8000d27c: cc                   	int3
ffffffff8000d27d: cc                   	int3
ffffffff8000d27e: cc                   	int3
ffffffff8000d27f: cc                   	int3

ffffffff8000d280 <_ZN4core3ffi5c_str4CStr6to_str17ha4e6f7d532de51c1E>:
ffffffff8000d280: 53                   	push	rbx
ffffffff8000d281: 48 89 fb             	mov	rbx, rdi
ffffffff8000d284: 48 ff ca             	dec	rdx
ffffffff8000d287: ff 15 db 4f 00 00    	call	qword ptr [rip + 20443] # 0xffffffff80012268 <xr6aouzjkjmurg0+0xffffffff80012268>
ffffffff8000d28d: 48 89 d8             	mov	rax, rbx
ffffffff8000d290: 5b                   	pop	rbx
ffffffff8000d291: c3                   	ret
ffffffff8000d292: cc                   	int3
ffffffff8000d293: cc                   	int3
ffffffff8000d294: cc                   	int3
ffffffff8000d295: cc                   	int3
ffffffff8000d296: cc                   	int3
ffffffff8000d297: cc                   	int3
ffffffff8000d298: cc                   	int3
ffffffff8000d299: cc                   	int3
ffffffff8000d29a: cc                   	int3
ffffffff8000d29b: cc                   	int3
ffffffff8000d29c: cc                   	int3
ffffffff8000d29d: cc                   	int3
ffffffff8000d29e: cc                   	int3
ffffffff8000d29f: cc                   	int3

ffffffff8000d2a0 <_ZN4core6option13expect_failed17h4947a017a1860ddfE>:
ffffffff8000d2a0: 50                   	push	rax
ffffffff8000d2a1: e8 fa 01 00 00       	call	0xffffffff8000d4a0 <_ZN4core9panicking9panic_str17hf09211412967b67fE>
ffffffff8000d2a6: 0f 0b                	ud2
ffffffff8000d2a8: cc                   	int3
ffffffff8000d2a9: cc                   	int3
ffffffff8000d2aa: cc                   	int3
ffffffff8000d2ab: cc                   	int3
ffffffff8000d2ac: cc                   	int3
ffffffff8000d2ad: cc                   	int3
ffffffff8000d2ae: cc                   	int3
ffffffff8000d2af: cc                   	int3

ffffffff8000d2b0 <_ZN73_$LT$core..panic..panic_info..PanicInfo$u20$as$u20$core..fmt..Display$GT$3fmt17h2ff35a00cb81fd9eE>:
ffffffff8000d2b0: 41 57                	push	r15
ffffffff8000d2b2: 41 56                	push	r14
ffffffff8000d2b4: 41 55                	push	r13
ffffffff8000d2b6: 41 54                	push	r12
ffffffff8000d2b8: 53                   	push	rbx
ffffffff8000d2b9: 48 83 ec 70          	sub	rsp, 112
ffffffff8000d2bd: 49 89 ff             	mov	r15, rdi
ffffffff8000d2c0: 4c 8b 26             	mov	r12, qword ptr [rsi]
ffffffff8000d2c3: 4c 8b 76 08          	mov	r14, qword ptr [rsi + 8]
ffffffff8000d2c7: 48 8d 35 3e 52 ff ff 	lea	rsi, [rip - 44482]      # 0xffffffff8000250c <str.3+0xac>
ffffffff8000d2ce: ba 0c 00 00 00       	mov	edx, 12
ffffffff8000d2d3: 4c 89 e7             	mov	rdi, r12
ffffffff8000d2d6: 41 ff 56 18          	call	qword ptr [r14 + 24]
ffffffff8000d2da: b3 01                	mov	bl, 1
ffffffff8000d2dc: 84 c0                	test	al, al
ffffffff8000d2de: 0f 85 1a 01 00 00    	jne	0xffffffff8000d3fe <_ZN73_$LT$core..panic..panic_info..PanicInfo$u20$as$u20$core..fmt..Display$GT$3fmt17h2ff35a00cb81fd9eE+0x14e>
ffffffff8000d2e4: 49 8b 47 10          	mov	rax, qword ptr [r15 + 16]
ffffffff8000d2e8: 48 85 c0             	test	rax, rax
ffffffff8000d2eb: 74 18                	je	0xffffffff8000d305 <_ZN73_$LT$core..panic..panic_info..PanicInfo$u20$as$u20$core..fmt..Display$GT$3fmt17h2ff35a00cb81fd9eE+0x55>
ffffffff8000d2ed: 48 89 44 24 08       	mov	qword ptr [rsp + 8], rax
ffffffff8000d2f2: 48 8d 44 24 08       	lea	rax, [rsp + 8]
ffffffff8000d2f7: 48 89 44 24 40       	mov	qword ptr [rsp + 64], rax
ffffffff8000d2fc: 48 8d 05 0d 2b 00 00 	lea	rax, [rip + 11021]      # 0xffffffff8000fe10 <_ZN44_$LT$$RF$T$u20$as$u20$core..fmt..Display$GT$3fmt17h216cc472892abda1E>
ffffffff8000d303: eb 32                	jmp	0xffffffff8000d337 <_ZN73_$LT$core..panic..panic_info..PanicInfo$u20$as$u20$core..fmt..Display$GT$3fmt17h2ff35a00cb81fd9eE+0x87>
ffffffff8000d305: 4d 8b 2f             	mov	r13, qword ptr [r15]
ffffffff8000d308: 49 8b 47 08          	mov	rax, qword ptr [r15 + 8]
ffffffff8000d30c: 4c 89 ef             	mov	rdi, r13
ffffffff8000d30f: ff 50 18             	call	qword ptr [rax + 24]
ffffffff8000d312: 48 b9 c8 1a f8 a9 34 6c a7 89	movabs	rcx, -8527728395957036344
ffffffff8000d31c: 48 39 c8             	cmp	rax, rcx
ffffffff8000d31f: 75 61                	jne	0xffffffff8000d382 <_ZN73_$LT$core..panic..panic_info..PanicInfo$u20$as$u20$core..fmt..Display$GT$3fmt17h2ff35a00cb81fd9eE+0xd2>
ffffffff8000d321: 4c 89 6c 24 08       	mov	qword ptr [rsp + 8], r13
ffffffff8000d326: 48 8d 44 24 08       	lea	rax, [rsp + 8]
ffffffff8000d32b: 48 89 44 24 40       	mov	qword ptr [rsp + 64], rax
ffffffff8000d330: 48 8d 05 b9 2a 00 00 	lea	rax, [rip + 10937]      # 0xffffffff8000fdf0 <_ZN44_$LT$$RF$T$u20$as$u20$core..fmt..Display$GT$3fmt17h051b9175a1a53e84E>
ffffffff8000d337: 48 89 44 24 48       	mov	qword ptr [rsp + 72], rax
ffffffff8000d33c: 48 c7 44 24 10 00 00 00 00   	mov	qword ptr [rsp + 16], 0
ffffffff8000d345: 48 8d 05 54 4a 00 00 	lea	rax, [rip + 19028]      # 0xffffffff80011da0 <xr6aouzjkjmurg0+0xffffffff80011da0>
ffffffff8000d34c: 48 89 44 24 20       	mov	qword ptr [rsp + 32], rax
ffffffff8000d351: 48 c7 44 24 28 02 00 00 00   	mov	qword ptr [rsp + 40], 2
ffffffff8000d35a: 48 8d 44 24 40       	lea	rax, [rsp + 64]
ffffffff8000d35f: 48 89 44 24 30       	mov	qword ptr [rsp + 48], rax
ffffffff8000d364: 48 c7 44 24 38 01 00 00 00   	mov	qword ptr [rsp + 56], 1
ffffffff8000d36d: 48 8d 54 24 10       	lea	rdx, [rsp + 16]
ffffffff8000d372: 4c 89 e7             	mov	rdi, r12
ffffffff8000d375: 4c 89 f6             	mov	rsi, r14
ffffffff8000d378: ff 15 92 4d 00 00    	call	qword ptr [rip + 19858] # 0xffffffff80012110 <xr6aouzjkjmurg0+0xffffffff80012110>
ffffffff8000d37e: 84 c0                	test	al, al
ffffffff8000d380: 75 7c                	jne	0xffffffff8000d3fe <_ZN73_$LT$core..panic..panic_info..PanicInfo$u20$as$u20$core..fmt..Display$GT$3fmt17h2ff35a00cb81fd9eE+0x14e>
ffffffff8000d382: 49 8b 47 18          	mov	rax, qword ptr [r15 + 24]
ffffffff8000d386: 48 8d 48 10          	lea	rcx, [rax + 16]
ffffffff8000d38a: 48 89 44 24 40       	mov	qword ptr [rsp + 64], rax
ffffffff8000d38f: 48 83 c0 14          	add	rax, 20
ffffffff8000d393: 48 8d 15 d6 2a 00 00 	lea	rdx, [rip + 10966]      # 0xffffffff8000fe70 <_ZN44_$LT$$RF$T$u20$as$u20$core..fmt..Display$GT$3fmt17h8db085f9c3579155E>
ffffffff8000d39a: 48 89 54 24 48       	mov	qword ptr [rsp + 72], rdx
ffffffff8000d39f: 48 89 4c 24 50       	mov	qword ptr [rsp + 80], rcx
ffffffff8000d3a4: 48 8b 0d 8d 4e 00 00 	mov	rcx, qword ptr [rip + 20109] # 0xffffffff80012238 <xr6aouzjkjmurg0+0xffffffff80012238>
ffffffff8000d3ab: 48 89 4c 24 58       	mov	qword ptr [rsp + 88], rcx
ffffffff8000d3b0: 48 89 44 24 60       	mov	qword ptr [rsp + 96], rax
ffffffff8000d3b5: 48 89 4c 24 68       	mov	qword ptr [rsp + 104], rcx
ffffffff8000d3ba: 48 c7 44 24 10 00 00 00 00   	mov	qword ptr [rsp + 16], 0
ffffffff8000d3c3: 48 8d 05 a6 49 00 00 	lea	rax, [rip + 18854]      # 0xffffffff80011d70 <xr6aouzjkjmurg0+0xffffffff80011d70>
ffffffff8000d3ca: 48 89 44 24 20       	mov	qword ptr [rsp + 32], rax
ffffffff8000d3cf: 48 c7 44 24 28 03 00 00 00   	mov	qword ptr [rsp + 40], 3
ffffffff8000d3d8: 48 8d 44 24 40       	lea	rax, [rsp + 64]
ffffffff8000d3dd: 48 89 44 24 30       	mov	qword ptr [rsp + 48], rax
ffffffff8000d3e2: 48 c7 44 24 38 03 00 00 00   	mov	qword ptr [rsp + 56], 3
ffffffff8000d3eb: 48 8d 54 24 10       	lea	rdx, [rsp + 16]
ffffffff8000d3f0: 4c 89 e7             	mov	rdi, r12
ffffffff8000d3f3: 4c 89 f6             	mov	rsi, r14
ffffffff8000d3f6: ff 15 14 4d 00 00    	call	qword ptr [rip + 19732] # 0xffffffff80012110 <xr6aouzjkjmurg0+0xffffffff80012110>
ffffffff8000d3fc: 89 c3                	mov	ebx, eax
ffffffff8000d3fe: 89 d8                	mov	eax, ebx
ffffffff8000d400: 48 83 c4 70          	add	rsp, 112
ffffffff8000d404: 5b                   	pop	rbx
ffffffff8000d405: 41 5c                	pop	r12
ffffffff8000d407: 41 5d                	pop	r13
ffffffff8000d409: 41 5e                	pop	r14
ffffffff8000d40b: 41 5f                	pop	r15
ffffffff8000d40d: c3                   	ret
ffffffff8000d40e: cc                   	int3
ffffffff8000d40f: cc                   	int3

ffffffff8000d410 <_ZN4core9panicking9panic_fmt17haa204022873f003bE>:
ffffffff8000d410: 48 83 ec 28          	sub	rsp, 40
ffffffff8000d414: 48 8d 05 9d 50 ff ff 	lea	rax, [rip - 44899]      # 0xffffffff800024b8 <str.3+0x58>
ffffffff8000d41b: 48 89 04 24          	mov	qword ptr [rsp], rax
ffffffff8000d41f: 48 8d 05 9a 49 00 00 	lea	rax, [rip + 18842]      # 0xffffffff80011dc0 <xr6aouzjkjmurg0+0xffffffff80011dc0>
ffffffff8000d426: 48 89 44 24 08       	mov	qword ptr [rsp + 8], rax
ffffffff8000d42b: 48 89 7c 24 10       	mov	qword ptr [rsp + 16], rdi
ffffffff8000d430: 48 89 74 24 18       	mov	qword ptr [rsp + 24], rsi
ffffffff8000d435: c6 44 24 20 01       	mov	byte ptr [rsp + 32], 1
ffffffff8000d43a: 48 89 e7             	mov	rdi, rsp
ffffffff8000d43d: ff 15 7d 4c 00 00    	call	qword ptr [rip + 19581] # 0xffffffff800120c0 <xr6aouzjkjmurg0+0xffffffff800120c0>
ffffffff8000d443: 0f 0b                	ud2
ffffffff8000d445: cc                   	int3
ffffffff8000d446: cc                   	int3
ffffffff8000d447: cc                   	int3
ffffffff8000d448: cc                   	int3
ffffffff8000d449: cc                   	int3
ffffffff8000d44a: cc                   	int3
ffffffff8000d44b: cc                   	int3
ffffffff8000d44c: cc                   	int3
ffffffff8000d44d: cc                   	int3
ffffffff8000d44e: cc                   	int3
ffffffff8000d44f: cc                   	int3

ffffffff8000d450 <_ZN4core9panicking5panic17h5159ee01bab36c81E>:
ffffffff8000d450: 48 83 ec 48          	sub	rsp, 72
ffffffff8000d454: 48 89 7c 24 08       	mov	qword ptr [rsp + 8], rdi
ffffffff8000d459: 48 89 74 24 10       	mov	qword ptr [rsp + 16], rsi
ffffffff8000d45e: 48 8d 44 24 08       	lea	rax, [rsp + 8]
ffffffff8000d463: 48 89 44 24 28       	mov	qword ptr [rsp + 40], rax
ffffffff8000d468: 48 c7 44 24 30 01 00 00 00   	mov	qword ptr [rsp + 48], 1
ffffffff8000d471: 48 c7 44 24 18 00 00 00 00   	mov	qword ptr [rsp + 24], 0
ffffffff8000d47a: 48 8d 05 37 50 ff ff 	lea	rax, [rip - 45001]      # 0xffffffff800024b8 <str.3+0x58>
ffffffff8000d481: 48 89 44 24 38       	mov	qword ptr [rsp + 56], rax
ffffffff8000d486: 48 c7 44 24 40 00 00 00 00   	mov	qword ptr [rsp + 64], 0
ffffffff8000d48f: 48 8d 7c 24 18       	lea	rdi, [rsp + 24]
ffffffff8000d494: 48 89 d6             	mov	rsi, rdx
ffffffff8000d497: ff 15 83 4c 00 00    	call	qword ptr [rip + 19587] # 0xffffffff80012120 <xr6aouzjkjmurg0+0xffffffff80012120>
ffffffff8000d49d: 0f 0b                	ud2
ffffffff8000d49f: cc                   	int3

ffffffff8000d4a0 <_ZN4core9panicking9panic_str17hf09211412967b67fE>:
ffffffff8000d4a0: 48 83 ec 18          	sub	rsp, 24
ffffffff8000d4a4: 48 89 7c 24 08       	mov	qword ptr [rsp + 8], rdi
ffffffff8000d4a9: 48 89 74 24 10       	mov	qword ptr [rsp + 16], rsi
ffffffff8000d4ae: 48 8d 7c 24 08       	lea	rdi, [rsp + 8]
ffffffff8000d4b3: 48 89 d6             	mov	rsi, rdx
ffffffff8000d4b6: e8 05 00 00 00       	call	0xffffffff8000d4c0 <_ZN4core9panicking13panic_display17hfedc3a177c71513bE>
ffffffff8000d4bb: 0f 0b                	ud2
ffffffff8000d4bd: cc                   	int3
ffffffff8000d4be: cc                   	int3
ffffffff8000d4bf: cc                   	int3

ffffffff8000d4c0 <_ZN4core9panicking13panic_display17hfedc3a177c71513bE>:
ffffffff8000d4c0: 48 83 ec 48          	sub	rsp, 72
ffffffff8000d4c4: 48 89 7c 24 08       	mov	qword ptr [rsp + 8], rdi
ffffffff8000d4c9: 48 8d 05 a0 29 00 00 	lea	rax, [rip + 10656]      # 0xffffffff8000fe70 <_ZN44_$LT$$RF$T$u20$as$u20$core..fmt..Display$GT$3fmt17h8db085f9c3579155E>
ffffffff8000d4d0: 48 89 44 24 10       	mov	qword ptr [rsp + 16], rax
ffffffff8000d4d5: 48 8d 05 04 49 00 00 	lea	rax, [rip + 18692]      # 0xffffffff80011de0 <xr6aouzjkjmurg0+0xffffffff80011de0>
ffffffff8000d4dc: 48 89 44 24 28       	mov	qword ptr [rsp + 40], rax
ffffffff8000d4e1: 48 c7 44 24 30 01 00 00 00   	mov	qword ptr [rsp + 48], 1
ffffffff8000d4ea: 48 c7 44 24 18 00 00 00 00   	mov	qword ptr [rsp + 24], 0
ffffffff8000d4f3: 48 8d 44 24 08       	lea	rax, [rsp + 8]
ffffffff8000d4f8: 48 89 44 24 38       	mov	qword ptr [rsp + 56], rax
ffffffff8000d4fd: 48 c7 44 24 40 01 00 00 00   	mov	qword ptr [rsp + 64], 1
ffffffff8000d506: 48 8d 7c 24 18       	lea	rdi, [rsp + 24]
ffffffff8000d50b: ff 15 0f 4c 00 00    	call	qword ptr [rip + 19471] # 0xffffffff80012120 <xr6aouzjkjmurg0+0xffffffff80012120>
ffffffff8000d511: 0f 0b                	ud2
ffffffff8000d513: cc                   	int3
ffffffff8000d514: cc                   	int3
ffffffff8000d515: cc                   	int3
ffffffff8000d516: cc                   	int3
ffffffff8000d517: cc                   	int3
ffffffff8000d518: cc                   	int3
ffffffff8000d519: cc                   	int3
ffffffff8000d51a: cc                   	int3
ffffffff8000d51b: cc                   	int3
ffffffff8000d51c: cc                   	int3
ffffffff8000d51d: cc                   	int3
ffffffff8000d51e: cc                   	int3
ffffffff8000d51f: cc                   	int3

ffffffff8000d520 <_ZN4core9panicking18panic_bounds_check17h898c97828cbdc1b2E>:
ffffffff8000d520: 48 83 ec 68          	sub	rsp, 104
ffffffff8000d524: 48 89 7c 24 08       	mov	qword ptr [rsp + 8], rdi
ffffffff8000d529: 48 89 74 24 10       	mov	qword ptr [rsp + 16], rsi
ffffffff8000d52e: 48 8d 44 24 10       	lea	rax, [rsp + 16]
ffffffff8000d533: 48 89 44 24 18       	mov	qword ptr [rsp + 24], rax
ffffffff8000d538: 48 8b 05 79 4c 00 00 	mov	rax, qword ptr [rip + 19577] # 0xffffffff800121b8 <xr6aouzjkjmurg0+0xffffffff800121b8>
ffffffff8000d53f: 48 89 44 24 20       	mov	qword ptr [rsp + 32], rax
ffffffff8000d544: 48 8d 4c 24 08       	lea	rcx, [rsp + 8]
ffffffff8000d549: 48 89 4c 24 28       	mov	qword ptr [rsp + 40], rcx
ffffffff8000d54e: 48 89 44 24 30       	mov	qword ptr [rsp + 48], rax
ffffffff8000d553: 48 8d 05 f6 47 00 00 	lea	rax, [rip + 18422]      # 0xffffffff80011d50 <xr6aouzjkjmurg0+0xffffffff80011d50>
ffffffff8000d55a: 48 89 44 24 48       	mov	qword ptr [rsp + 72], rax
ffffffff8000d55f: 48 c7 44 24 50 02 00 00 00   	mov	qword ptr [rsp + 80], 2
ffffffff8000d568: 48 c7 44 24 38 00 00 00 00   	mov	qword ptr [rsp + 56], 0
ffffffff8000d571: 48 8d 44 24 18       	lea	rax, [rsp + 24]
ffffffff8000d576: 48 89 44 24 58       	mov	qword ptr [rsp + 88], rax
ffffffff8000d57b: 48 c7 44 24 60 02 00 00 00   	mov	qword ptr [rsp + 96], 2
ffffffff8000d584: 48 8d 7c 24 38       	lea	rdi, [rsp + 56]
ffffffff8000d589: 48 89 d6             	mov	rsi, rdx
ffffffff8000d58c: ff 15 8e 4b 00 00    	call	qword ptr [rip + 19342] # 0xffffffff80012120 <xr6aouzjkjmurg0+0xffffffff80012120>
ffffffff8000d592: 0f 0b                	ud2
ffffffff8000d594: cc                   	int3
ffffffff8000d595: cc                   	int3
ffffffff8000d596: cc                   	int3
ffffffff8000d597: cc                   	int3
ffffffff8000d598: cc                   	int3
ffffffff8000d599: cc                   	int3
ffffffff8000d59a: cc                   	int3
ffffffff8000d59b: cc                   	int3
ffffffff8000d59c: cc                   	int3
ffffffff8000d59d: cc                   	int3
ffffffff8000d59e: cc                   	int3
ffffffff8000d59f: cc                   	int3

ffffffff8000d5a0 <_ZN4core9panicking19assert_failed_inner17he537578b3259ff86E>:
ffffffff8000d5a0: 48 81 ec d8 00 00 00 	sub	rsp, 216
ffffffff8000d5a7: 48 89 74 24 18       	mov	qword ptr [rsp + 24], rsi
ffffffff8000d5ac: 48 89 54 24 20       	mov	qword ptr [rsp + 32], rdx
ffffffff8000d5b1: 48 89 4c 24 28       	mov	qword ptr [rsp + 40], rcx
ffffffff8000d5b6: 4c 89 44 24 30       	mov	qword ptr [rsp + 48], r8
ffffffff8000d5bb: 40 84 ff             	test	dil, dil
ffffffff8000d5be: 74 16                	je	0xffffffff8000d5d6 <_ZN4core9panicking19assert_failed_inner17he537578b3259ff86E+0x36>
ffffffff8000d5c0: 40 0f b6 c7          	movzx	eax, dil
ffffffff8000d5c4: 83 f8 01             	cmp	eax, 1
ffffffff8000d5c7: 0f 85 b7 00 00 00    	jne	0xffffffff8000d684 <_ZN4core9panicking19assert_failed_inner17he537578b3259ff86E+0xe4>
ffffffff8000d5cd: 48 8d 05 4f 4f ff ff 	lea	rax, [rip - 45233]      # 0xffffffff80002523 <str.3+0xc3>
ffffffff8000d5d4: eb 07                	jmp	0xffffffff8000d5dd <_ZN4core9panicking19assert_failed_inner17he537578b3259ff86E+0x3d>
ffffffff8000d5d6: 48 8d 05 48 4f ff ff 	lea	rax, [rip - 45240]      # 0xffffffff80002525 <str.3+0xc5>
ffffffff8000d5dd: 48 89 44 24 08       	mov	qword ptr [rsp + 8], rax
ffffffff8000d5e2: b8 02 00 00 00       	mov	eax, 2
ffffffff8000d5e7: 48 8b b4 24 e0 00 00 00      	mov	rsi, qword ptr [rsp + 224]
ffffffff8000d5ef: 48 89 44 24 10       	mov	qword ptr [rsp + 16], rax
ffffffff8000d5f4: 49 83 79 10 00       	cmp	qword ptr [r9 + 16], 0
ffffffff8000d5f9: 0f 85 ae 00 00 00    	jne	0xffffffff8000d6ad <_ZN4core9panicking19assert_failed_inner17he537578b3259ff86E+0x10d>
ffffffff8000d5ff: 48 8d 44 24 08       	lea	rax, [rsp + 8]
ffffffff8000d604: 48 89 44 24 38       	mov	qword ptr [rsp + 56], rax
ffffffff8000d609: 48 8d 05 60 28 00 00 	lea	rax, [rip + 10336]      # 0xffffffff8000fe70 <_ZN44_$LT$$RF$T$u20$as$u20$core..fmt..Display$GT$3fmt17h8db085f9c3579155E>
ffffffff8000d610: 48 89 44 24 40       	mov	qword ptr [rsp + 64], rax
ffffffff8000d615: 48 8d 44 24 18       	lea	rax, [rsp + 24]
ffffffff8000d61a: 48 89 44 24 48       	mov	qword ptr [rsp + 72], rax
ffffffff8000d61f: 48 8d 05 aa 27 00 00 	lea	rax, [rip + 10154]      # 0xffffffff8000fdd0 <_ZN42_$LT$$RF$T$u20$as$u20$core..fmt..Debug$GT$3fmt17haa34a3a54d8a09ceE>
ffffffff8000d626: 48 89 44 24 50       	mov	qword ptr [rsp + 80], rax
ffffffff8000d62b: 48 8d 4c 24 28       	lea	rcx, [rsp + 40]
ffffffff8000d630: 48 89 4c 24 58       	mov	qword ptr [rsp + 88], rcx
ffffffff8000d635: 48 89 44 24 60       	mov	qword ptr [rsp + 96], rax
ffffffff8000d63a: 48 8d 05 0f 48 00 00 	lea	rax, [rip + 18447]      # 0xffffffff80011e50 <xr6aouzjkjmurg0+0xffffffff80011e50>
ffffffff8000d641: 48 89 84 24 88 00 00 00      	mov	qword ptr [rsp + 136], rax
ffffffff8000d649: 48 c7 84 24 90 00 00 00 04 00 00 00  	mov	qword ptr [rsp + 144], 4
ffffffff8000d655: 48 c7 44 24 78 00 00 00 00   	mov	qword ptr [rsp + 120], 0
ffffffff8000d65e: 48 8d 44 24 38       	lea	rax, [rsp + 56]
ffffffff8000d663: 48 89 84 24 98 00 00 00      	mov	qword ptr [rsp + 152], rax
ffffffff8000d66b: 48 c7 84 24 a0 00 00 00 03 00 00 00  	mov	qword ptr [rsp + 160], 3
ffffffff8000d677: 48 8d 7c 24 78       	lea	rdi, [rsp + 120]
ffffffff8000d67c: ff 15 9e 4a 00 00    	call	qword ptr [rip + 19102] # 0xffffffff80012120 <xr6aouzjkjmurg0+0xffffffff80012120>
ffffffff8000d682: 0f 0b                	ud2
ffffffff8000d684: 48 8d 05 91 4e ff ff 	lea	rax, [rip - 45423]      # 0xffffffff8000251c <str.3+0xbc>
ffffffff8000d68b: 48 89 44 24 08       	mov	qword ptr [rsp + 8], rax
ffffffff8000d690: b8 07 00 00 00       	mov	eax, 7
ffffffff8000d695: 48 8b b4 24 e0 00 00 00      	mov	rsi, qword ptr [rsp + 224]
ffffffff8000d69d: 48 89 44 24 10       	mov	qword ptr [rsp + 16], rax
ffffffff8000d6a2: 49 83 79 10 00       	cmp	qword ptr [r9 + 16], 0
ffffffff8000d6a7: 0f 84 52 ff ff ff    	je	0xffffffff8000d5ff <_ZN4core9panicking19assert_failed_inner17he537578b3259ff86E+0x5f>
ffffffff8000d6ad: 49 8b 41 28          	mov	rax, qword ptr [r9 + 40]
ffffffff8000d6b1: 48 89 84 24 d0 00 00 00      	mov	qword ptr [rsp + 208], rax
ffffffff8000d6b9: 49 8b 41 20          	mov	rax, qword ptr [r9 + 32]
ffffffff8000d6bd: 48 89 84 24 c8 00 00 00      	mov	qword ptr [rsp + 200], rax
ffffffff8000d6c5: 49 8b 41 18          	mov	rax, qword ptr [r9 + 24]
ffffffff8000d6c9: 48 89 84 24 c0 00 00 00      	mov	qword ptr [rsp + 192], rax
ffffffff8000d6d1: 49 8b 41 10          	mov	rax, qword ptr [r9 + 16]
ffffffff8000d6d5: 48 89 84 24 b8 00 00 00      	mov	qword ptr [rsp + 184], rax
ffffffff8000d6dd: 49 8b 01             	mov	rax, qword ptr [r9]
ffffffff8000d6e0: 49 8b 49 08          	mov	rcx, qword ptr [r9 + 8]
ffffffff8000d6e4: 48 89 8c 24 b0 00 00 00      	mov	qword ptr [rsp + 176], rcx
ffffffff8000d6ec: 48 89 84 24 a8 00 00 00      	mov	qword ptr [rsp + 168], rax
ffffffff8000d6f4: 48 8d 44 24 08       	lea	rax, [rsp + 8]
ffffffff8000d6f9: 48 89 44 24 38       	mov	qword ptr [rsp + 56], rax
ffffffff8000d6fe: 48 8d 05 6b 27 00 00 	lea	rax, [rip + 10091]      # 0xffffffff8000fe70 <_ZN44_$LT$$RF$T$u20$as$u20$core..fmt..Display$GT$3fmt17h8db085f9c3579155E>
ffffffff8000d705: 48 89 44 24 40       	mov	qword ptr [rsp + 64], rax
ffffffff8000d70a: 48 8d 44 24 18       	lea	rax, [rsp + 24]
ffffffff8000d70f: 48 89 44 24 48       	mov	qword ptr [rsp + 72], rax
ffffffff8000d714: 48 8d 05 b5 26 00 00 	lea	rax, [rip + 9909]       # 0xffffffff8000fdd0 <_ZN42_$LT$$RF$T$u20$as$u20$core..fmt..Debug$GT$3fmt17haa34a3a54d8a09ceE>
ffffffff8000d71b: 48 89 44 24 50       	mov	qword ptr [rsp + 80], rax
ffffffff8000d720: 48 8d 4c 24 28       	lea	rcx, [rsp + 40]
ffffffff8000d725: 48 89 4c 24 58       	mov	qword ptr [rsp + 88], rcx
ffffffff8000d72a: 48 89 44 24 60       	mov	qword ptr [rsp + 96], rax
ffffffff8000d72f: 48 8d 84 24 a8 00 00 00      	lea	rax, [rsp + 168]
ffffffff8000d737: 48 89 44 24 68       	mov	qword ptr [rsp + 104], rax
ffffffff8000d73c: 48 8b 05 6d 4a 00 00 	mov	rax, qword ptr [rip + 19053] # 0xffffffff800121b0 <xr6aouzjkjmurg0+0xffffffff800121b0>
ffffffff8000d743: 48 89 44 24 70       	mov	qword ptr [rsp + 112], rax
ffffffff8000d748: 48 8d 05 c1 46 00 00 	lea	rax, [rip + 18113]      # 0xffffffff80011e10 <xr6aouzjkjmurg0+0xffffffff80011e10>
ffffffff8000d74f: 48 89 84 24 88 00 00 00      	mov	qword ptr [rsp + 136], rax
ffffffff8000d757: 48 c7 84 24 90 00 00 00 04 00 00 00  	mov	qword ptr [rsp + 144], 4
ffffffff8000d763: 48 c7 44 24 78 00 00 00 00   	mov	qword ptr [rsp + 120], 0
ffffffff8000d76c: 48 8d 44 24 38       	lea	rax, [rsp + 56]
ffffffff8000d771: 48 89 84 24 98 00 00 00      	mov	qword ptr [rsp + 152], rax
ffffffff8000d779: 48 c7 84 24 a0 00 00 00 04 00 00 00  	mov	qword ptr [rsp + 160], 4
ffffffff8000d785: 48 8d 7c 24 78       	lea	rdi, [rsp + 120]
ffffffff8000d78a: ff 15 90 49 00 00    	call	qword ptr [rip + 18832] # 0xffffffff80012120 <xr6aouzjkjmurg0+0xffffffff80012120>
ffffffff8000d790: 0f 0b                	ud2
ffffffff8000d792: cc                   	int3
ffffffff8000d793: cc                   	int3
ffffffff8000d794: cc                   	int3
ffffffff8000d795: cc                   	int3
ffffffff8000d796: cc                   	int3
ffffffff8000d797: cc                   	int3
ffffffff8000d798: cc                   	int3
ffffffff8000d799: cc                   	int3
ffffffff8000d79a: cc                   	int3
ffffffff8000d79b: cc                   	int3
ffffffff8000d79c: cc                   	int3
ffffffff8000d79d: cc                   	int3
ffffffff8000d79e: cc                   	int3
ffffffff8000d79f: cc                   	int3

ffffffff8000d7a0 <_ZN4core6result13unwrap_failed17h4845e748ed44aefaE>:
ffffffff8000d7a0: 48 83 ec 78          	sub	rsp, 120
ffffffff8000d7a4: 48 89 7c 24 08       	mov	qword ptr [rsp + 8], rdi
ffffffff8000d7a9: 48 89 74 24 10       	mov	qword ptr [rsp + 16], rsi
ffffffff8000d7ae: 48 89 54 24 18       	mov	qword ptr [rsp + 24], rdx
ffffffff8000d7b3: 48 89 4c 24 20       	mov	qword ptr [rsp + 32], rcx
ffffffff8000d7b8: 48 8d 44 24 08       	lea	rax, [rsp + 8]
ffffffff8000d7bd: 48 89 44 24 28       	mov	qword ptr [rsp + 40], rax
ffffffff8000d7c2: 48 8d 05 a7 26 00 00 	lea	rax, [rip + 9895]       # 0xffffffff8000fe70 <_ZN44_$LT$$RF$T$u20$as$u20$core..fmt..Display$GT$3fmt17h8db085f9c3579155E>
ffffffff8000d7c9: 48 89 44 24 30       	mov	qword ptr [rsp + 48], rax
ffffffff8000d7ce: 48 8d 44 24 18       	lea	rax, [rsp + 24]
ffffffff8000d7d3: 48 89 44 24 38       	mov	qword ptr [rsp + 56], rax
ffffffff8000d7d8: 48 8d 05 f1 25 00 00 	lea	rax, [rip + 9713]       # 0xffffffff8000fdd0 <_ZN42_$LT$$RF$T$u20$as$u20$core..fmt..Debug$GT$3fmt17haa34a3a54d8a09ceE>
ffffffff8000d7df: 48 89 44 24 40       	mov	qword ptr [rsp + 64], rax
ffffffff8000d7e4: 48 8d 05 a5 46 00 00 	lea	rax, [rip + 18085]      # 0xffffffff80011e90 <xr6aouzjkjmurg0+0xffffffff80011e90>
ffffffff8000d7eb: 48 89 44 24 58       	mov	qword ptr [rsp + 88], rax
ffffffff8000d7f0: 48 c7 44 24 60 02 00 00 00   	mov	qword ptr [rsp + 96], 2
ffffffff8000d7f9: 48 c7 44 24 48 00 00 00 00   	mov	qword ptr [rsp + 72], 0
ffffffff8000d802: 48 8d 44 24 28       	lea	rax, [rsp + 40]
ffffffff8000d807: 48 89 44 24 68       	mov	qword ptr [rsp + 104], rax
ffffffff8000d80c: 48 c7 44 24 70 02 00 00 00   	mov	qword ptr [rsp + 112], 2
ffffffff8000d815: 48 8d 7c 24 48       	lea	rdi, [rsp + 72]
ffffffff8000d81a: 4c 89 c6             	mov	rsi, r8
ffffffff8000d81d: ff 15 fd 48 00 00    	call	qword ptr [rip + 18685] # 0xffffffff80012120 <xr6aouzjkjmurg0+0xffffffff80012120>
ffffffff8000d823: 0f 0b                	ud2
ffffffff8000d825: cc                   	int3
ffffffff8000d826: cc                   	int3
ffffffff8000d827: cc                   	int3
ffffffff8000d828: cc                   	int3
ffffffff8000d829: cc                   	int3
ffffffff8000d82a: cc                   	int3
ffffffff8000d82b: cc                   	int3
ffffffff8000d82c: cc                   	int3
ffffffff8000d82d: cc                   	int3
ffffffff8000d82e: cc                   	int3
ffffffff8000d82f: cc                   	int3

ffffffff8000d830 <_ZN68_$LT$core..fmt..builders..PadAdapter$u20$as$u20$core..fmt..Write$GT$9write_str17h2d203938172c4c41E>:
ffffffff8000d830: 55                   	push	rbp
ffffffff8000d831: 41 57                	push	r15
ffffffff8000d833: 41 56                	push	r14
ffffffff8000d835: 41 55                	push	r13
ffffffff8000d837: 41 54                	push	r12
ffffffff8000d839: 53                   	push	rbx
ffffffff8000d83a: 48 83 ec 68          	sub	rsp, 104
ffffffff8000d83e: 48 89 d5             	mov	rbp, rdx
ffffffff8000d841: 49 89 f6             	mov	r14, rsi
ffffffff8000d844: 48 89 74 24 20       	mov	qword ptr [rsp + 32], rsi
ffffffff8000d849: 48 89 54 24 28       	mov	qword ptr [rsp + 40], rdx
ffffffff8000d84e: 48 c7 44 24 30 00 00 00 00   	mov	qword ptr [rsp + 48], 0
ffffffff8000d857: 48 89 54 24 38       	mov	qword ptr [rsp + 56], rdx
ffffffff8000d85c: 48 c7 44 24 40 01 00 00 00   	mov	qword ptr [rsp + 64], 1
ffffffff8000d865: c7 44 24 48 0a 00 00 00      	mov	dword ptr [rsp + 72], 10
ffffffff8000d86d: 48 8b 47 10          	mov	rax, qword ptr [rdi + 16]
ffffffff8000d871: 48 89 44 24 18       	mov	qword ptr [rsp + 24], rax
ffffffff8000d876: 48 8b 07             	mov	rax, qword ptr [rdi]
ffffffff8000d879: 48 89 44 24 10       	mov	qword ptr [rsp + 16], rax
ffffffff8000d87e: 48 8b 47 08          	mov	rax, qword ptr [rdi + 8]
ffffffff8000d882: 48 89 44 24 08       	mov	qword ptr [rsp + 8], rax
ffffffff8000d887: 45 31 ed             	xor	r13d, r13d
ffffffff8000d88a: 31 db                	xor	ebx, ebx
ffffffff8000d88c: c7 44 24 04 00 00 00 00      	mov	dword ptr [rsp + 4], 0
ffffffff8000d894: eb 31                	jmp	0xffffffff8000d8c7 <_ZN68_$LT$core..fmt..builders..PadAdapter$u20$as$u20$core..fmt..Write$GT$9write_str17h2d203938172c4c41E+0x97>
ffffffff8000d896: 66 2e 0f 1f 84 00 00 00 00 00	nop	word ptr cs:[rax + rax]
ffffffff8000d8a0: 80 7c 32 ff 0a       	cmp	byte ptr [rdx + rsi - 1], 10
ffffffff8000d8a5: 0f 94 c0             	sete	al
ffffffff8000d8a8: 48 8b 4c 24 18       	mov	rcx, qword ptr [rsp + 24]
ffffffff8000d8ad: 88 01                	mov	byte ptr [rcx], al
ffffffff8000d8af: 48 8b 7c 24 10       	mov	rdi, qword ptr [rsp + 16]
ffffffff8000d8b4: 48 8b 44 24 08       	mov	rax, qword ptr [rsp + 8]
ffffffff8000d8b9: ff 50 18             	call	qword ptr [rax + 24]
ffffffff8000d8bc: 4d 89 fd             	mov	r13, r15
ffffffff8000d8bf: 84 c0                	test	al, al
ffffffff8000d8c1: 0f 85 12 01 00 00    	jne	0xffffffff8000d9d9 <_ZN68_$LT$core..fmt..builders..PadAdapter$u20$as$u20$core..fmt..Write$GT$9write_str17h2d203938172c4c41E+0x1a9>
ffffffff8000d8c7: 80 7c 24 04 00       	cmp	byte ptr [rsp + 4], 0
ffffffff8000d8cc: 0f 85 03 01 00 00    	jne	0xffffffff8000d9d5 <_ZN68_$LT$core..fmt..builders..PadAdapter$u20$as$u20$core..fmt..Write$GT$9write_str17h2d203938172c4c41E+0x1a5>
ffffffff8000d8d2: 48 39 eb             	cmp	rbx, rbp
ffffffff8000d8d5: 0f 87 a8 00 00 00    	ja	0xffffffff8000d983 <_ZN68_$LT$core..fmt..builders..PadAdapter$u20$as$u20$core..fmt..Write$GT$9write_str17h2d203938172c4c41E+0x153>
ffffffff8000d8db: 41 b7 0a             	mov	r15b, 10
ffffffff8000d8de: 4c 8b 25 73 49 00 00 	mov	r12, qword ptr [rip + 18803] # 0xffffffff80012258 <xr6aouzjkjmurg0+0xffffffff80012258>
ffffffff8000d8e5: eb 12                	jmp	0xffffffff8000d8f9 <_ZN68_$LT$core..fmt..builders..PadAdapter$u20$as$u20$core..fmt..Write$GT$9write_str17h2d203938172c4c41E+0xc9>
ffffffff8000d8e7: 66 0f 1f 84 00 00 00 00 00   	nop	word ptr [rax + rax]
ffffffff8000d8f0: 48 39 eb             	cmp	rbx, rbp
ffffffff8000d8f3: 0f 87 8a 00 00 00    	ja	0xffffffff8000d983 <_ZN68_$LT$core..fmt..builders..PadAdapter$u20$as$u20$core..fmt..Write$GT$9write_str17h2d203938172c4c41E+0x153>
ffffffff8000d8f9: 48 89 e8             	mov	rax, rbp
ffffffff8000d8fc: 48 29 d8             	sub	rax, rbx
ffffffff8000d8ff: 49 8d 34 1e          	lea	rsi, [r14 + rbx]
ffffffff8000d903: 48 83 f8 10          	cmp	rax, 16
ffffffff8000d907: 73 27                	jae	0xffffffff8000d930 <_ZN68_$LT$core..fmt..builders..PadAdapter$u20$as$u20$core..fmt..Write$GT$9write_str17h2d203938172c4c41E+0x100>
ffffffff8000d909: 31 d2                	xor	edx, edx
ffffffff8000d90b: 48 85 c0             	test	rax, rax
ffffffff8000d90e: 74 11                	je	0xffffffff8000d921 <_ZN68_$LT$core..fmt..builders..PadAdapter$u20$as$u20$core..fmt..Write$GT$9write_str17h2d203938172c4c41E+0xf1>
ffffffff8000d910: 80 3c 16 0a          	cmp	byte ptr [rsi + rdx], 10
ffffffff8000d914: 74 2d                	je	0xffffffff8000d943 <_ZN68_$LT$core..fmt..builders..PadAdapter$u20$as$u20$core..fmt..Write$GT$9write_str17h2d203938172c4c41E+0x113>
ffffffff8000d916: 48 ff c2             	inc	rdx
ffffffff8000d919: 48 39 d0             	cmp	rax, rdx
ffffffff8000d91c: 75 f2                	jne	0xffffffff8000d910 <_ZN68_$LT$core..fmt..builders..PadAdapter$u20$as$u20$core..fmt..Write$GT$9write_str17h2d203938172c4c41E+0xe0>
ffffffff8000d91e: 48 89 c2             	mov	rdx, rax
ffffffff8000d921: 31 c0                	xor	eax, eax
ffffffff8000d923: 48 83 f8 01          	cmp	rax, 1
ffffffff8000d927: 74 27                	je	0xffffffff8000d950 <_ZN68_$LT$core..fmt..builders..PadAdapter$u20$as$u20$core..fmt..Write$GT$9write_str17h2d203938172c4c41E+0x120>
ffffffff8000d929: eb 55                	jmp	0xffffffff8000d980 <_ZN68_$LT$core..fmt..builders..PadAdapter$u20$as$u20$core..fmt..Write$GT$9write_str17h2d203938172c4c41E+0x150>
ffffffff8000d92b: 0f 1f 44 00 00       	nop	dword ptr [rax + rax]
ffffffff8000d930: bf 0a 00 00 00       	mov	edi, 10
ffffffff8000d935: 48 89 c2             	mov	rdx, rax
ffffffff8000d938: 41 ff d4             	call	r12
ffffffff8000d93b: 48 83 f8 01          	cmp	rax, 1
ffffffff8000d93f: 74 0f                	je	0xffffffff8000d950 <_ZN68_$LT$core..fmt..builders..PadAdapter$u20$as$u20$core..fmt..Write$GT$9write_str17h2d203938172c4c41E+0x120>
ffffffff8000d941: eb 3d                	jmp	0xffffffff8000d980 <_ZN68_$LT$core..fmt..builders..PadAdapter$u20$as$u20$core..fmt..Write$GT$9write_str17h2d203938172c4c41E+0x150>
ffffffff8000d943: b8 01 00 00 00       	mov	eax, 1
ffffffff8000d948: 48 83 f8 01          	cmp	rax, 1
ffffffff8000d94c: 75 32                	jne	0xffffffff8000d980 <_ZN68_$LT$core..fmt..builders..PadAdapter$u20$as$u20$core..fmt..Write$GT$9write_str17h2d203938172c4c41E+0x150>
ffffffff8000d94e: 66 90                	nop
ffffffff8000d950: 48 89 d8             	mov	rax, rbx
ffffffff8000d953: 48 01 d0             	add	rax, rdx
ffffffff8000d956: 48 89 c3             	mov	rbx, rax
ffffffff8000d959: 48 ff c3             	inc	rbx
ffffffff8000d95c: 74 92                	je	0xffffffff8000d8f0 <_ZN68_$LT$core..fmt..builders..PadAdapter$u20$as$u20$core..fmt..Write$GT$9write_str17h2d203938172c4c41E+0xc0>
ffffffff8000d95e: 48 39 eb             	cmp	rbx, rbp
ffffffff8000d961: 77 8d                	ja	0xffffffff8000d8f0 <_ZN68_$LT$core..fmt..builders..PadAdapter$u20$as$u20$core..fmt..Write$GT$9write_str17h2d203938172c4c41E+0xc0>
ffffffff8000d963: 45 38 3c 06          	cmp	byte ptr [r14 + rax], r15b
ffffffff8000d967: 75 87                	jne	0xffffffff8000d8f0 <_ZN68_$LT$core..fmt..builders..PadAdapter$u20$as$u20$core..fmt..Write$GT$9write_str17h2d203938172c4c41E+0xc0>
ffffffff8000d969: 31 c0                	xor	eax, eax
ffffffff8000d96b: 49 89 df             	mov	r15, rbx
ffffffff8000d96e: 49 89 dc             	mov	r12, rbx
ffffffff8000d971: eb 1d                	jmp	0xffffffff8000d990 <_ZN68_$LT$core..fmt..builders..PadAdapter$u20$as$u20$core..fmt..Write$GT$9write_str17h2d203938172c4c41E+0x160>
ffffffff8000d973: 66 66 66 66 2e 0f 1f 84 00 00 00 00 00       	nop	word ptr cs:[rax + rax]
ffffffff8000d980: 48 89 eb             	mov	rbx, rbp
ffffffff8000d983: b0 01                	mov	al, 1
ffffffff8000d985: 4d 89 ef             	mov	r15, r13
ffffffff8000d988: 49 89 ec             	mov	r12, rbp
ffffffff8000d98b: 49 39 ed             	cmp	r13, rbp
ffffffff8000d98e: 74 45                	je	0xffffffff8000d9d5 <_ZN68_$LT$core..fmt..builders..PadAdapter$u20$as$u20$core..fmt..Write$GT$9write_str17h2d203938172c4c41E+0x1a5>
ffffffff8000d990: 89 44 24 04          	mov	dword ptr [rsp + 4], eax
ffffffff8000d994: 48 8b 44 24 18       	mov	rax, qword ptr [rsp + 24]
ffffffff8000d999: 80 38 00             	cmp	byte ptr [rax], 0
ffffffff8000d99c: 74 1d                	je	0xffffffff8000d9bb <_ZN68_$LT$core..fmt..builders..PadAdapter$u20$as$u20$core..fmt..Write$GT$9write_str17h2d203938172c4c41E+0x18b>
ffffffff8000d99e: ba 04 00 00 00       	mov	edx, 4
ffffffff8000d9a3: 48 8b 7c 24 10       	mov	rdi, qword ptr [rsp + 16]
ffffffff8000d9a8: 48 8d 35 0d 41 ff ff 	lea	rsi, [rip - 48883]      # 0xffffffff80001abc <str.0+0x2c>
ffffffff8000d9af: 48 8b 44 24 08       	mov	rax, qword ptr [rsp + 8]
ffffffff8000d9b4: ff 50 18             	call	qword ptr [rax + 24]
ffffffff8000d9b7: 84 c0                	test	al, al
ffffffff8000d9b9: 75 1e                	jne	0xffffffff8000d9d9 <_ZN68_$LT$core..fmt..builders..PadAdapter$u20$as$u20$core..fmt..Write$GT$9write_str17h2d203938172c4c41E+0x1a9>
ffffffff8000d9bb: 4c 89 e2             	mov	rdx, r12
ffffffff8000d9be: 4c 29 ea             	sub	rdx, r13
ffffffff8000d9c1: 4b 8d 34 2e          	lea	rsi, [r14 + r13]
ffffffff8000d9c5: 4d 39 ec             	cmp	r12, r13
ffffffff8000d9c8: 0f 85 d2 fe ff ff    	jne	0xffffffff8000d8a0 <_ZN68_$LT$core..fmt..builders..PadAdapter$u20$as$u20$core..fmt..Write$GT$9write_str17h2d203938172c4c41E+0x70>
ffffffff8000d9ce: 31 c0                	xor	eax, eax
ffffffff8000d9d0: e9 d3 fe ff ff       	jmp	0xffffffff8000d8a8 <_ZN68_$LT$core..fmt..builders..PadAdapter$u20$as$u20$core..fmt..Write$GT$9write_str17h2d203938172c4c41E+0x78>
ffffffff8000d9d5: 31 c0                	xor	eax, eax
ffffffff8000d9d7: eb 02                	jmp	0xffffffff8000d9db <_ZN68_$LT$core..fmt..builders..PadAdapter$u20$as$u20$core..fmt..Write$GT$9write_str17h2d203938172c4c41E+0x1ab>
ffffffff8000d9d9: b0 01                	mov	al, 1
ffffffff8000d9db: 48 83 c4 68          	add	rsp, 104
ffffffff8000d9df: 5b                   	pop	rbx
ffffffff8000d9e0: 41 5c                	pop	r12
ffffffff8000d9e2: 41 5d                	pop	r13
ffffffff8000d9e4: 41 5e                	pop	r14
ffffffff8000d9e6: 41 5f                	pop	r15
ffffffff8000d9e8: 5d                   	pop	rbp
ffffffff8000d9e9: c3                   	ret
ffffffff8000d9ea: cc                   	int3
ffffffff8000d9eb: cc                   	int3
ffffffff8000d9ec: cc                   	int3
ffffffff8000d9ed: cc                   	int3
ffffffff8000d9ee: cc                   	int3
ffffffff8000d9ef: cc                   	int3

ffffffff8000d9f0 <_ZN4core3fmt8builders11DebugStruct5field17hbe2582f6f1ef2c72E>:
ffffffff8000d9f0: 55                   	push	rbp
ffffffff8000d9f1: 41 57                	push	r15
ffffffff8000d9f3: 41 56                	push	r14
ffffffff8000d9f5: 41 55                	push	r13
ffffffff8000d9f7: 41 54                	push	r12
ffffffff8000d9f9: 53                   	push	rbx
ffffffff8000d9fa: 48 83 ec 68          	sub	rsp, 104
ffffffff8000d9fe: 48 89 fb             	mov	rbx, rdi
ffffffff8000da01: 41 b4 01             	mov	r12b, 1
ffffffff8000da04: 80 7f 08 00          	cmp	byte ptr [rdi + 8], 0
ffffffff8000da08: 74 1a                	je	0xffffffff8000da24 <_ZN4core3fmt8builders11DebugStruct5field17hbe2582f6f1ef2c72E+0x34>
ffffffff8000da0a: 44 88 63 08          	mov	byte ptr [rbx + 8], r12b
ffffffff8000da0e: c6 43 09 01          	mov	byte ptr [rbx + 9], 1
ffffffff8000da12: 48 89 d8             	mov	rax, rbx
ffffffff8000da15: 48 83 c4 68          	add	rsp, 104
ffffffff8000da19: 5b                   	pop	rbx
ffffffff8000da1a: 41 5c                	pop	r12
ffffffff8000da1c: 41 5d                	pop	r13
ffffffff8000da1e: 41 5e                	pop	r14
ffffffff8000da20: 41 5f                	pop	r15
ffffffff8000da22: 5d                   	pop	rbp
ffffffff8000da23: c3                   	ret
ffffffff8000da24: 49 89 cf             	mov	r15, rcx
ffffffff8000da27: 49 89 d5             	mov	r13, rdx
ffffffff8000da2a: 49 89 f6             	mov	r14, rsi
ffffffff8000da2d: 48 8b 2b             	mov	rbp, qword ptr [rbx]
ffffffff8000da30: 8b 45 30             	mov	eax, dword ptr [rbp + 48]
ffffffff8000da33: 0f b6 4b 09          	movzx	ecx, byte ptr [rbx + 9]
ffffffff8000da37: a8 04                	test	al, 4
ffffffff8000da39: 4c 89 44 24 08       	mov	qword ptr [rsp + 8], r8
ffffffff8000da3e: 75 73                	jne	0xffffffff8000dab3 <_ZN4core3fmt8builders11DebugStruct5field17hbe2582f6f1ef2c72E+0xc3>
ffffffff8000da40: 31 d2                	xor	edx, edx
ffffffff8000da42: 84 c9                	test	cl, cl
ffffffff8000da44: 48 8d 05 20 4b ff ff 	lea	rax, [rip - 46304]      # 0xffffffff8000256b <str.3+0x10b>
ffffffff8000da4b: 48 8d 35 17 4b ff ff 	lea	rsi, [rip - 46313]      # 0xffffffff80002569 <str.3+0x109>
ffffffff8000da52: 48 0f 44 f0          	cmove	rsi, rax
ffffffff8000da56: 0f 94 c2             	sete	dl
ffffffff8000da59: 48 83 ca 02          	or	rdx, 2
ffffffff8000da5d: 48 8b 7d 00          	mov	rdi, qword ptr [rbp]
ffffffff8000da61: 48 8b 45 08          	mov	rax, qword ptr [rbp + 8]
ffffffff8000da65: ff 50 18             	call	qword ptr [rax + 24]
ffffffff8000da68: 84 c0                	test	al, al
ffffffff8000da6a: 75 9e                	jne	0xffffffff8000da0a <_ZN4core3fmt8builders11DebugStruct5field17hbe2582f6f1ef2c72E+0x1a>
ffffffff8000da6c: 48 8b 7d 00          	mov	rdi, qword ptr [rbp]
ffffffff8000da70: 48 8b 45 08          	mov	rax, qword ptr [rbp + 8]
ffffffff8000da74: 4c 89 f6             	mov	rsi, r14
ffffffff8000da77: 4c 89 ea             	mov	rdx, r13
ffffffff8000da7a: ff 50 18             	call	qword ptr [rax + 24]
ffffffff8000da7d: 84 c0                	test	al, al
ffffffff8000da7f: 75 89                	jne	0xffffffff8000da0a <_ZN4core3fmt8builders11DebugStruct5field17hbe2582f6f1ef2c72E+0x1a>
ffffffff8000da81: 48 8b 7d 00          	mov	rdi, qword ptr [rbp]
ffffffff8000da85: 48 8b 45 08          	mov	rax, qword ptr [rbp + 8]
ffffffff8000da89: 48 8d 35 d2 4a ff ff 	lea	rsi, [rip - 46382]      # 0xffffffff80002562 <str.3+0x102>
ffffffff8000da90: ba 02 00 00 00       	mov	edx, 2
ffffffff8000da95: ff 50 18             	call	qword ptr [rax + 24]
ffffffff8000da98: 84 c0                	test	al, al
ffffffff8000da9a: 0f 85 6a ff ff ff    	jne	0xffffffff8000da0a <_ZN4core3fmt8builders11DebugStruct5field17hbe2582f6f1ef2c72E+0x1a>
ffffffff8000daa0: 4c 89 ff             	mov	rdi, r15
ffffffff8000daa3: 48 89 ee             	mov	rsi, rbp
ffffffff8000daa6: 48 8b 44 24 08       	mov	rax, qword ptr [rsp + 8]
ffffffff8000daab: ff 50 18             	call	qword ptr [rax + 24]
ffffffff8000daae: e9 f8 00 00 00       	jmp	0xffffffff8000dbab <_ZN4core3fmt8builders11DebugStruct5field17hbe2582f6f1ef2c72E+0x1bb>
ffffffff8000dab3: 84 c9                	test	cl, cl
ffffffff8000dab5: 75 22                	jne	0xffffffff8000dad9 <_ZN4core3fmt8builders11DebugStruct5field17hbe2582f6f1ef2c72E+0xe9>
ffffffff8000dab7: 48 8b 7d 00          	mov	rdi, qword ptr [rbp]
ffffffff8000dabb: 48 8b 45 08          	mov	rax, qword ptr [rbp + 8]
ffffffff8000dabf: 48 8d 35 9e 4a ff ff 	lea	rsi, [rip - 46434]      # 0xffffffff80002564 <str.3+0x104>
ffffffff8000dac6: ba 03 00 00 00       	mov	edx, 3
ffffffff8000dacb: ff 50 18             	call	qword ptr [rax + 24]
ffffffff8000dace: 84 c0                	test	al, al
ffffffff8000dad0: 0f 85 34 ff ff ff    	jne	0xffffffff8000da0a <_ZN4core3fmt8builders11DebugStruct5field17hbe2582f6f1ef2c72E+0x1a>
ffffffff8000dad6: 8b 45 30             	mov	eax, dword ptr [rbp + 48]
ffffffff8000dad9: c6 44 24 07 01       	mov	byte ptr [rsp + 7], 1
ffffffff8000dade: 48 8b 4d 00          	mov	rcx, qword ptr [rbp]
ffffffff8000dae2: 48 8b 55 08          	mov	rdx, qword ptr [rbp + 8]
ffffffff8000dae6: 48 89 4c 24 10       	mov	qword ptr [rsp + 16], rcx
ffffffff8000daeb: 48 89 54 24 18       	mov	qword ptr [rsp + 24], rdx
ffffffff8000daf0: 48 8d 4c 24 07       	lea	rcx, [rsp + 7]
ffffffff8000daf5: 48 89 4c 24 20       	mov	qword ptr [rsp + 32], rcx
ffffffff8000dafa: 8b 4d 34             	mov	ecx, dword ptr [rbp + 52]
ffffffff8000dafd: 0f b6 55 38          	movzx	edx, byte ptr [rbp + 56]
ffffffff8000db01: 48 8b 75 10          	mov	rsi, qword ptr [rbp + 16]
ffffffff8000db05: 48 8b 7d 18          	mov	rdi, qword ptr [rbp + 24]
ffffffff8000db09: 4c 8b 45 20          	mov	r8, qword ptr [rbp + 32]
ffffffff8000db0d: 48 8b 6d 28          	mov	rbp, qword ptr [rbp + 40]
ffffffff8000db11: 89 44 24 58          	mov	dword ptr [rsp + 88], eax
ffffffff8000db15: 89 4c 24 5c          	mov	dword ptr [rsp + 92], ecx
ffffffff8000db19: 88 54 24 60          	mov	byte ptr [rsp + 96], dl
ffffffff8000db1d: 48 89 74 24 38       	mov	qword ptr [rsp + 56], rsi
ffffffff8000db22: 48 89 7c 24 40       	mov	qword ptr [rsp + 64], rdi
ffffffff8000db27: 4c 89 44 24 48       	mov	qword ptr [rsp + 72], r8
ffffffff8000db2c: 48 89 6c 24 50       	mov	qword ptr [rsp + 80], rbp
ffffffff8000db31: 48 8d 7c 24 10       	lea	rdi, [rsp + 16]
ffffffff8000db36: 48 89 7c 24 28       	mov	qword ptr [rsp + 40], rdi
ffffffff8000db3b: 48 8d 05 6e 43 00 00 	lea	rax, [rip + 17262]      # 0xffffffff80011eb0 <xr6aouzjkjmurg0+0xffffffff80011eb0>
ffffffff8000db42: 48 89 44 24 30       	mov	qword ptr [rsp + 48], rax
ffffffff8000db47: 4c 89 f6             	mov	rsi, r14
ffffffff8000db4a: 4c 89 ea             	mov	rdx, r13
ffffffff8000db4d: ff 15 25 47 00 00    	call	qword ptr [rip + 18213] # 0xffffffff80012278 <xr6aouzjkjmurg0+0xffffffff80012278>
ffffffff8000db53: 84 c0                	test	al, al
ffffffff8000db55: 0f 85 af fe ff ff    	jne	0xffffffff8000da0a <_ZN4core3fmt8builders11DebugStruct5field17hbe2582f6f1ef2c72E+0x1a>
ffffffff8000db5b: 48 8d 35 00 4a ff ff 	lea	rsi, [rip - 46592]      # 0xffffffff80002562 <str.3+0x102>
ffffffff8000db62: 48 8d 7c 24 10       	lea	rdi, [rsp + 16]
ffffffff8000db67: ba 02 00 00 00       	mov	edx, 2
ffffffff8000db6c: ff 15 06 47 00 00    	call	qword ptr [rip + 18182] # 0xffffffff80012278 <xr6aouzjkjmurg0+0xffffffff80012278>
ffffffff8000db72: 84 c0                	test	al, al
ffffffff8000db74: 0f 85 90 fe ff ff    	jne	0xffffffff8000da0a <_ZN4core3fmt8builders11DebugStruct5field17hbe2582f6f1ef2c72E+0x1a>
ffffffff8000db7a: 48 8d 74 24 28       	lea	rsi, [rsp + 40]
ffffffff8000db7f: 4c 89 ff             	mov	rdi, r15
ffffffff8000db82: 48 8b 44 24 08       	mov	rax, qword ptr [rsp + 8]
ffffffff8000db87: ff 50 18             	call	qword ptr [rax + 24]
ffffffff8000db8a: 84 c0                	test	al, al
ffffffff8000db8c: 0f 85 78 fe ff ff    	jne	0xffffffff8000da0a <_ZN4core3fmt8builders11DebugStruct5field17hbe2582f6f1ef2c72E+0x1a>
ffffffff8000db92: 48 8b 7c 24 28       	mov	rdi, qword ptr [rsp + 40]
ffffffff8000db97: 48 8b 44 24 30       	mov	rax, qword ptr [rsp + 48]
ffffffff8000db9c: 48 8d 35 c4 49 ff ff 	lea	rsi, [rip - 46652]      # 0xffffffff80002567 <str.3+0x107>
ffffffff8000dba3: ba 02 00 00 00       	mov	edx, 2
ffffffff8000dba8: ff 50 18             	call	qword ptr [rax + 24]
ffffffff8000dbab: 41 89 c4             	mov	r12d, eax
ffffffff8000dbae: e9 57 fe ff ff       	jmp	0xffffffff8000da0a <_ZN4core3fmt8builders11DebugStruct5field17hbe2582f6f1ef2c72E+0x1a>
ffffffff8000dbb3: cc                   	int3
ffffffff8000dbb4: cc                   	int3
ffffffff8000dbb5: cc                   	int3
ffffffff8000dbb6: cc                   	int3
ffffffff8000dbb7: cc                   	int3
ffffffff8000dbb8: cc                   	int3
ffffffff8000dbb9: cc                   	int3
ffffffff8000dbba: cc                   	int3
ffffffff8000dbbb: cc                   	int3
ffffffff8000dbbc: cc                   	int3
ffffffff8000dbbd: cc                   	int3
ffffffff8000dbbe: cc                   	int3
ffffffff8000dbbf: cc                   	int3

ffffffff8000dbc0 <_ZN4core3fmt8builders10DebugTuple5field17h4dfea618273e3b6cE>:
ffffffff8000dbc0: 41 57                	push	r15
ffffffff8000dbc2: 41 56                	push	r14
ffffffff8000dbc4: 41 55                	push	r13
ffffffff8000dbc6: 41 54                	push	r12
ffffffff8000dbc8: 53                   	push	rbx
ffffffff8000dbc9: 48 83 ec 60          	sub	rsp, 96
ffffffff8000dbcd: 48 89 fb             	mov	rbx, rdi
ffffffff8000dbd0: 80 7f 10 00          	cmp	byte ptr [rdi + 16], 0
ffffffff8000dbd4: 74 1f                	je	0xffffffff8000dbf5 <_ZN4core3fmt8builders10DebugTuple5field17h4dfea618273e3b6cE+0x35>
ffffffff8000dbd6: 4c 8b 2b             	mov	r13, qword ptr [rbx]
ffffffff8000dbd9: b0 01                	mov	al, 1
ffffffff8000dbdb: 88 43 10             	mov	byte ptr [rbx + 16], al
ffffffff8000dbde: 49 ff c5             	inc	r13
ffffffff8000dbe1: 4c 89 2b             	mov	qword ptr [rbx], r13
ffffffff8000dbe4: 48 89 d8             	mov	rax, rbx
ffffffff8000dbe7: 48 83 c4 60          	add	rsp, 96
ffffffff8000dbeb: 5b                   	pop	rbx
ffffffff8000dbec: 41 5c                	pop	r12
ffffffff8000dbee: 41 5d                	pop	r13
ffffffff8000dbf0: 41 5e                	pop	r14
ffffffff8000dbf2: 41 5f                	pop	r15
ffffffff8000dbf4: c3                   	ret
ffffffff8000dbf5: 49 89 d6             	mov	r14, rdx
ffffffff8000dbf8: 49 89 f7             	mov	r15, rsi
ffffffff8000dbfb: 4c 8b 2b             	mov	r13, qword ptr [rbx]
ffffffff8000dbfe: 4c 8b 63 08          	mov	r12, qword ptr [rbx + 8]
ffffffff8000dc02: 41 8b 44 24 30       	mov	eax, dword ptr [r12 + 48]
ffffffff8000dc07: a8 04                	test	al, 4
ffffffff8000dc09: 75 42                	jne	0xffffffff8000dc4d <_ZN4core3fmt8builders10DebugTuple5field17h4dfea618273e3b6cE+0x8d>
ffffffff8000dc0b: 31 c0                	xor	eax, eax
ffffffff8000dc0d: 4d 85 ed             	test	r13, r13
ffffffff8000dc10: 0f 94 c0             	sete	al
ffffffff8000dc13: 48 8d 0d 59 49 ff ff 	lea	rcx, [rip - 46759]      # 0xffffffff80002573 <str.3+0x113>
ffffffff8000dc1a: 48 8d 35 48 49 ff ff 	lea	rsi, [rip - 46776]      # 0xffffffff80002569 <str.3+0x109>
ffffffff8000dc21: 48 0f 44 f1          	cmove	rsi, rcx
ffffffff8000dc25: ba 02 00 00 00       	mov	edx, 2
ffffffff8000dc2a: 48 29 c2             	sub	rdx, rax
ffffffff8000dc2d: 49 8b 3c 24          	mov	rdi, qword ptr [r12]
ffffffff8000dc31: 49 8b 44 24 08       	mov	rax, qword ptr [r12 + 8]
ffffffff8000dc36: ff 50 18             	call	qword ptr [rax + 24]
ffffffff8000dc39: 89 c1                	mov	ecx, eax
ffffffff8000dc3b: b0 01                	mov	al, 1
ffffffff8000dc3d: 84 c9                	test	cl, cl
ffffffff8000dc3f: 75 9a                	jne	0xffffffff8000dbdb <_ZN4core3fmt8builders10DebugTuple5field17h4dfea618273e3b6cE+0x1b>
ffffffff8000dc41: 4c 89 ff             	mov	rdi, r15
ffffffff8000dc44: 4c 89 e6             	mov	rsi, r12
ffffffff8000dc47: 41 ff 56 18          	call	qword ptr [r14 + 24]
ffffffff8000dc4b: eb 8e                	jmp	0xffffffff8000dbdb <_ZN4core3fmt8builders10DebugTuple5field17h4dfea618273e3b6cE+0x1b>
ffffffff8000dc4d: 4d 85 ed             	test	r13, r13
ffffffff8000dc50: 75 2b                	jne	0xffffffff8000dc7d <_ZN4core3fmt8builders10DebugTuple5field17h4dfea618273e3b6cE+0xbd>
ffffffff8000dc52: 49 8b 3c 24          	mov	rdi, qword ptr [r12]
ffffffff8000dc56: 49 8b 44 24 08       	mov	rax, qword ptr [r12 + 8]
ffffffff8000dc5b: 48 8d 35 0f 49 ff ff 	lea	rsi, [rip - 46833]      # 0xffffffff80002571 <str.3+0x111>
ffffffff8000dc62: ba 02 00 00 00       	mov	edx, 2
ffffffff8000dc67: ff 50 18             	call	qword ptr [rax + 24]
ffffffff8000dc6a: 84 c0                	test	al, al
ffffffff8000dc6c: 74 0a                	je	0xffffffff8000dc78 <_ZN4core3fmt8builders10DebugTuple5field17h4dfea618273e3b6cE+0xb8>
ffffffff8000dc6e: b0 01                	mov	al, 1
ffffffff8000dc70: 45 31 ed             	xor	r13d, r13d
ffffffff8000dc73: e9 63 ff ff ff       	jmp	0xffffffff8000dbdb <_ZN4core3fmt8builders10DebugTuple5field17h4dfea618273e3b6cE+0x1b>
ffffffff8000dc78: 41 8b 44 24 30       	mov	eax, dword ptr [r12 + 48]
ffffffff8000dc7d: c6 44 24 07 01       	mov	byte ptr [rsp + 7], 1
ffffffff8000dc82: 49 8b 0c 24          	mov	rcx, qword ptr [r12]
ffffffff8000dc86: 49 8b 54 24 08       	mov	rdx, qword ptr [r12 + 8]
ffffffff8000dc8b: 48 89 4c 24 48       	mov	qword ptr [rsp + 72], rcx
ffffffff8000dc90: 48 89 54 24 50       	mov	qword ptr [rsp + 80], rdx
ffffffff8000dc95: 48 8d 4c 24 07       	lea	rcx, [rsp + 7]
ffffffff8000dc9a: 48 89 4c 24 58       	mov	qword ptr [rsp + 88], rcx
ffffffff8000dc9f: 41 8b 4c 24 34       	mov	ecx, dword ptr [r12 + 52]
ffffffff8000dca4: 41 0f b6 54 24 38    	movzx	edx, byte ptr [r12 + 56]
ffffffff8000dcaa: 49 8b 74 24 10       	mov	rsi, qword ptr [r12 + 16]
ffffffff8000dcaf: 49 8b 7c 24 18       	mov	rdi, qword ptr [r12 + 24]
ffffffff8000dcb4: 4d 8b 44 24 20       	mov	r8, qword ptr [r12 + 32]
ffffffff8000dcb9: 4d 8b 4c 24 28       	mov	r9, qword ptr [r12 + 40]
ffffffff8000dcbe: 89 44 24 38          	mov	dword ptr [rsp + 56], eax
ffffffff8000dcc2: 89 4c 24 3c          	mov	dword ptr [rsp + 60], ecx
ffffffff8000dcc6: 88 54 24 40          	mov	byte ptr [rsp + 64], dl
ffffffff8000dcca: 48 89 74 24 18       	mov	qword ptr [rsp + 24], rsi
ffffffff8000dccf: 48 89 7c 24 20       	mov	qword ptr [rsp + 32], rdi
ffffffff8000dcd4: 4c 89 44 24 28       	mov	qword ptr [rsp + 40], r8
ffffffff8000dcd9: 4c 89 4c 24 30       	mov	qword ptr [rsp + 48], r9
ffffffff8000dcde: 48 8d 44 24 48       	lea	rax, [rsp + 72]
ffffffff8000dce3: 48 89 44 24 08       	mov	qword ptr [rsp + 8], rax
ffffffff8000dce8: 48 8d 05 c1 41 00 00 	lea	rax, [rip + 16833]      # 0xffffffff80011eb0 <xr6aouzjkjmurg0+0xffffffff80011eb0>
ffffffff8000dcef: 48 89 44 24 10       	mov	qword ptr [rsp + 16], rax
ffffffff8000dcf4: 48 8d 74 24 08       	lea	rsi, [rsp + 8]
ffffffff8000dcf9: 4c 89 ff             	mov	rdi, r15
ffffffff8000dcfc: 41 ff 56 18          	call	qword ptr [r14 + 24]
ffffffff8000dd00: 84 c0                	test	al, al
ffffffff8000dd02: 0f 85 d1 fe ff ff    	jne	0xffffffff8000dbd9 <_ZN4core3fmt8builders10DebugTuple5field17h4dfea618273e3b6cE+0x19>
ffffffff8000dd08: 48 8b 7c 24 08       	mov	rdi, qword ptr [rsp + 8]
ffffffff8000dd0d: 48 8b 44 24 10       	mov	rax, qword ptr [rsp + 16]
ffffffff8000dd12: 48 8d 35 4e 48 ff ff 	lea	rsi, [rip - 47026]      # 0xffffffff80002567 <str.3+0x107>
ffffffff8000dd19: ba 02 00 00 00       	mov	edx, 2
ffffffff8000dd1e: ff 50 18             	call	qword ptr [rax + 24]
ffffffff8000dd21: e9 b5 fe ff ff       	jmp	0xffffffff8000dbdb <_ZN4core3fmt8builders10DebugTuple5field17h4dfea618273e3b6cE+0x1b>
ffffffff8000dd26: cc                   	int3
ffffffff8000dd27: cc                   	int3
ffffffff8000dd28: cc                   	int3
ffffffff8000dd29: cc                   	int3
ffffffff8000dd2a: cc                   	int3
ffffffff8000dd2b: cc                   	int3
ffffffff8000dd2c: cc                   	int3
ffffffff8000dd2d: cc                   	int3
ffffffff8000dd2e: cc                   	int3
ffffffff8000dd2f: cc                   	int3

ffffffff8000dd30 <_ZN4core3fmt8builders10DebugTuple6finish17hde80c39117a31ab8E>:
ffffffff8000dd30: 41 57                	push	r15
ffffffff8000dd32: 41 56                	push	r14
ffffffff8000dd34: 53                   	push	rbx
ffffffff8000dd35: 48 8b 07             	mov	rax, qword ptr [rdi]
ffffffff8000dd38: 0f b6 5f 10          	movzx	ebx, byte ptr [rdi + 16]
ffffffff8000dd3c: 48 85 c0             	test	rax, rax
ffffffff8000dd3f: 74 5d                	je	0xffffffff8000dd9e <_ZN4core3fmt8builders10DebugTuple6finish17hde80c39117a31ab8E+0x6e>
ffffffff8000dd41: 49 89 fe             	mov	r14, rdi
ffffffff8000dd44: 84 db                	test	bl, bl
ffffffff8000dd46: b3 01                	mov	bl, 1
ffffffff8000dd48: 75 50                	jne	0xffffffff8000dd9a <_ZN4core3fmt8builders10DebugTuple6finish17hde80c39117a31ab8E+0x6a>
ffffffff8000dd4a: 48 83 f8 01          	cmp	rax, 1
ffffffff8000dd4e: 75 2e                	jne	0xffffffff8000dd7e <_ZN4core3fmt8builders10DebugTuple6finish17hde80c39117a31ab8E+0x4e>
ffffffff8000dd50: 41 80 7e 11 00       	cmp	byte ptr [r14 + 17], 0
ffffffff8000dd55: 74 27                	je	0xffffffff8000dd7e <_ZN4core3fmt8builders10DebugTuple6finish17hde80c39117a31ab8E+0x4e>
ffffffff8000dd57: 4d 8b 7e 08          	mov	r15, qword ptr [r14 + 8]
ffffffff8000dd5b: 41 f6 47 30 04       	test	byte ptr [r15 + 48], 4
ffffffff8000dd60: 75 20                	jne	0xffffffff8000dd82 <_ZN4core3fmt8builders10DebugTuple6finish17hde80c39117a31ab8E+0x52>
ffffffff8000dd62: 49 8b 3f             	mov	rdi, qword ptr [r15]
ffffffff8000dd65: 49 8b 47 08          	mov	rax, qword ptr [r15 + 8]
ffffffff8000dd69: 48 8d 35 04 48 ff ff 	lea	rsi, [rip - 47100]      # 0xffffffff80002574 <str.3+0x114>
ffffffff8000dd70: ba 01 00 00 00       	mov	edx, 1
ffffffff8000dd75: ff 50 18             	call	qword ptr [rax + 24]
ffffffff8000dd78: 84 c0                	test	al, al
ffffffff8000dd7a: 74 06                	je	0xffffffff8000dd82 <_ZN4core3fmt8builders10DebugTuple6finish17hde80c39117a31ab8E+0x52>
ffffffff8000dd7c: eb 1c                	jmp	0xffffffff8000dd9a <_ZN4core3fmt8builders10DebugTuple6finish17hde80c39117a31ab8E+0x6a>
ffffffff8000dd7e: 4d 8b 7e 08          	mov	r15, qword ptr [r14 + 8]
ffffffff8000dd82: 49 8b 3f             	mov	rdi, qword ptr [r15]
ffffffff8000dd85: 49 8b 47 08          	mov	rax, qword ptr [r15 + 8]
ffffffff8000dd89: 48 8d 35 28 47 ff ff 	lea	rsi, [rip - 47320]      # 0xffffffff800024b8 <str.3+0x58>
ffffffff8000dd90: ba 01 00 00 00       	mov	edx, 1
ffffffff8000dd95: ff 50 18             	call	qword ptr [rax + 24]
ffffffff8000dd98: 89 c3                	mov	ebx, eax
ffffffff8000dd9a: 41 88 5e 10          	mov	byte ptr [r14 + 16], bl
ffffffff8000dd9e: 89 d8                	mov	eax, ebx
ffffffff8000dda0: 5b                   	pop	rbx
ffffffff8000dda1: 41 5e                	pop	r14
ffffffff8000dda3: 41 5f                	pop	r15
ffffffff8000dda5: c3                   	ret
ffffffff8000dda6: cc                   	int3
ffffffff8000dda7: cc                   	int3
ffffffff8000dda8: cc                   	int3
ffffffff8000dda9: cc                   	int3
ffffffff8000ddaa: cc                   	int3
ffffffff8000ddab: cc                   	int3
ffffffff8000ddac: cc                   	int3
ffffffff8000ddad: cc                   	int3
ffffffff8000ddae: cc                   	int3
ffffffff8000ddaf: cc                   	int3

ffffffff8000ddb0 <_ZN4core3fmt5Write10write_char17h5095c1d0ef3cc25aE>:
ffffffff8000ddb0: 50                   	push	rax
ffffffff8000ddb1: c7 44 24 04 00 00 00 00      	mov	dword ptr [rsp + 4], 0
ffffffff8000ddb9: 81 fe 80 00 00 00    	cmp	esi, 128
ffffffff8000ddbf: 73 17                	jae	0xffffffff8000ddd8 <_ZN4core3fmt5Write10write_char17h5095c1d0ef3cc25aE+0x28>
ffffffff8000ddc1: 40 88 74 24 04       	mov	byte ptr [rsp + 4], sil
ffffffff8000ddc6: ba 01 00 00 00       	mov	edx, 1
ffffffff8000ddcb: 48 8d 74 24 04       	lea	rsi, [rsp + 4]
ffffffff8000ddd0: ff 15 a2 44 00 00    	call	qword ptr [rip + 17570] # 0xffffffff80012278 <xr6aouzjkjmurg0+0xffffffff80012278>
ffffffff8000ddd6: 59                   	pop	rcx
ffffffff8000ddd7: c3                   	ret
ffffffff8000ddd8: 89 f0                	mov	eax, esi
ffffffff8000ddda: 81 fe 00 08 00 00    	cmp	esi, 2048
ffffffff8000dde0: 73 28                	jae	0xffffffff8000de0a <_ZN4core3fmt5Write10write_char17h5095c1d0ef3cc25aE+0x5a>
ffffffff8000dde2: c1 e8 06             	shr	eax, 6
ffffffff8000dde5: 0c c0                	or	al, -64
ffffffff8000dde7: 88 44 24 04          	mov	byte ptr [rsp + 4], al
ffffffff8000ddeb: 40 80 e6 3f          	and	sil, 63
ffffffff8000ddef: 40 80 ce 80          	or	sil, -128
ffffffff8000ddf3: 40 88 74 24 05       	mov	byte ptr [rsp + 5], sil
ffffffff8000ddf8: ba 02 00 00 00       	mov	edx, 2
ffffffff8000ddfd: 48 8d 74 24 04       	lea	rsi, [rsp + 4]
ffffffff8000de02: ff 15 70 44 00 00    	call	qword ptr [rip + 17520] # 0xffffffff80012278 <xr6aouzjkjmurg0+0xffffffff80012278>
ffffffff8000de08: 59                   	pop	rcx
ffffffff8000de09: c3                   	ret
ffffffff8000de0a: 81 fe 00 00 01 00    	cmp	esi, 65536
ffffffff8000de10: 73 35                	jae	0xffffffff8000de47 <_ZN4core3fmt5Write10write_char17h5095c1d0ef3cc25aE+0x97>
ffffffff8000de12: c1 e8 0c             	shr	eax, 12
ffffffff8000de15: 0c e0                	or	al, -32
ffffffff8000de17: 88 44 24 04          	mov	byte ptr [rsp + 4], al
ffffffff8000de1b: 89 f0                	mov	eax, esi
ffffffff8000de1d: c1 e8 06             	shr	eax, 6
ffffffff8000de20: 24 3f                	and	al, 63
ffffffff8000de22: 0c 80                	or	al, -128
ffffffff8000de24: 88 44 24 05          	mov	byte ptr [rsp + 5], al
ffffffff8000de28: 40 80 e6 3f          	and	sil, 63
ffffffff8000de2c: 40 80 ce 80          	or	sil, -128
ffffffff8000de30: 40 88 74 24 06       	mov	byte ptr [rsp + 6], sil
ffffffff8000de35: ba 03 00 00 00       	mov	edx, 3
ffffffff8000de3a: 48 8d 74 24 04       	lea	rsi, [rsp + 4]
ffffffff8000de3f: ff 15 33 44 00 00    	call	qword ptr [rip + 17459] # 0xffffffff80012278 <xr6aouzjkjmurg0+0xffffffff80012278>
ffffffff8000de45: 59                   	pop	rcx
ffffffff8000de46: c3                   	ret
ffffffff8000de47: c1 e8 12             	shr	eax, 18
ffffffff8000de4a: 24 07                	and	al, 7
ffffffff8000de4c: 0c f0                	or	al, -16
ffffffff8000de4e: 88 44 24 04          	mov	byte ptr [rsp + 4], al
ffffffff8000de52: 89 f0                	mov	eax, esi
ffffffff8000de54: c1 e8 0c             	shr	eax, 12
ffffffff8000de57: 24 3f                	and	al, 63
ffffffff8000de59: 0c 80                	or	al, -128
ffffffff8000de5b: 88 44 24 05          	mov	byte ptr [rsp + 5], al
ffffffff8000de5f: 89 f0                	mov	eax, esi
ffffffff8000de61: c1 e8 06             	shr	eax, 6
ffffffff8000de64: 24 3f                	and	al, 63
ffffffff8000de66: 0c 80                	or	al, -128
ffffffff8000de68: 88 44 24 06          	mov	byte ptr [rsp + 6], al
ffffffff8000de6c: 40 80 e6 3f          	and	sil, 63
ffffffff8000de70: 40 80 ce 80          	or	sil, -128
ffffffff8000de74: 40 88 74 24 07       	mov	byte ptr [rsp + 7], sil
ffffffff8000de79: ba 04 00 00 00       	mov	edx, 4
ffffffff8000de7e: 48 8d 74 24 04       	lea	rsi, [rsp + 4]
ffffffff8000de83: ff 15 ef 43 00 00    	call	qword ptr [rip + 17391] # 0xffffffff80012278 <xr6aouzjkjmurg0+0xffffffff80012278>
ffffffff8000de89: 59                   	pop	rcx
ffffffff8000de8a: c3                   	ret
ffffffff8000de8b: cc                   	int3
ffffffff8000de8c: cc                   	int3
ffffffff8000de8d: cc                   	int3
ffffffff8000de8e: cc                   	int3
ffffffff8000de8f: cc                   	int3

ffffffff8000de90 <_ZN4core3fmt5Write9write_fmt17h101c7501f8919202E>:
ffffffff8000de90: 48 83 ec 38          	sub	rsp, 56
ffffffff8000de94: 48 89 3c 24          	mov	qword ptr [rsp], rdi
ffffffff8000de98: 48 8b 46 28          	mov	rax, qword ptr [rsi + 40]
ffffffff8000de9c: 48 89 44 24 30       	mov	qword ptr [rsp + 48], rax
ffffffff8000dea1: 48 8b 46 20          	mov	rax, qword ptr [rsi + 32]
ffffffff8000dea5: 48 89 44 24 28       	mov	qword ptr [rsp + 40], rax
ffffffff8000deaa: 48 8b 46 18          	mov	rax, qword ptr [rsi + 24]
ffffffff8000deae: 48 89 44 24 20       	mov	qword ptr [rsp + 32], rax
ffffffff8000deb3: 48 8b 46 10          	mov	rax, qword ptr [rsi + 16]
ffffffff8000deb7: 48 89 44 24 18       	mov	qword ptr [rsp + 24], rax
ffffffff8000debc: 48 8b 06             	mov	rax, qword ptr [rsi]
ffffffff8000debf: 48 8b 4e 08          	mov	rcx, qword ptr [rsi + 8]
ffffffff8000dec3: 48 89 4c 24 10       	mov	qword ptr [rsp + 16], rcx
ffffffff8000dec8: 48 89 44 24 08       	mov	qword ptr [rsp + 8], rax
ffffffff8000decd: 48 8d 35 44 40 00 00 	lea	rsi, [rip + 16452]      # 0xffffffff80011f18 <xr6aouzjkjmurg0+0xffffffff80011f18>
ffffffff8000ded4: 48 89 e7             	mov	rdi, rsp
ffffffff8000ded7: 48 8d 54 24 08       	lea	rdx, [rsp + 8]
ffffffff8000dedc: ff 15 2e 42 00 00    	call	qword ptr [rip + 16942] # 0xffffffff80012110 <xr6aouzjkjmurg0+0xffffffff80012110>
ffffffff8000dee2: 48 83 c4 38          	add	rsp, 56
ffffffff8000dee6: c3                   	ret
ffffffff8000dee7: cc                   	int3
ffffffff8000dee8: cc                   	int3
ffffffff8000dee9: cc                   	int3
ffffffff8000deea: cc                   	int3
ffffffff8000deeb: cc                   	int3
ffffffff8000deec: cc                   	int3
ffffffff8000deed: cc                   	int3
ffffffff8000deee: cc                   	int3
ffffffff8000deef: cc                   	int3

ffffffff8000def0 <_ZN50_$LT$$RF$mut$u20$W$u20$as$u20$core..fmt..Write$GT$9write_str17ha6c78d7076abe6c2E>:
ffffffff8000def0: 48 8b 3f             	mov	rdi, qword ptr [rdi]
ffffffff8000def3: ff 25 7f 43 00 00    	jmp	qword ptr [rip + 17279] # 0xffffffff80012278 <xr6aouzjkjmurg0+0xffffffff80012278>
ffffffff8000def9: cc                   	int3
ffffffff8000defa: cc                   	int3
ffffffff8000defb: cc                   	int3
ffffffff8000defc: cc                   	int3
ffffffff8000defd: cc                   	int3
ffffffff8000defe: cc                   	int3
ffffffff8000deff: cc                   	int3

ffffffff8000df00 <_ZN50_$LT$$RF$mut$u20$W$u20$as$u20$core..fmt..Write$GT$10write_char17h57bf8a2be44192adE>:
ffffffff8000df00: 50                   	push	rax
ffffffff8000df01: 48 8b 3f             	mov	rdi, qword ptr [rdi]
ffffffff8000df04: c7 44 24 04 00 00 00 00      	mov	dword ptr [rsp + 4], 0
ffffffff8000df0c: 81 fe 80 00 00 00    	cmp	esi, 128
ffffffff8000df12: 73 17                	jae	0xffffffff8000df2b <_ZN50_$LT$$RF$mut$u20$W$u20$as$u20$core..fmt..Write$GT$10write_char17h57bf8a2be44192adE+0x2b>
ffffffff8000df14: 40 88 74 24 04       	mov	byte ptr [rsp + 4], sil
ffffffff8000df19: ba 01 00 00 00       	mov	edx, 1
ffffffff8000df1e: 48 8d 74 24 04       	lea	rsi, [rsp + 4]
ffffffff8000df23: ff 15 4f 43 00 00    	call	qword ptr [rip + 17231] # 0xffffffff80012278 <xr6aouzjkjmurg0+0xffffffff80012278>
ffffffff8000df29: 59                   	pop	rcx
ffffffff8000df2a: c3                   	ret
ffffffff8000df2b: 89 f0                	mov	eax, esi
ffffffff8000df2d: 81 fe 00 08 00 00    	cmp	esi, 2048
ffffffff8000df33: 73 28                	jae	0xffffffff8000df5d <_ZN50_$LT$$RF$mut$u20$W$u20$as$u20$core..fmt..Write$GT$10write_char17h57bf8a2be44192adE+0x5d>
ffffffff8000df35: c1 e8 06             	shr	eax, 6
ffffffff8000df38: 0c c0                	or	al, -64
ffffffff8000df3a: 88 44 24 04          	mov	byte ptr [rsp + 4], al
ffffffff8000df3e: 40 80 e6 3f          	and	sil, 63
ffffffff8000df42: 40 80 ce 80          	or	sil, -128
ffffffff8000df46: 40 88 74 24 05       	mov	byte ptr [rsp + 5], sil
ffffffff8000df4b: ba 02 00 00 00       	mov	edx, 2
ffffffff8000df50: 48 8d 74 24 04       	lea	rsi, [rsp + 4]
ffffffff8000df55: ff 15 1d 43 00 00    	call	qword ptr [rip + 17181] # 0xffffffff80012278 <xr6aouzjkjmurg0+0xffffffff80012278>
ffffffff8000df5b: 59                   	pop	rcx
ffffffff8000df5c: c3                   	ret
ffffffff8000df5d: 81 fe 00 00 01 00    	cmp	esi, 65536
ffffffff8000df63: 73 35                	jae	0xffffffff8000df9a <_ZN50_$LT$$RF$mut$u20$W$u20$as$u20$core..fmt..Write$GT$10write_char17h57bf8a2be44192adE+0x9a>
ffffffff8000df65: c1 e8 0c             	shr	eax, 12
ffffffff8000df68: 0c e0                	or	al, -32
ffffffff8000df6a: 88 44 24 04          	mov	byte ptr [rsp + 4], al
ffffffff8000df6e: 89 f0                	mov	eax, esi
ffffffff8000df70: c1 e8 06             	shr	eax, 6
ffffffff8000df73: 24 3f                	and	al, 63
ffffffff8000df75: 0c 80                	or	al, -128
ffffffff8000df77: 88 44 24 05          	mov	byte ptr [rsp + 5], al
ffffffff8000df7b: 40 80 e6 3f          	and	sil, 63
ffffffff8000df7f: 40 80 ce 80          	or	sil, -128
ffffffff8000df83: 40 88 74 24 06       	mov	byte ptr [rsp + 6], sil
ffffffff8000df88: ba 03 00 00 00       	mov	edx, 3
ffffffff8000df8d: 48 8d 74 24 04       	lea	rsi, [rsp + 4]
ffffffff8000df92: ff 15 e0 42 00 00    	call	qword ptr [rip + 17120] # 0xffffffff80012278 <xr6aouzjkjmurg0+0xffffffff80012278>
ffffffff8000df98: 59                   	pop	rcx
ffffffff8000df99: c3                   	ret
ffffffff8000df9a: c1 e8 12             	shr	eax, 18
ffffffff8000df9d: 24 07                	and	al, 7
ffffffff8000df9f: 0c f0                	or	al, -16
ffffffff8000dfa1: 88 44 24 04          	mov	byte ptr [rsp + 4], al
ffffffff8000dfa5: 89 f0                	mov	eax, esi
ffffffff8000dfa7: c1 e8 0c             	shr	eax, 12
ffffffff8000dfaa: 24 3f                	and	al, 63
ffffffff8000dfac: 0c 80                	or	al, -128
ffffffff8000dfae: 88 44 24 05          	mov	byte ptr [rsp + 5], al
ffffffff8000dfb2: 89 f0                	mov	eax, esi
ffffffff8000dfb4: c1 e8 06             	shr	eax, 6
ffffffff8000dfb7: 24 3f                	and	al, 63
ffffffff8000dfb9: 0c 80                	or	al, -128
ffffffff8000dfbb: 88 44 24 06          	mov	byte ptr [rsp + 6], al
ffffffff8000dfbf: 40 80 e6 3f          	and	sil, 63
ffffffff8000dfc3: 40 80 ce 80          	or	sil, -128
ffffffff8000dfc7: 40 88 74 24 07       	mov	byte ptr [rsp + 7], sil
ffffffff8000dfcc: ba 04 00 00 00       	mov	edx, 4
ffffffff8000dfd1: 48 8d 74 24 04       	lea	rsi, [rsp + 4]
ffffffff8000dfd6: ff 15 9c 42 00 00    	call	qword ptr [rip + 17052] # 0xffffffff80012278 <xr6aouzjkjmurg0+0xffffffff80012278>
ffffffff8000dfdc: 59                   	pop	rcx
ffffffff8000dfdd: c3                   	ret
ffffffff8000dfde: cc                   	int3
ffffffff8000dfdf: cc                   	int3

ffffffff8000dfe0 <_ZN50_$LT$$RF$mut$u20$W$u20$as$u20$core..fmt..Write$GT$9write_fmt17h5af18b9c486b894eE>:
ffffffff8000dfe0: 48 83 ec 38          	sub	rsp, 56
ffffffff8000dfe4: 48 8b 07             	mov	rax, qword ptr [rdi]
ffffffff8000dfe7: 48 89 04 24          	mov	qword ptr [rsp], rax
ffffffff8000dfeb: 48 8b 46 28          	mov	rax, qword ptr [rsi + 40]
ffffffff8000dfef: 48 89 44 24 30       	mov	qword ptr [rsp + 48], rax
ffffffff8000dff4: 48 8b 46 20          	mov	rax, qword ptr [rsi + 32]
ffffffff8000dff8: 48 89 44 24 28       	mov	qword ptr [rsp + 40], rax
ffffffff8000dffd: 48 8b 46 18          	mov	rax, qword ptr [rsi + 24]
ffffffff8000e001: 48 89 44 24 20       	mov	qword ptr [rsp + 32], rax
ffffffff8000e006: 48 8b 46 10          	mov	rax, qword ptr [rsi + 16]
ffffffff8000e00a: 48 89 44 24 18       	mov	qword ptr [rsp + 24], rax
ffffffff8000e00f: 48 8b 06             	mov	rax, qword ptr [rsi]
ffffffff8000e012: 48 8b 4e 08          	mov	rcx, qword ptr [rsi + 8]
ffffffff8000e016: 48 89 4c 24 10       	mov	qword ptr [rsp + 16], rcx
ffffffff8000e01b: 48 89 44 24 08       	mov	qword ptr [rsp + 8], rax
ffffffff8000e020: 48 8d 35 f1 3e 00 00 	lea	rsi, [rip + 16113]      # 0xffffffff80011f18 <xr6aouzjkjmurg0+0xffffffff80011f18>
ffffffff8000e027: 48 89 e7             	mov	rdi, rsp
ffffffff8000e02a: 48 8d 54 24 08       	lea	rdx, [rsp + 8]
ffffffff8000e02f: ff 15 db 40 00 00    	call	qword ptr [rip + 16603] # 0xffffffff80012110 <xr6aouzjkjmurg0+0xffffffff80012110>
ffffffff8000e035: 48 83 c4 38          	add	rsp, 56
ffffffff8000e039: c3                   	ret
ffffffff8000e03a: cc                   	int3
ffffffff8000e03b: cc                   	int3
ffffffff8000e03c: cc                   	int3
ffffffff8000e03d: cc                   	int3
ffffffff8000e03e: cc                   	int3
ffffffff8000e03f: cc                   	int3

ffffffff8000e040 <_ZN57_$LT$core..fmt..Arguments$u20$as$u20$core..fmt..Debug$GT$3fmt17hfa617036b9b0e7d7E>:
ffffffff8000e040: 48 83 ec 38          	sub	rsp, 56
ffffffff8000e044: 48 8b 06             	mov	rax, qword ptr [rsi]
ffffffff8000e047: 48 8b 76 08          	mov	rsi, qword ptr [rsi + 8]
ffffffff8000e04b: 48 8b 4f 28          	mov	rcx, qword ptr [rdi + 40]
ffffffff8000e04f: 48 89 4c 24 30       	mov	qword ptr [rsp + 48], rcx
ffffffff8000e054: 48 8b 4f 20          	mov	rcx, qword ptr [rdi + 32]
ffffffff8000e058: 48 89 4c 24 28       	mov	qword ptr [rsp + 40], rcx
ffffffff8000e05d: 48 8b 4f 18          	mov	rcx, qword ptr [rdi + 24]
ffffffff8000e061: 48 89 4c 24 20       	mov	qword ptr [rsp + 32], rcx
ffffffff8000e066: 48 8b 4f 10          	mov	rcx, qword ptr [rdi + 16]
ffffffff8000e06a: 48 89 4c 24 18       	mov	qword ptr [rsp + 24], rcx
ffffffff8000e06f: 48 8b 0f             	mov	rcx, qword ptr [rdi]
ffffffff8000e072: 48 8b 57 08          	mov	rdx, qword ptr [rdi + 8]
ffffffff8000e076: 48 89 54 24 10       	mov	qword ptr [rsp + 16], rdx
ffffffff8000e07b: 48 89 4c 24 08       	mov	qword ptr [rsp + 8], rcx
ffffffff8000e080: 48 8d 54 24 08       	lea	rdx, [rsp + 8]
ffffffff8000e085: 48 89 c7             	mov	rdi, rax
ffffffff8000e088: ff 15 82 40 00 00    	call	qword ptr [rip + 16514] # 0xffffffff80012110 <xr6aouzjkjmurg0+0xffffffff80012110>
ffffffff8000e08e: 48 83 c4 38          	add	rsp, 56
ffffffff8000e092: c3                   	ret
ffffffff8000e093: cc                   	int3
ffffffff8000e094: cc                   	int3
ffffffff8000e095: cc                   	int3
ffffffff8000e096: cc                   	int3
ffffffff8000e097: cc                   	int3
ffffffff8000e098: cc                   	int3
ffffffff8000e099: cc                   	int3
ffffffff8000e09a: cc                   	int3
ffffffff8000e09b: cc                   	int3
ffffffff8000e09c: cc                   	int3
ffffffff8000e09d: cc                   	int3
ffffffff8000e09e: cc                   	int3
ffffffff8000e09f: cc                   	int3

ffffffff8000e0a0 <_ZN59_$LT$core..fmt..Arguments$u20$as$u20$core..fmt..Display$GT$3fmt17h7f5ac7701723b399E>:
ffffffff8000e0a0: 48 83 ec 38          	sub	rsp, 56
ffffffff8000e0a4: 48 8b 06             	mov	rax, qword ptr [rsi]
ffffffff8000e0a7: 48 8b 76 08          	mov	rsi, qword ptr [rsi + 8]
ffffffff8000e0ab: 48 8b 4f 28          	mov	rcx, qword ptr [rdi + 40]
ffffffff8000e0af: 48 89 4c 24 30       	mov	qword ptr [rsp + 48], rcx
ffffffff8000e0b4: 48 8b 4f 20          	mov	rcx, qword ptr [rdi + 32]
ffffffff8000e0b8: 48 89 4c 24 28       	mov	qword ptr [rsp + 40], rcx
ffffffff8000e0bd: 48 8b 4f 18          	mov	rcx, qword ptr [rdi + 24]
ffffffff8000e0c1: 48 89 4c 24 20       	mov	qword ptr [rsp + 32], rcx
ffffffff8000e0c6: 48 8b 4f 10          	mov	rcx, qword ptr [rdi + 16]
ffffffff8000e0ca: 48 89 4c 24 18       	mov	qword ptr [rsp + 24], rcx
ffffffff8000e0cf: 48 8b 0f             	mov	rcx, qword ptr [rdi]
ffffffff8000e0d2: 48 8b 57 08          	mov	rdx, qword ptr [rdi + 8]
ffffffff8000e0d6: 48 89 54 24 10       	mov	qword ptr [rsp + 16], rdx
ffffffff8000e0db: 48 89 4c 24 08       	mov	qword ptr [rsp + 8], rcx
ffffffff8000e0e0: 48 8d 54 24 08       	lea	rdx, [rsp + 8]
ffffffff8000e0e5: 48 89 c7             	mov	rdi, rax
ffffffff8000e0e8: ff 15 22 40 00 00    	call	qword ptr [rip + 16418] # 0xffffffff80012110 <xr6aouzjkjmurg0+0xffffffff80012110>
ffffffff8000e0ee: 48 83 c4 38          	add	rsp, 56
ffffffff8000e0f2: c3                   	ret
ffffffff8000e0f3: cc                   	int3
ffffffff8000e0f4: cc                   	int3
ffffffff8000e0f5: cc                   	int3
ffffffff8000e0f6: cc                   	int3
ffffffff8000e0f7: cc                   	int3
ffffffff8000e0f8: cc                   	int3
ffffffff8000e0f9: cc                   	int3
ffffffff8000e0fa: cc                   	int3
ffffffff8000e0fb: cc                   	int3
ffffffff8000e0fc: cc                   	int3
ffffffff8000e0fd: cc                   	int3
ffffffff8000e0fe: cc                   	int3
ffffffff8000e0ff: cc                   	int3

ffffffff8000e100 <_ZN4core3fmt5write17hf9be263b89db90a9E>:
ffffffff8000e100: 55                   	push	rbp
ffffffff8000e101: 41 57                	push	r15
ffffffff8000e103: 41 56                	push	r14
ffffffff8000e105: 41 55                	push	r13
ffffffff8000e107: 41 54                	push	r12
ffffffff8000e109: 53                   	push	rbx
ffffffff8000e10a: 48 83 ec 48          	sub	rsp, 72
ffffffff8000e10e: 49 89 d7             	mov	r15, rdx
ffffffff8000e111: 48 b8 00 00 00 00 20 00 00 00	movabs	rax, 137438953472
ffffffff8000e11b: 48 89 44 24 38       	mov	qword ptr [rsp + 56], rax
ffffffff8000e120: c6 44 24 40 03       	mov	byte ptr [rsp + 64], 3
ffffffff8000e125: 48 c7 44 24 18 00 00 00 00   	mov	qword ptr [rsp + 24], 0
ffffffff8000e12e: 48 c7 44 24 28 00 00 00 00   	mov	qword ptr [rsp + 40], 0
ffffffff8000e137: 48 89 7c 24 08       	mov	qword ptr [rsp + 8], rdi
ffffffff8000e13c: 48 89 74 24 10       	mov	qword ptr [rsp + 16], rsi
ffffffff8000e141: 48 8b 1a             	mov	rbx, qword ptr [rdx]
ffffffff8000e144: 48 85 db             	test	rbx, rbx
ffffffff8000e147: 0f 84 1c 01 00 00    	je	0xffffffff8000e269 <_ZN4core3fmt5write17hf9be263b89db90a9E+0x169>
ffffffff8000e14d: 49 8b 47 08          	mov	rax, qword ptr [r15 + 8]
ffffffff8000e151: 48 85 c0             	test	rax, rax
ffffffff8000e154: 0f 84 76 01 00 00    	je	0xffffffff8000e2d0 <_ZN4core3fmt5write17hf9be263b89db90a9E+0x1d0>
ffffffff8000e15a: 4d 8b 6f 10          	mov	r13, qword ptr [r15 + 16]
ffffffff8000e15e: 49 83 c5 08          	add	r13, 8
ffffffff8000e162: 48 6b e8 38          	imul	rbp, rax, 56
ffffffff8000e166: 45 31 f6             	xor	r14d, r14d
ffffffff8000e169: 45 31 e4             	xor	r12d, r12d
ffffffff8000e16c: 0f 1f 40 00          	nop	dword ptr [rax]
ffffffff8000e170: 49 8b 55 00          	mov	rdx, qword ptr [r13]
ffffffff8000e174: 48 85 d2             	test	rdx, rdx
ffffffff8000e177: 74 19                	je	0xffffffff8000e192 <_ZN4core3fmt5write17hf9be263b89db90a9E+0x92>
ffffffff8000e179: 48 8b 7c 24 08       	mov	rdi, qword ptr [rsp + 8]
ffffffff8000e17e: 48 8b 44 24 10       	mov	rax, qword ptr [rsp + 16]
ffffffff8000e183: 49 8b 75 f8          	mov	rsi, qword ptr [r13 - 8]
ffffffff8000e187: ff 50 18             	call	qword ptr [rax + 24]
ffffffff8000e18a: 84 c0                	test	al, al
ffffffff8000e18c: 0f 85 74 01 00 00    	jne	0xffffffff8000e306 <_ZN4core3fmt5write17hf9be263b89db90a9E+0x206>
ffffffff8000e192: 49 8b 47 20          	mov	rax, qword ptr [r15 + 32]
ffffffff8000e196: 42 8b 4c 33 24       	mov	ecx, dword ptr [rbx + r14 + 36]
ffffffff8000e19b: 89 4c 24 3c          	mov	dword ptr [rsp + 60], ecx
ffffffff8000e19f: 42 0f b6 4c 33 28    	movzx	ecx, byte ptr [rbx + r14 + 40]
ffffffff8000e1a5: 88 4c 24 40          	mov	byte ptr [rsp + 64], cl
ffffffff8000e1a9: 42 8b 4c 33 20       	mov	ecx, dword ptr [rbx + r14 + 32]
ffffffff8000e1ae: 89 4c 24 38          	mov	dword ptr [rsp + 56], ecx
ffffffff8000e1b2: 4a 8b 54 33 10       	mov	rdx, qword ptr [rbx + r14 + 16]
ffffffff8000e1b7: 4a 8b 4c 33 18       	mov	rcx, qword ptr [rbx + r14 + 24]
ffffffff8000e1bc: 48 85 d2             	test	rdx, rdx
ffffffff8000e1bf: 74 24                	je	0xffffffff8000e1e5 <_ZN4core3fmt5write17hf9be263b89db90a9E+0xe5>
ffffffff8000e1c1: 83 fa 01             	cmp	edx, 1
ffffffff8000e1c4: 75 12                	jne	0xffffffff8000e1d8 <_ZN4core3fmt5write17hf9be263b89db90a9E+0xd8>
ffffffff8000e1c6: 48 c1 e1 04          	shl	rcx, 4
ffffffff8000e1ca: 48 8d 15 5f f0 ff ff 	lea	rdx, [rip - 4001]       # 0xffffffff8000d230 <_ZN4core3ops8function6FnOnce9call_once17h6f0a40a33e530650E>
ffffffff8000e1d1: 48 39 54 08 08       	cmp	qword ptr [rax + rcx + 8], rdx
ffffffff8000e1d6: 74 04                	je	0xffffffff8000e1dc <_ZN4core3fmt5write17hf9be263b89db90a9E+0xdc>
ffffffff8000e1d8: 31 d2                	xor	edx, edx
ffffffff8000e1da: eb 0e                	jmp	0xffffffff8000e1ea <_ZN4core3fmt5write17hf9be263b89db90a9E+0xea>
ffffffff8000e1dc: 48 01 c1             	add	rcx, rax
ffffffff8000e1df: 48 8b 09             	mov	rcx, qword ptr [rcx]
ffffffff8000e1e2: 48 8b 09             	mov	rcx, qword ptr [rcx]
ffffffff8000e1e5: ba 01 00 00 00       	mov	edx, 1
ffffffff8000e1ea: 48 89 54 24 18       	mov	qword ptr [rsp + 24], rdx
ffffffff8000e1ef: 48 89 4c 24 20       	mov	qword ptr [rsp + 32], rcx
ffffffff8000e1f4: 4a 8b 14 33          	mov	rdx, qword ptr [rbx + r14]
ffffffff8000e1f8: 4a 8b 4c 33 08       	mov	rcx, qword ptr [rbx + r14 + 8]
ffffffff8000e1fd: 48 85 d2             	test	rdx, rdx
ffffffff8000e200: 74 24                	je	0xffffffff8000e226 <_ZN4core3fmt5write17hf9be263b89db90a9E+0x126>
ffffffff8000e202: 83 fa 01             	cmp	edx, 1
ffffffff8000e205: 75 12                	jne	0xffffffff8000e219 <_ZN4core3fmt5write17hf9be263b89db90a9E+0x119>
ffffffff8000e207: 48 c1 e1 04          	shl	rcx, 4
ffffffff8000e20b: 48 8d 15 1e f0 ff ff 	lea	rdx, [rip - 4066]       # 0xffffffff8000d230 <_ZN4core3ops8function6FnOnce9call_once17h6f0a40a33e530650E>
ffffffff8000e212: 48 39 54 08 08       	cmp	qword ptr [rax + rcx + 8], rdx
ffffffff8000e217: 74 04                	je	0xffffffff8000e21d <_ZN4core3fmt5write17hf9be263b89db90a9E+0x11d>
ffffffff8000e219: 31 d2                	xor	edx, edx
ffffffff8000e21b: eb 0e                	jmp	0xffffffff8000e22b <_ZN4core3fmt5write17hf9be263b89db90a9E+0x12b>
ffffffff8000e21d: 48 01 c1             	add	rcx, rax
ffffffff8000e220: 48 8b 09             	mov	rcx, qword ptr [rcx]
ffffffff8000e223: 48 8b 09             	mov	rcx, qword ptr [rcx]
ffffffff8000e226: ba 01 00 00 00       	mov	edx, 1
ffffffff8000e22b: 48 89 54 24 28       	mov	qword ptr [rsp + 40], rdx
ffffffff8000e230: 48 89 4c 24 30       	mov	qword ptr [rsp + 48], rcx
ffffffff8000e235: 4a 8b 4c 33 30       	mov	rcx, qword ptr [rbx + r14 + 48]
ffffffff8000e23a: 48 c1 e1 04          	shl	rcx, 4
ffffffff8000e23e: 48 8b 3c 08          	mov	rdi, qword ptr [rax + rcx]
ffffffff8000e242: 48 8d 74 24 08       	lea	rsi, [rsp + 8]
ffffffff8000e247: ff 54 08 08          	call	qword ptr [rax + rcx + 8]
ffffffff8000e24b: 84 c0                	test	al, al
ffffffff8000e24d: 0f 85 b3 00 00 00    	jne	0xffffffff8000e306 <_ZN4core3fmt5write17hf9be263b89db90a9E+0x206>
ffffffff8000e253: 49 83 c5 10          	add	r13, 16
ffffffff8000e257: 49 83 c6 38          	add	r14, 56
ffffffff8000e25b: 49 ff c4             	inc	r12
ffffffff8000e25e: 4c 39 f5             	cmp	rbp, r14
ffffffff8000e261: 0f 85 09 ff ff ff    	jne	0xffffffff8000e170 <_ZN4core3fmt5write17hf9be263b89db90a9E+0x70>
ffffffff8000e267: eb 6a                	jmp	0xffffffff8000e2d3 <_ZN4core3fmt5write17hf9be263b89db90a9E+0x1d3>
ffffffff8000e269: 4d 8b 6f 28          	mov	r13, qword ptr [r15 + 40]
ffffffff8000e26d: 4d 85 ed             	test	r13, r13
ffffffff8000e270: 74 69                	je	0xffffffff8000e2db <_ZN4core3fmt5write17hf9be263b89db90a9E+0x1db>
ffffffff8000e272: 49 8b 6f 20          	mov	rbp, qword ptr [r15 + 32]
ffffffff8000e276: 49 8b 5f 10          	mov	rbx, qword ptr [r15 + 16]
ffffffff8000e27a: 49 c1 e5 04          	shl	r13, 4
ffffffff8000e27e: 45 31 f6             	xor	r14d, r14d
ffffffff8000e281: 45 31 e4             	xor	r12d, r12d
ffffffff8000e284: 66 66 66 2e 0f 1f 84 00 00 00 00 00  	nop	word ptr cs:[rax + rax]
ffffffff8000e290: 4a 8b 54 33 08       	mov	rdx, qword ptr [rbx + r14 + 8]
ffffffff8000e295: 48 85 d2             	test	rdx, rdx
ffffffff8000e298: 74 15                	je	0xffffffff8000e2af <_ZN4core3fmt5write17hf9be263b89db90a9E+0x1af>
ffffffff8000e29a: 48 8b 7c 24 08       	mov	rdi, qword ptr [rsp + 8]
ffffffff8000e29f: 48 8b 44 24 10       	mov	rax, qword ptr [rsp + 16]
ffffffff8000e2a4: 4a 8b 34 33          	mov	rsi, qword ptr [rbx + r14]
ffffffff8000e2a8: ff 50 18             	call	qword ptr [rax + 24]
ffffffff8000e2ab: 84 c0                	test	al, al
ffffffff8000e2ad: 75 57                	jne	0xffffffff8000e306 <_ZN4core3fmt5write17hf9be263b89db90a9E+0x206>
ffffffff8000e2af: 4a 8b 7c 35 00       	mov	rdi, qword ptr [rbp + r14]
ffffffff8000e2b4: 48 8d 74 24 08       	lea	rsi, [rsp + 8]
ffffffff8000e2b9: 42 ff 54 35 08       	call	qword ptr [rbp + r14 + 8]
ffffffff8000e2be: 84 c0                	test	al, al
ffffffff8000e2c0: 75 44                	jne	0xffffffff8000e306 <_ZN4core3fmt5write17hf9be263b89db90a9E+0x206>
ffffffff8000e2c2: 49 83 c6 10          	add	r14, 16
ffffffff8000e2c6: 49 ff c4             	inc	r12
ffffffff8000e2c9: 4d 39 f5             	cmp	r13, r14
ffffffff8000e2cc: 75 c2                	jne	0xffffffff8000e290 <_ZN4core3fmt5write17hf9be263b89db90a9E+0x190>
ffffffff8000e2ce: eb 03                	jmp	0xffffffff8000e2d3 <_ZN4core3fmt5write17hf9be263b89db90a9E+0x1d3>
ffffffff8000e2d0: 45 31 e4             	xor	r12d, r12d
ffffffff8000e2d3: 4d 3b 67 18          	cmp	r12, qword ptr [r15 + 24]
ffffffff8000e2d7: 72 0b                	jb	0xffffffff8000e2e4 <_ZN4core3fmt5write17hf9be263b89db90a9E+0x1e4>
ffffffff8000e2d9: eb 2f                	jmp	0xffffffff8000e30a <_ZN4core3fmt5write17hf9be263b89db90a9E+0x20a>
ffffffff8000e2db: 45 31 e4             	xor	r12d, r12d
ffffffff8000e2de: 4d 3b 67 18          	cmp	r12, qword ptr [r15 + 24]
ffffffff8000e2e2: 73 26                	jae	0xffffffff8000e30a <_ZN4core3fmt5write17hf9be263b89db90a9E+0x20a>
ffffffff8000e2e4: 49 8b 47 10          	mov	rax, qword ptr [r15 + 16]
ffffffff8000e2e8: 49 c1 e4 04          	shl	r12, 4
ffffffff8000e2ec: 48 8b 7c 24 08       	mov	rdi, qword ptr [rsp + 8]
ffffffff8000e2f1: 48 8b 4c 24 10       	mov	rcx, qword ptr [rsp + 16]
ffffffff8000e2f6: 4a 8b 34 20          	mov	rsi, qword ptr [rax + r12]
ffffffff8000e2fa: 4a 8b 54 20 08       	mov	rdx, qword ptr [rax + r12 + 8]
ffffffff8000e2ff: ff 51 18             	call	qword ptr [rcx + 24]
ffffffff8000e302: 84 c0                	test	al, al
ffffffff8000e304: 74 04                	je	0xffffffff8000e30a <_ZN4core3fmt5write17hf9be263b89db90a9E+0x20a>
ffffffff8000e306: b0 01                	mov	al, 1
ffffffff8000e308: eb 02                	jmp	0xffffffff8000e30c <_ZN4core3fmt5write17hf9be263b89db90a9E+0x20c>
ffffffff8000e30a: 31 c0                	xor	eax, eax
ffffffff8000e30c: 48 83 c4 48          	add	rsp, 72
ffffffff8000e310: 5b                   	pop	rbx
ffffffff8000e311: 41 5c                	pop	r12
ffffffff8000e313: 41 5d                	pop	r13
ffffffff8000e315: 41 5e                	pop	r14
ffffffff8000e317: 41 5f                	pop	r15
ffffffff8000e319: 5d                   	pop	rbp
ffffffff8000e31a: c3                   	ret
ffffffff8000e31b: cc                   	int3
ffffffff8000e31c: cc                   	int3
ffffffff8000e31d: cc                   	int3
ffffffff8000e31e: cc                   	int3
ffffffff8000e31f: cc                   	int3

ffffffff8000e320 <_ZN4core3fmt9Formatter12pad_integral17hebdaccc898fc3c21E>:
ffffffff8000e320: 55                   	push	rbp
ffffffff8000e321: 41 57                	push	r15
ffffffff8000e323: 41 56                	push	r14
ffffffff8000e325: 41 55                	push	r13
ffffffff8000e327: 41 54                	push	r12
ffffffff8000e329: 53                   	push	rbx
ffffffff8000e32a: 48 83 ec 28          	sub	rsp, 40
ffffffff8000e32e: 4d 89 cf             	mov	r15, r9
ffffffff8000e331: 4d 89 c5             	mov	r13, r8
ffffffff8000e334: 49 89 ce             	mov	r14, rcx
ffffffff8000e337: 48 89 54 24 08       	mov	qword ptr [rsp + 8], rdx
ffffffff8000e33c: 49 89 fc             	mov	r12, rdi
ffffffff8000e33f: 85 f6                	test	esi, esi
ffffffff8000e341: 74 57                	je	0xffffffff8000e39a <_ZN4core3fmt9Formatter12pad_integral17hebdaccc898fc3c21E+0x7a>
ffffffff8000e343: 41 8b 6c 24 30       	mov	ebp, dword ptr [r12 + 48]
ffffffff8000e348: 89 eb                	mov	ebx, ebp
ffffffff8000e34a: 83 e3 01             	and	ebx, 1
ffffffff8000e34d: b8 00 00 11 00       	mov	eax, 1114112
ffffffff8000e352: b9 2b 00 00 00       	mov	ecx, 43
ffffffff8000e357: 0f 44 c8             	cmove	ecx, eax
ffffffff8000e35a: 89 4c 24 04          	mov	dword ptr [rsp + 4], ecx
ffffffff8000e35e: 4c 01 fb             	add	rbx, r15
ffffffff8000e361: 40 f6 c5 04          	test	bpl, 4
ffffffff8000e365: 74 4a                	je	0xffffffff8000e3b1 <_ZN4core3fmt9Formatter12pad_integral17hebdaccc898fc3c21E+0x91>
ffffffff8000e367: 49 83 fe 20          	cmp	r14, 32
ffffffff8000e36b: 0f 83 d1 00 00 00    	jae	0xffffffff8000e442 <_ZN4core3fmt9Formatter12pad_integral17hebdaccc898fc3c21E+0x122>
ffffffff8000e371: 4d 85 f6             	test	r14, r14
ffffffff8000e374: 0f 84 53 01 00 00    	je	0xffffffff8000e4cd <_ZN4core3fmt9Formatter12pad_integral17hebdaccc898fc3c21E+0x1ad>
ffffffff8000e37a: 49 8d 46 ff          	lea	rax, [r14 - 1]
ffffffff8000e37e: 44 89 f1             	mov	ecx, r14d
ffffffff8000e381: 83 e1 03             	and	ecx, 3
ffffffff8000e384: 48 83 f8 03          	cmp	rax, 3
ffffffff8000e388: 0f 83 43 01 00 00    	jae	0xffffffff8000e4d1 <_ZN4core3fmt9Formatter12pad_integral17hebdaccc898fc3c21E+0x1b1>
ffffffff8000e38e: 31 c0                	xor	eax, eax
ffffffff8000e390: 48 8b 54 24 08       	mov	rdx, qword ptr [rsp + 8]
ffffffff8000e395: e9 81 01 00 00       	jmp	0xffffffff8000e51b <_ZN4core3fmt9Formatter12pad_integral17hebdaccc898fc3c21E+0x1fb>
ffffffff8000e39a: 49 8d 5f 01          	lea	rbx, [r15 + 1]
ffffffff8000e39e: 41 8b 6c 24 30       	mov	ebp, dword ptr [r12 + 48]
ffffffff8000e3a3: c7 44 24 04 2d 00 00 00      	mov	dword ptr [rsp + 4], 45
ffffffff8000e3ab: 40 f6 c5 04          	test	bpl, 4
ffffffff8000e3af: 75 b6                	jne	0xffffffff8000e367 <_ZN4core3fmt9Formatter12pad_integral17hebdaccc898fc3c21E+0x47>
ffffffff8000e3b1: 31 c0                	xor	eax, eax
ffffffff8000e3b3: 48 89 44 24 08       	mov	qword ptr [rsp + 8], rax
ffffffff8000e3b8: 49 83 7c 24 10 00    	cmp	qword ptr [r12 + 16], 0
ffffffff8000e3be: 0f 84 90 01 00 00    	je	0xffffffff8000e554 <_ZN4core3fmt9Formatter12pad_integral17hebdaccc898fc3c21E+0x234>
ffffffff8000e3c4: 4c 89 74 24 18       	mov	qword ptr [rsp + 24], r14
ffffffff8000e3c9: 4d 8b 74 24 18       	mov	r14, qword ptr [r12 + 24]
ffffffff8000e3ce: 49 29 de             	sub	r14, rbx
ffffffff8000e3d1: 76 3e                	jbe	0xffffffff8000e411 <_ZN4core3fmt9Formatter12pad_integral17hebdaccc898fc3c21E+0xf1>
ffffffff8000e3d3: 40 f6 c5 08          	test	bpl, 8
ffffffff8000e3d7: 75 7c                	jne	0xffffffff8000e455 <_ZN4core3fmt9Formatter12pad_integral17hebdaccc898fc3c21E+0x135>
ffffffff8000e3d9: 41 8b 4c 24 38       	mov	ecx, dword ptr [r12 + 56]
ffffffff8000e3de: 80 f9 03             	cmp	cl, 3
ffffffff8000e3e1: b8 01 00 00 00       	mov	eax, 1
ffffffff8000e3e6: 0f 45 c1             	cmovne	eax, ecx
ffffffff8000e3e9: 84 c0                	test	al, al
ffffffff8000e3eb: 4c 89 7c 24 20       	mov	qword ptr [rsp + 32], r15
ffffffff8000e3f0: 0f 84 a5 01 00 00    	je	0xffffffff8000e59b <_ZN4core3fmt9Formatter12pad_integral17hebdaccc898fc3c21E+0x27b>
ffffffff8000e3f6: 0f b6 c0             	movzx	eax, al
ffffffff8000e3f9: 4c 89 ed             	mov	rbp, r13
ffffffff8000e3fc: 83 f8 01             	cmp	eax, 1
ffffffff8000e3ff: 0f 85 a4 01 00 00    	jne	0xffffffff8000e5a9 <_ZN4core3fmt9Formatter12pad_integral17hebdaccc898fc3c21E+0x289>
ffffffff8000e405: 31 c0                	xor	eax, eax
ffffffff8000e407: 48 89 44 24 10       	mov	qword ptr [rsp + 16], rax
ffffffff8000e40c: e9 ac 01 00 00       	jmp	0xffffffff8000e5bd <_ZN4core3fmt9Formatter12pad_integral17hebdaccc898fc3c21E+0x29d>
ffffffff8000e411: 49 8b 1c 24          	mov	rbx, qword ptr [r12]
ffffffff8000e415: 49 8b 6c 24 08       	mov	rbp, qword ptr [r12 + 8]
ffffffff8000e41a: 48 89 df             	mov	rdi, rbx
ffffffff8000e41d: 48 89 ee             	mov	rsi, rbp
ffffffff8000e420: 8b 54 24 04          	mov	edx, dword ptr [rsp + 4]
ffffffff8000e424: 48 8b 4c 24 08       	mov	rcx, qword ptr [rsp + 8]
ffffffff8000e429: 4c 8b 44 24 18       	mov	r8, qword ptr [rsp + 24]
ffffffff8000e42e: e8 6d 02 00 00       	call	0xffffffff8000e6a0 <_ZN4core3fmt9Formatter12pad_integral12write_prefix17h7a848080a04195d5E>
ffffffff8000e433: b1 01                	mov	cl, 1
ffffffff8000e435: 84 c0                	test	al, al
ffffffff8000e437: 0f 84 41 01 00 00    	je	0xffffffff8000e57e <_ZN4core3fmt9Formatter12pad_integral17hebdaccc898fc3c21E+0x25e>
ffffffff8000e43d: e9 cb 01 00 00       	jmp	0xffffffff8000e60d <_ZN4core3fmt9Formatter12pad_integral17hebdaccc898fc3c21E+0x2ed>
ffffffff8000e442: 48 8b 7c 24 08       	mov	rdi, qword ptr [rsp + 8]
ffffffff8000e447: 4c 89 f6             	mov	rsi, r14
ffffffff8000e44a: ff 15 38 3e 00 00    	call	qword ptr [rip + 15928] # 0xffffffff80012288 <xr6aouzjkjmurg0+0xffffffff80012288>
ffffffff8000e450: e9 f0 00 00 00       	jmp	0xffffffff8000e545 <_ZN4core3fmt9Formatter12pad_integral17hebdaccc898fc3c21E+0x225>
ffffffff8000e455: 41 8b 44 24 34       	mov	eax, dword ptr [r12 + 52]
ffffffff8000e45a: 89 44 24 10          	mov	dword ptr [rsp + 16], eax
ffffffff8000e45e: 41 c7 44 24 34 30 00 00 00   	mov	dword ptr [r12 + 52], 48
ffffffff8000e467: 41 0f b6 44 24 38    	movzx	eax, byte ptr [r12 + 56]
ffffffff8000e46d: 88 44 24 03          	mov	byte ptr [rsp + 3], al
ffffffff8000e471: 41 c6 44 24 38 01    	mov	byte ptr [r12 + 56], 1
ffffffff8000e477: 49 8b 1c 24          	mov	rbx, qword ptr [r12]
ffffffff8000e47b: 49 8b 6c 24 08       	mov	rbp, qword ptr [r12 + 8]
ffffffff8000e480: 48 89 df             	mov	rdi, rbx
ffffffff8000e483: 48 89 ee             	mov	rsi, rbp
ffffffff8000e486: 8b 54 24 04          	mov	edx, dword ptr [rsp + 4]
ffffffff8000e48a: 48 8b 4c 24 08       	mov	rcx, qword ptr [rsp + 8]
ffffffff8000e48f: 4c 8b 44 24 18       	mov	r8, qword ptr [rsp + 24]
ffffffff8000e494: e8 07 02 00 00       	call	0xffffffff8000e6a0 <_ZN4core3fmt9Formatter12pad_integral12write_prefix17h7a848080a04195d5E>
ffffffff8000e499: b1 01                	mov	cl, 1
ffffffff8000e49b: 84 c0                	test	al, al
ffffffff8000e49d: 0f 85 6a 01 00 00    	jne	0xffffffff8000e60d <_ZN4core3fmt9Formatter12pad_integral17hebdaccc898fc3c21E+0x2ed>
ffffffff8000e4a3: 49 ff c6             	inc	r14
ffffffff8000e4a6: 66 2e 0f 1f 84 00 00 00 00 00	nop	word ptr cs:[rax + rax]
ffffffff8000e4b0: 49 ff ce             	dec	r14
ffffffff8000e4b3: 0f 84 65 01 00 00    	je	0xffffffff8000e61e <_ZN4core3fmt9Formatter12pad_integral17hebdaccc898fc3c21E+0x2fe>
ffffffff8000e4b9: 48 89 df             	mov	rdi, rbx
ffffffff8000e4bc: be 30 00 00 00       	mov	esi, 48
ffffffff8000e4c1: ff 55 20             	call	qword ptr [rbp + 32]
ffffffff8000e4c4: 84 c0                	test	al, al
ffffffff8000e4c6: 74 e8                	je	0xffffffff8000e4b0 <_ZN4core3fmt9Formatter12pad_integral17hebdaccc898fc3c21E+0x190>
ffffffff8000e4c8: e9 3e 01 00 00       	jmp	0xffffffff8000e60b <_ZN4core3fmt9Formatter12pad_integral17hebdaccc898fc3c21E+0x2eb>
ffffffff8000e4cd: 31 c0                	xor	eax, eax
ffffffff8000e4cf: eb 74                	jmp	0xffffffff8000e545 <_ZN4core3fmt9Formatter12pad_integral17hebdaccc898fc3c21E+0x225>
ffffffff8000e4d1: 4c 89 f6             	mov	rsi, r14
ffffffff8000e4d4: 48 83 e6 fc          	and	rsi, -4
ffffffff8000e4d8: 31 c0                	xor	eax, eax
ffffffff8000e4da: 48 8b 54 24 08       	mov	rdx, qword ptr [rsp + 8]
ffffffff8000e4df: 90                   	nop
ffffffff8000e4e0: 31 ff                	xor	edi, edi
ffffffff8000e4e2: 80 3a c0             	cmp	byte ptr [rdx], -64
ffffffff8000e4e5: 40 0f 9d c7          	setge	dil
ffffffff8000e4e9: 48 01 c7             	add	rdi, rax
ffffffff8000e4ec: 31 c0                	xor	eax, eax
ffffffff8000e4ee: 80 7a 01 c0          	cmp	byte ptr [rdx + 1], -64
ffffffff8000e4f2: 0f 9d c0             	setge	al
ffffffff8000e4f5: 48 01 f8             	add	rax, rdi
ffffffff8000e4f8: 31 ff                	xor	edi, edi
ffffffff8000e4fa: 80 7a 02 c0          	cmp	byte ptr [rdx + 2], -64
ffffffff8000e4fe: 40 0f 9d c7          	setge	dil
ffffffff8000e502: 48 01 c7             	add	rdi, rax
ffffffff8000e505: 31 c0                	xor	eax, eax
ffffffff8000e507: 80 7a 03 c0          	cmp	byte ptr [rdx + 3], -64
ffffffff8000e50b: 48 8d 52 04          	lea	rdx, [rdx + 4]
ffffffff8000e50f: 0f 9d c0             	setge	al
ffffffff8000e512: 48 01 f8             	add	rax, rdi
ffffffff8000e515: 48 83 c6 fc          	add	rsi, -4
ffffffff8000e519: 75 c5                	jne	0xffffffff8000e4e0 <_ZN4core3fmt9Formatter12pad_integral17hebdaccc898fc3c21E+0x1c0>
ffffffff8000e51b: 48 85 c9             	test	rcx, rcx
ffffffff8000e51e: 74 25                	je	0xffffffff8000e545 <_ZN4core3fmt9Formatter12pad_integral17hebdaccc898fc3c21E+0x225>
ffffffff8000e520: 31 f6                	xor	esi, esi
ffffffff8000e522: 66 66 66 66 66 2e 0f 1f 84 00 00 00 00 00    	nop	word ptr cs:[rax + rax]
ffffffff8000e530: 31 ff                	xor	edi, edi
ffffffff8000e532: 80 3c 32 c0          	cmp	byte ptr [rdx + rsi], -64
ffffffff8000e536: 40 0f 9d c7          	setge	dil
ffffffff8000e53a: 48 01 f8             	add	rax, rdi
ffffffff8000e53d: 48 ff c6             	inc	rsi
ffffffff8000e540: 48 39 f1             	cmp	rcx, rsi
ffffffff8000e543: 75 eb                	jne	0xffffffff8000e530 <_ZN4core3fmt9Formatter12pad_integral17hebdaccc898fc3c21E+0x210>
ffffffff8000e545: 48 01 c3             	add	rbx, rax
ffffffff8000e548: 49 83 7c 24 10 00    	cmp	qword ptr [r12 + 16], 0
ffffffff8000e54e: 0f 85 70 fe ff ff    	jne	0xffffffff8000e3c4 <_ZN4core3fmt9Formatter12pad_integral17hebdaccc898fc3c21E+0xa4>
ffffffff8000e554: 49 8b 1c 24          	mov	rbx, qword ptr [r12]
ffffffff8000e558: 49 8b 6c 24 08       	mov	rbp, qword ptr [r12 + 8]
ffffffff8000e55d: 48 89 df             	mov	rdi, rbx
ffffffff8000e560: 48 89 ee             	mov	rsi, rbp
ffffffff8000e563: 8b 54 24 04          	mov	edx, dword ptr [rsp + 4]
ffffffff8000e567: 48 8b 4c 24 08       	mov	rcx, qword ptr [rsp + 8]
ffffffff8000e56c: 4d 89 f0             	mov	r8, r14
ffffffff8000e56f: e8 2c 01 00 00       	call	0xffffffff8000e6a0 <_ZN4core3fmt9Formatter12pad_integral12write_prefix17h7a848080a04195d5E>
ffffffff8000e574: b1 01                	mov	cl, 1
ffffffff8000e576: 84 c0                	test	al, al
ffffffff8000e578: 0f 85 8f 00 00 00    	jne	0xffffffff8000e60d <_ZN4core3fmt9Formatter12pad_integral17hebdaccc898fc3c21E+0x2ed>
ffffffff8000e57e: 48 8b 45 18          	mov	rax, qword ptr [rbp + 24]
ffffffff8000e582: 48 89 df             	mov	rdi, rbx
ffffffff8000e585: 4c 89 ee             	mov	rsi, r13
ffffffff8000e588: 4c 89 fa             	mov	rdx, r15
ffffffff8000e58b: 48 83 c4 28          	add	rsp, 40
ffffffff8000e58f: 5b                   	pop	rbx
ffffffff8000e590: 41 5c                	pop	r12
ffffffff8000e592: 41 5d                	pop	r13
ffffffff8000e594: 41 5e                	pop	r14
ffffffff8000e596: 41 5f                	pop	r15
ffffffff8000e598: 5d                   	pop	rbp
ffffffff8000e599: ff e0                	jmp	rax
ffffffff8000e59b: 4c 89 ed             	mov	rbp, r13
ffffffff8000e59e: 4c 89 74 24 10       	mov	qword ptr [rsp + 16], r14
ffffffff8000e5a3: 44 0f b6 f0          	movzx	r14d, al
ffffffff8000e5a7: eb 14                	jmp	0xffffffff8000e5bd <_ZN4core3fmt9Formatter12pad_integral17hebdaccc898fc3c21E+0x29d>
ffffffff8000e5a9: 4c 89 f0             	mov	rax, r14
ffffffff8000e5ac: 48 d1 e8             	shr	rax
ffffffff8000e5af: 49 ff c6             	inc	r14
ffffffff8000e5b2: 49 d1 ee             	shr	r14
ffffffff8000e5b5: 4c 89 74 24 10       	mov	qword ptr [rsp + 16], r14
ffffffff8000e5ba: 49 89 c6             	mov	r14, rax
ffffffff8000e5bd: 4d 8b 3c 24          	mov	r15, qword ptr [r12]
ffffffff8000e5c1: 4d 8b 6c 24 08       	mov	r13, qword ptr [r12 + 8]
ffffffff8000e5c6: 41 8b 5c 24 34       	mov	ebx, dword ptr [r12 + 52]
ffffffff8000e5cb: 49 ff c6             	inc	r14
ffffffff8000e5ce: 66 90                	nop
ffffffff8000e5d0: 49 ff ce             	dec	r14
ffffffff8000e5d3: 74 0f                	je	0xffffffff8000e5e4 <_ZN4core3fmt9Formatter12pad_integral17hebdaccc898fc3c21E+0x2c4>
ffffffff8000e5d5: 4c 89 ff             	mov	rdi, r15
ffffffff8000e5d8: 89 de                	mov	esi, ebx
ffffffff8000e5da: 41 ff 55 20          	call	qword ptr [r13 + 32]
ffffffff8000e5de: 84 c0                	test	al, al
ffffffff8000e5e0: 74 ee                	je	0xffffffff8000e5d0 <_ZN4core3fmt9Formatter12pad_integral17hebdaccc898fc3c21E+0x2b0>
ffffffff8000e5e2: eb 27                	jmp	0xffffffff8000e60b <_ZN4core3fmt9Formatter12pad_integral17hebdaccc898fc3c21E+0x2eb>
ffffffff8000e5e4: b1 01                	mov	cl, 1
ffffffff8000e5e6: 81 fb 00 00 11 00    	cmp	ebx, 1114112
ffffffff8000e5ec: 74 1f                	je	0xffffffff8000e60d <_ZN4core3fmt9Formatter12pad_integral17hebdaccc898fc3c21E+0x2ed>
ffffffff8000e5ee: 4c 89 ff             	mov	rdi, r15
ffffffff8000e5f1: 4c 89 ee             	mov	rsi, r13
ffffffff8000e5f4: 8b 54 24 04          	mov	edx, dword ptr [rsp + 4]
ffffffff8000e5f8: 48 8b 4c 24 08       	mov	rcx, qword ptr [rsp + 8]
ffffffff8000e5fd: 4c 8b 44 24 18       	mov	r8, qword ptr [rsp + 24]
ffffffff8000e602: e8 99 00 00 00       	call	0xffffffff8000e6a0 <_ZN4core3fmt9Formatter12pad_integral12write_prefix17h7a848080a04195d5E>
ffffffff8000e607: 84 c0                	test	al, al
ffffffff8000e609: 74 3c                	je	0xffffffff8000e647 <_ZN4core3fmt9Formatter12pad_integral17hebdaccc898fc3c21E+0x327>
ffffffff8000e60b: b1 01                	mov	cl, 1
ffffffff8000e60d: 89 c8                	mov	eax, ecx
ffffffff8000e60f: 48 83 c4 28          	add	rsp, 40
ffffffff8000e613: 5b                   	pop	rbx
ffffffff8000e614: 41 5c                	pop	r12
ffffffff8000e616: 41 5d                	pop	r13
ffffffff8000e618: 41 5e                	pop	r14
ffffffff8000e61a: 41 5f                	pop	r15
ffffffff8000e61c: 5d                   	pop	rbp
ffffffff8000e61d: c3                   	ret
ffffffff8000e61e: 48 89 df             	mov	rdi, rbx
ffffffff8000e621: 4c 89 ee             	mov	rsi, r13
ffffffff8000e624: 4c 89 fa             	mov	rdx, r15
ffffffff8000e627: ff 55 18             	call	qword ptr [rbp + 24]
ffffffff8000e62a: 84 c0                	test	al, al
ffffffff8000e62c: b1 01                	mov	cl, 1
ffffffff8000e62e: 75 dd                	jne	0xffffffff8000e60d <_ZN4core3fmt9Formatter12pad_integral17hebdaccc898fc3c21E+0x2ed>
ffffffff8000e630: 8b 44 24 10          	mov	eax, dword ptr [rsp + 16]
ffffffff8000e634: 41 89 44 24 34       	mov	dword ptr [r12 + 52], eax
ffffffff8000e639: 0f b6 44 24 03       	movzx	eax, byte ptr [rsp + 3]
ffffffff8000e63e: 41 88 44 24 38       	mov	byte ptr [r12 + 56], al
ffffffff8000e643: 31 c9                	xor	ecx, ecx
ffffffff8000e645: eb c6                	jmp	0xffffffff8000e60d <_ZN4core3fmt9Formatter12pad_integral17hebdaccc898fc3c21E+0x2ed>
ffffffff8000e647: 4c 89 ff             	mov	rdi, r15
ffffffff8000e64a: 48 89 ee             	mov	rsi, rbp
ffffffff8000e64d: 48 8b 54 24 20       	mov	rdx, qword ptr [rsp + 32]
ffffffff8000e652: 41 ff 55 18          	call	qword ptr [r13 + 24]
ffffffff8000e656: 84 c0                	test	al, al
ffffffff8000e658: b1 01                	mov	cl, 1
ffffffff8000e65a: 75 b1                	jne	0xffffffff8000e60d <_ZN4core3fmt9Formatter12pad_integral17hebdaccc898fc3c21E+0x2ed>
ffffffff8000e65c: 4c 8b 74 24 10       	mov	r14, qword ptr [rsp + 16]
ffffffff8000e661: 49 f7 de             	neg	r14
ffffffff8000e664: 48 c7 c5 ff ff ff ff 	mov	rbp, -1
ffffffff8000e66b: 49 8d 04 2e          	lea	rax, [r14 + rbp]
ffffffff8000e66f: 48 83 f8 ff          	cmp	rax, -1
ffffffff8000e673: 74 12                	je	0xffffffff8000e687 <_ZN4core3fmt9Formatter12pad_integral17hebdaccc898fc3c21E+0x367>
ffffffff8000e675: 4c 89 ff             	mov	rdi, r15
ffffffff8000e678: 89 de                	mov	esi, ebx
ffffffff8000e67a: 41 ff 55 20          	call	qword ptr [r13 + 32]
ffffffff8000e67e: 48 ff c5             	inc	rbp
ffffffff8000e681: 84 c0                	test	al, al
ffffffff8000e683: 74 e6                	je	0xffffffff8000e66b <_ZN4core3fmt9Formatter12pad_integral17hebdaccc898fc3c21E+0x34b>
ffffffff8000e685: eb 05                	jmp	0xffffffff8000e68c <_ZN4core3fmt9Formatter12pad_integral17hebdaccc898fc3c21E+0x36c>
ffffffff8000e687: 48 8b 6c 24 10       	mov	rbp, qword ptr [rsp + 16]
ffffffff8000e68c: 48 3b 6c 24 10       	cmp	rbp, qword ptr [rsp + 16]
ffffffff8000e691: 0f 92 c1             	setb	cl
ffffffff8000e694: e9 74 ff ff ff       	jmp	0xffffffff8000e60d <_ZN4core3fmt9Formatter12pad_integral17hebdaccc898fc3c21E+0x2ed>
ffffffff8000e699: cc                   	int3
ffffffff8000e69a: cc                   	int3
ffffffff8000e69b: cc                   	int3
ffffffff8000e69c: cc                   	int3
ffffffff8000e69d: cc                   	int3
ffffffff8000e69e: cc                   	int3
ffffffff8000e69f: cc                   	int3

ffffffff8000e6a0 <_ZN4core3fmt9Formatter12pad_integral12write_prefix17h7a848080a04195d5E>:
ffffffff8000e6a0: 41 57                	push	r15
ffffffff8000e6a2: 41 56                	push	r14
ffffffff8000e6a4: 41 54                	push	r12
ffffffff8000e6a6: 53                   	push	rbx
ffffffff8000e6a7: 50                   	push	rax
ffffffff8000e6a8: 4d 89 c6             	mov	r14, r8
ffffffff8000e6ab: 48 89 cb             	mov	rbx, rcx
ffffffff8000e6ae: 49 89 f4             	mov	r12, rsi
ffffffff8000e6b1: 49 89 ff             	mov	r15, rdi
ffffffff8000e6b4: 81 fa 00 00 11 00    	cmp	edx, 1114112
ffffffff8000e6ba: 74 12                	je	0xffffffff8000e6ce <_ZN4core3fmt9Formatter12pad_integral12write_prefix17h7a848080a04195d5E+0x2e>
ffffffff8000e6bc: 4c 89 ff             	mov	rdi, r15
ffffffff8000e6bf: 89 d6                	mov	esi, edx
ffffffff8000e6c1: 41 ff 54 24 20       	call	qword ptr [r12 + 32]
ffffffff8000e6c6: 89 c1                	mov	ecx, eax
ffffffff8000e6c8: b0 01                	mov	al, 1
ffffffff8000e6ca: 84 c9                	test	cl, cl
ffffffff8000e6cc: 75 22                	jne	0xffffffff8000e6f0 <_ZN4core3fmt9Formatter12pad_integral12write_prefix17h7a848080a04195d5E+0x50>
ffffffff8000e6ce: 48 85 db             	test	rbx, rbx
ffffffff8000e6d1: 74 1b                	je	0xffffffff8000e6ee <_ZN4core3fmt9Formatter12pad_integral12write_prefix17h7a848080a04195d5E+0x4e>
ffffffff8000e6d3: 49 8b 44 24 18       	mov	rax, qword ptr [r12 + 24]
ffffffff8000e6d8: 4c 89 ff             	mov	rdi, r15
ffffffff8000e6db: 48 89 de             	mov	rsi, rbx
ffffffff8000e6de: 4c 89 f2             	mov	rdx, r14
ffffffff8000e6e1: 48 83 c4 08          	add	rsp, 8
ffffffff8000e6e5: 5b                   	pop	rbx
ffffffff8000e6e6: 41 5c                	pop	r12
ffffffff8000e6e8: 41 5e                	pop	r14
ffffffff8000e6ea: 41 5f                	pop	r15
ffffffff8000e6ec: ff e0                	jmp	rax
ffffffff8000e6ee: 31 c0                	xor	eax, eax
ffffffff8000e6f0: 48 83 c4 08          	add	rsp, 8
ffffffff8000e6f4: 5b                   	pop	rbx
ffffffff8000e6f5: 41 5c                	pop	r12
ffffffff8000e6f7: 41 5e                	pop	r14
ffffffff8000e6f9: 41 5f                	pop	r15
ffffffff8000e6fb: c3                   	ret
ffffffff8000e6fc: cc                   	int3
ffffffff8000e6fd: cc                   	int3
ffffffff8000e6fe: cc                   	int3
ffffffff8000e6ff: cc                   	int3

ffffffff8000e700 <_ZN4core3fmt9Formatter3pad17h370ce1f58fced38bE>:
ffffffff8000e700: 55                   	push	rbp
ffffffff8000e701: 41 57                	push	r15
ffffffff8000e703: 41 56                	push	r14
ffffffff8000e705: 41 55                	push	r13
ffffffff8000e707: 41 54                	push	r12
ffffffff8000e709: 53                   	push	rbx
ffffffff8000e70a: 48 83 ec 18          	sub	rsp, 24
ffffffff8000e70e: 49 89 d7             	mov	r15, rdx
ffffffff8000e711: 49 89 f6             	mov	r14, rsi
ffffffff8000e714: 49 89 fc             	mov	r12, rdi
ffffffff8000e717: 4c 8b 47 10          	mov	r8, qword ptr [rdi + 16]
ffffffff8000e71b: 48 8b 47 20          	mov	rax, qword ptr [rdi + 32]
ffffffff8000e71f: 49 83 f8 01          	cmp	r8, 1
ffffffff8000e723: 74 0a                	je	0xffffffff8000e72f <_ZN4core3fmt9Formatter3pad17h370ce1f58fced38bE+0x2f>
ffffffff8000e725: 48 83 f8 01          	cmp	rax, 1
ffffffff8000e729: 0f 85 22 02 00 00    	jne	0xffffffff8000e951 <_ZN4core3fmt9Formatter3pad17h370ce1f58fced38bE+0x251>
ffffffff8000e72f: 48 83 f8 01          	cmp	rax, 1
ffffffff8000e733: 0f 85 28 01 00 00    	jne	0xffffffff8000e861 <_ZN4core3fmt9Formatter3pad17h370ce1f58fced38bE+0x161>
ffffffff8000e739: 49 8b 7c 24 28       	mov	rdi, qword ptr [r12 + 40]
ffffffff8000e73e: 4f 8d 0c 3e          	lea	r9, [r14 + r15]
ffffffff8000e742: 48 ff c7             	inc	rdi
ffffffff8000e745: 31 c9                	xor	ecx, ecx
ffffffff8000e747: 4c 89 f2             	mov	rdx, r14
ffffffff8000e74a: eb 1d                	jmp	0xffffffff8000e769 <_ZN4core3fmt9Formatter3pad17h370ce1f58fced38bE+0x69>
ffffffff8000e74c: 0f 1f 40 00          	nop	dword ptr [rax]
ffffffff8000e750: 48 8d 42 01          	lea	rax, [rdx + 1]
ffffffff8000e754: 48 29 d1             	sub	rcx, rdx
ffffffff8000e757: 48 01 c1             	add	rcx, rax
ffffffff8000e75a: 48 89 c2             	mov	rdx, rax
ffffffff8000e75d: 81 fd 00 00 11 00    	cmp	ebp, 1114112
ffffffff8000e763: 0f 84 f8 00 00 00    	je	0xffffffff8000e861 <_ZN4core3fmt9Formatter3pad17h370ce1f58fced38bE+0x161>
ffffffff8000e769: 48 ff cf             	dec	rdi
ffffffff8000e76c: 0f 84 82 00 00 00    	je	0xffffffff8000e7f4 <_ZN4core3fmt9Formatter3pad17h370ce1f58fced38bE+0xf4>
ffffffff8000e772: 4c 39 ca             	cmp	rdx, r9
ffffffff8000e775: 0f 84 e6 00 00 00    	je	0xffffffff8000e861 <_ZN4core3fmt9Formatter3pad17h370ce1f58fced38bE+0x161>
ffffffff8000e77b: 0f b6 2a             	movzx	ebp, byte ptr [rdx]
ffffffff8000e77e: 40 84 ed             	test	bpl, bpl
ffffffff8000e781: 79 cd                	jns	0xffffffff8000e750 <_ZN4core3fmt9Formatter3pad17h370ce1f58fced38bE+0x50>
ffffffff8000e783: 89 eb                	mov	ebx, ebp
ffffffff8000e785: 83 e3 1f             	and	ebx, 31
ffffffff8000e788: 0f b6 72 01          	movzx	esi, byte ptr [rdx + 1]
ffffffff8000e78c: 83 e6 3f             	and	esi, 63
ffffffff8000e78f: 40 80 fd df          	cmp	bpl, -33
ffffffff8000e793: 76 3d                	jbe	0xffffffff8000e7d2 <_ZN4core3fmt9Formatter3pad17h370ce1f58fced38bE+0xd2>
ffffffff8000e795: 44 0f b6 52 02       	movzx	r10d, byte ptr [rdx + 2]
ffffffff8000e79a: c1 e6 06             	shl	esi, 6
ffffffff8000e79d: 41 83 e2 3f          	and	r10d, 63
ffffffff8000e7a1: 41 09 f2             	or	r10d, esi
ffffffff8000e7a4: 40 80 fd f0          	cmp	bpl, -16
ffffffff8000e7a8: 72 38                	jb	0xffffffff8000e7e2 <_ZN4core3fmt9Formatter3pad17h370ce1f58fced38bE+0xe2>
ffffffff8000e7aa: 0f b6 6a 03          	movzx	ebp, byte ptr [rdx + 3]
ffffffff8000e7ae: 83 e3 07             	and	ebx, 7
ffffffff8000e7b1: c1 e3 12             	shl	ebx, 18
ffffffff8000e7b4: 41 c1 e2 06          	shl	r10d, 6
ffffffff8000e7b8: 83 e5 3f             	and	ebp, 63
ffffffff8000e7bb: 44 09 d5             	or	ebp, r10d
ffffffff8000e7be: 09 dd                	or	ebp, ebx
ffffffff8000e7c0: 81 fd 00 00 11 00    	cmp	ebp, 1114112
ffffffff8000e7c6: 0f 84 95 00 00 00    	je	0xffffffff8000e861 <_ZN4core3fmt9Formatter3pad17h370ce1f58fced38bE+0x161>
ffffffff8000e7cc: 48 8d 42 04          	lea	rax, [rdx + 4]
ffffffff8000e7d0: eb 82                	jmp	0xffffffff8000e754 <_ZN4core3fmt9Formatter3pad17h370ce1f58fced38bE+0x54>
ffffffff8000e7d2: 48 8d 42 02          	lea	rax, [rdx + 2]
ffffffff8000e7d6: c1 e3 06             	shl	ebx, 6
ffffffff8000e7d9: 09 f3                	or	ebx, esi
ffffffff8000e7db: 89 dd                	mov	ebp, ebx
ffffffff8000e7dd: e9 72 ff ff ff       	jmp	0xffffffff8000e754 <_ZN4core3fmt9Formatter3pad17h370ce1f58fced38bE+0x54>
ffffffff8000e7e2: 48 8d 42 03          	lea	rax, [rdx + 3]
ffffffff8000e7e6: c1 e3 0c             	shl	ebx, 12
ffffffff8000e7e9: 41 09 da             	or	r10d, ebx
ffffffff8000e7ec: 44 89 d5             	mov	ebp, r10d
ffffffff8000e7ef: e9 60 ff ff ff       	jmp	0xffffffff8000e754 <_ZN4core3fmt9Formatter3pad17h370ce1f58fced38bE+0x54>
ffffffff8000e7f4: 4c 39 ca             	cmp	rdx, r9
ffffffff8000e7f7: 74 68                	je	0xffffffff8000e861 <_ZN4core3fmt9Formatter3pad17h370ce1f58fced38bE+0x161>
ffffffff8000e7f9: 0f b6 32             	movzx	esi, byte ptr [rdx]
ffffffff8000e7fc: 40 84 f6             	test	sil, sil
ffffffff8000e7ff: 79 3b                	jns	0xffffffff8000e83c <_ZN4core3fmt9Formatter3pad17h370ce1f58fced38bE+0x13c>
ffffffff8000e801: 40 80 fe e0          	cmp	sil, -32
ffffffff8000e805: 72 35                	jb	0xffffffff8000e83c <_ZN4core3fmt9Formatter3pad17h370ce1f58fced38bE+0x13c>
ffffffff8000e807: 40 80 fe f0          	cmp	sil, -16
ffffffff8000e80b: 72 2f                	jb	0xffffffff8000e83c <_ZN4core3fmt9Formatter3pad17h370ce1f58fced38bE+0x13c>
ffffffff8000e80d: 0f b6 42 01          	movzx	eax, byte ptr [rdx + 1]
ffffffff8000e811: 83 e0 3f             	and	eax, 63
ffffffff8000e814: 0f b6 7a 02          	movzx	edi, byte ptr [rdx + 2]
ffffffff8000e818: 83 e7 3f             	and	edi, 63
ffffffff8000e81b: 0f b6 52 03          	movzx	edx, byte ptr [rdx + 3]
ffffffff8000e81f: 83 e6 07             	and	esi, 7
ffffffff8000e822: c1 e6 12             	shl	esi, 18
ffffffff8000e825: c1 e0 0c             	shl	eax, 12
ffffffff8000e828: c1 e7 06             	shl	edi, 6
ffffffff8000e82b: 09 c7                	or	edi, eax
ffffffff8000e82d: 83 e2 3f             	and	edx, 63
ffffffff8000e830: 09 fa                	or	edx, edi
ffffffff8000e832: 09 f2                	or	edx, esi
ffffffff8000e834: 81 fa 00 00 11 00    	cmp	edx, 1114112
ffffffff8000e83a: 74 25                	je	0xffffffff8000e861 <_ZN4core3fmt9Formatter3pad17h370ce1f58fced38bE+0x161>
ffffffff8000e83c: 48 85 c9             	test	rcx, rcx
ffffffff8000e83f: 74 12                	je	0xffffffff8000e853 <_ZN4core3fmt9Formatter3pad17h370ce1f58fced38bE+0x153>
ffffffff8000e841: 4c 39 f9             	cmp	rcx, r15
ffffffff8000e844: 73 0b                	jae	0xffffffff8000e851 <_ZN4core3fmt9Formatter3pad17h370ce1f58fced38bE+0x151>
ffffffff8000e846: 41 80 3c 0e c0       	cmp	byte ptr [r14 + rcx], -64
ffffffff8000e84b: 7d 06                	jge	0xffffffff8000e853 <_ZN4core3fmt9Formatter3pad17h370ce1f58fced38bE+0x153>
ffffffff8000e84d: 31 c0                	xor	eax, eax
ffffffff8000e84f: eb 05                	jmp	0xffffffff8000e856 <_ZN4core3fmt9Formatter3pad17h370ce1f58fced38bE+0x156>
ffffffff8000e851: 75 fa                	jne	0xffffffff8000e84d <_ZN4core3fmt9Formatter3pad17h370ce1f58fced38bE+0x14d>
ffffffff8000e853: 4c 89 f0             	mov	rax, r14
ffffffff8000e856: 48 85 c0             	test	rax, rax
ffffffff8000e859: 4c 0f 45 f9          	cmovne	r15, rcx
ffffffff8000e85d: 4c 0f 45 f0          	cmovne	r14, rax
ffffffff8000e861: 4d 85 c0             	test	r8, r8
ffffffff8000e864: 0f 84 e7 00 00 00    	je	0xffffffff8000e951 <_ZN4core3fmt9Formatter3pad17h370ce1f58fced38bE+0x251>
ffffffff8000e86a: 49 8b 5c 24 18       	mov	rbx, qword ptr [r12 + 24]
ffffffff8000e86f: 49 83 ff 20          	cmp	r15, 32
ffffffff8000e873: 73 1c                	jae	0xffffffff8000e891 <_ZN4core3fmt9Formatter3pad17h370ce1f58fced38bE+0x191>
ffffffff8000e875: 4d 85 ff             	test	r15, r15
ffffffff8000e878: 74 28                	je	0xffffffff8000e8a2 <_ZN4core3fmt9Formatter3pad17h370ce1f58fced38bE+0x1a2>
ffffffff8000e87a: 49 8d 47 ff          	lea	rax, [r15 - 1]
ffffffff8000e87e: 44 89 f9             	mov	ecx, r15d
ffffffff8000e881: 83 e1 03             	and	ecx, 3
ffffffff8000e884: 48 83 f8 03          	cmp	rax, 3
ffffffff8000e888: 73 1c                	jae	0xffffffff8000e8a6 <_ZN4core3fmt9Formatter3pad17h370ce1f58fced38bE+0x1a6>
ffffffff8000e88a: 31 c0                	xor	eax, eax
ffffffff8000e88c: 4c 89 f2             	mov	rdx, r14
ffffffff8000e88f: eb 6a                	jmp	0xffffffff8000e8fb <_ZN4core3fmt9Formatter3pad17h370ce1f58fced38bE+0x1fb>
ffffffff8000e891: 4c 89 f7             	mov	rdi, r14
ffffffff8000e894: 4c 89 fe             	mov	rsi, r15
ffffffff8000e897: ff 15 eb 39 00 00    	call	qword ptr [rip + 14827] # 0xffffffff80012288 <xr6aouzjkjmurg0+0xffffffff80012288>
ffffffff8000e89d: e9 83 00 00 00       	jmp	0xffffffff8000e925 <_ZN4core3fmt9Formatter3pad17h370ce1f58fced38bE+0x225>
ffffffff8000e8a2: 31 c0                	xor	eax, eax
ffffffff8000e8a4: eb 7f                	jmp	0xffffffff8000e925 <_ZN4core3fmt9Formatter3pad17h370ce1f58fced38bE+0x225>
ffffffff8000e8a6: 4c 89 fe             	mov	rsi, r15
ffffffff8000e8a9: 48 83 e6 fc          	and	rsi, -4
ffffffff8000e8ad: 31 c0                	xor	eax, eax
ffffffff8000e8af: 4c 89 f2             	mov	rdx, r14
ffffffff8000e8b2: 66 66 66 66 66 2e 0f 1f 84 00 00 00 00 00    	nop	word ptr cs:[rax + rax]
ffffffff8000e8c0: 31 ff                	xor	edi, edi
ffffffff8000e8c2: 80 3a c0             	cmp	byte ptr [rdx], -64
ffffffff8000e8c5: 40 0f 9d c7          	setge	dil
ffffffff8000e8c9: 48 01 c7             	add	rdi, rax
ffffffff8000e8cc: 31 c0                	xor	eax, eax
ffffffff8000e8ce: 80 7a 01 c0          	cmp	byte ptr [rdx + 1], -64
ffffffff8000e8d2: 0f 9d c0             	setge	al
ffffffff8000e8d5: 48 01 f8             	add	rax, rdi
ffffffff8000e8d8: 31 ff                	xor	edi, edi
ffffffff8000e8da: 80 7a 02 c0          	cmp	byte ptr [rdx + 2], -64
ffffffff8000e8de: 40 0f 9d c7          	setge	dil
ffffffff8000e8e2: 48 01 c7             	add	rdi, rax
ffffffff8000e8e5: 31 c0                	xor	eax, eax
ffffffff8000e8e7: 80 7a 03 c0          	cmp	byte ptr [rdx + 3], -64
ffffffff8000e8eb: 48 8d 52 04          	lea	rdx, [rdx + 4]
ffffffff8000e8ef: 0f 9d c0             	setge	al
ffffffff8000e8f2: 48 01 f8             	add	rax, rdi
ffffffff8000e8f5: 48 83 c6 fc          	add	rsi, -4
ffffffff8000e8f9: 75 c5                	jne	0xffffffff8000e8c0 <_ZN4core3fmt9Formatter3pad17h370ce1f58fced38bE+0x1c0>
ffffffff8000e8fb: 48 85 c9             	test	rcx, rcx
ffffffff8000e8fe: 74 25                	je	0xffffffff8000e925 <_ZN4core3fmt9Formatter3pad17h370ce1f58fced38bE+0x225>
ffffffff8000e900: 31 f6                	xor	esi, esi
ffffffff8000e902: 66 66 66 66 66 2e 0f 1f 84 00 00 00 00 00    	nop	word ptr cs:[rax + rax]
ffffffff8000e910: 31 ff                	xor	edi, edi
ffffffff8000e912: 80 3c 32 c0          	cmp	byte ptr [rdx + rsi], -64
ffffffff8000e916: 40 0f 9d c7          	setge	dil
ffffffff8000e91a: 48 01 f8             	add	rax, rdi
ffffffff8000e91d: 48 ff c6             	inc	rsi
ffffffff8000e920: 48 39 f1             	cmp	rcx, rsi
ffffffff8000e923: 75 eb                	jne	0xffffffff8000e910 <_ZN4core3fmt9Formatter3pad17h370ce1f58fced38bE+0x210>
ffffffff8000e925: 48 29 c3             	sub	rbx, rax
ffffffff8000e928: 76 27                	jbe	0xffffffff8000e951 <_ZN4core3fmt9Formatter3pad17h370ce1f58fced38bE+0x251>
ffffffff8000e92a: 41 8b 4c 24 38       	mov	ecx, dword ptr [r12 + 56]
ffffffff8000e92f: 31 c0                	xor	eax, eax
ffffffff8000e931: 80 f9 03             	cmp	cl, 3
ffffffff8000e934: 0f 45 c1             	cmovne	eax, ecx
ffffffff8000e937: 84 c0                	test	al, al
ffffffff8000e939: 4c 89 74 24 10       	mov	qword ptr [rsp + 16], r14
ffffffff8000e93e: 74 34                	je	0xffffffff8000e974 <_ZN4core3fmt9Formatter3pad17h370ce1f58fced38bE+0x274>
ffffffff8000e940: 0f b6 c0             	movzx	eax, al
ffffffff8000e943: 83 f8 01             	cmp	eax, 1
ffffffff8000e946: 75 36                	jne	0xffffffff8000e97e <_ZN4core3fmt9Formatter3pad17h370ce1f58fced38bE+0x27e>
ffffffff8000e948: 31 c0                	xor	eax, eax
ffffffff8000e94a: 48 89 44 24 08       	mov	qword ptr [rsp + 8], rax
ffffffff8000e94f: eb 41                	jmp	0xffffffff8000e992 <_ZN4core3fmt9Formatter3pad17h370ce1f58fced38bE+0x292>
ffffffff8000e951: 49 8b 3c 24          	mov	rdi, qword ptr [r12]
ffffffff8000e955: 49 8b 44 24 08       	mov	rax, qword ptr [r12 + 8]
ffffffff8000e95a: 48 8b 40 18          	mov	rax, qword ptr [rax + 24]
ffffffff8000e95e: 4c 89 f6             	mov	rsi, r14
ffffffff8000e961: 4c 89 fa             	mov	rdx, r15
ffffffff8000e964: 48 83 c4 18          	add	rsp, 24
ffffffff8000e968: 5b                   	pop	rbx
ffffffff8000e969: 41 5c                	pop	r12
ffffffff8000e96b: 41 5d                	pop	r13
ffffffff8000e96d: 41 5e                	pop	r14
ffffffff8000e96f: 41 5f                	pop	r15
ffffffff8000e971: 5d                   	pop	rbp
ffffffff8000e972: ff e0                	jmp	rax
ffffffff8000e974: 48 89 5c 24 08       	mov	qword ptr [rsp + 8], rbx
ffffffff8000e979: 0f b6 d8             	movzx	ebx, al
ffffffff8000e97c: eb 14                	jmp	0xffffffff8000e992 <_ZN4core3fmt9Formatter3pad17h370ce1f58fced38bE+0x292>
ffffffff8000e97e: 48 89 d8             	mov	rax, rbx
ffffffff8000e981: 48 d1 e8             	shr	rax
ffffffff8000e984: 48 ff c3             	inc	rbx
ffffffff8000e987: 48 d1 eb             	shr	rbx
ffffffff8000e98a: 48 89 5c 24 08       	mov	qword ptr [rsp + 8], rbx
ffffffff8000e98f: 48 89 c3             	mov	rbx, rax
ffffffff8000e992: 4d 8b 2c 24          	mov	r13, qword ptr [r12]
ffffffff8000e996: 4d 8b 74 24 08       	mov	r14, qword ptr [r12 + 8]
ffffffff8000e99b: 41 8b 6c 24 34       	mov	ebp, dword ptr [r12 + 52]
ffffffff8000e9a0: 48 ff c3             	inc	rbx
ffffffff8000e9a3: 66 66 66 66 2e 0f 1f 84 00 00 00 00 00       	nop	word ptr cs:[rax + rax]
ffffffff8000e9b0: 48 ff cb             	dec	rbx
ffffffff8000e9b3: 74 12                	je	0xffffffff8000e9c7 <_ZN4core3fmt9Formatter3pad17h370ce1f58fced38bE+0x2c7>
ffffffff8000e9b5: 4c 89 ef             	mov	rdi, r13
ffffffff8000e9b8: 89 ee                	mov	esi, ebp
ffffffff8000e9ba: 41 ff 56 20          	call	qword ptr [r14 + 32]
ffffffff8000e9be: 84 c0                	test	al, al
ffffffff8000e9c0: 74 ee                	je	0xffffffff8000e9b0 <_ZN4core3fmt9Formatter3pad17h370ce1f58fced38bE+0x2b0>
ffffffff8000e9c2: 41 b4 01             	mov	r12b, 1
ffffffff8000e9c5: eb 5f                	jmp	0xffffffff8000ea26 <_ZN4core3fmt9Formatter3pad17h370ce1f58fced38bE+0x326>
ffffffff8000e9c7: 41 b4 01             	mov	r12b, 1
ffffffff8000e9ca: 81 fd 00 00 11 00    	cmp	ebp, 1114112
ffffffff8000e9d0: 74 54                	je	0xffffffff8000ea26 <_ZN4core3fmt9Formatter3pad17h370ce1f58fced38bE+0x326>
ffffffff8000e9d2: 4c 89 ef             	mov	rdi, r13
ffffffff8000e9d5: 48 8b 74 24 10       	mov	rsi, qword ptr [rsp + 16]
ffffffff8000e9da: 4c 89 fa             	mov	rdx, r15
ffffffff8000e9dd: 41 ff 56 18          	call	qword ptr [r14 + 24]
ffffffff8000e9e1: 84 c0                	test	al, al
ffffffff8000e9e3: 75 41                	jne	0xffffffff8000ea26 <_ZN4core3fmt9Formatter3pad17h370ce1f58fced38bE+0x326>
ffffffff8000e9e5: 4c 8b 64 24 08       	mov	r12, qword ptr [rsp + 8]
ffffffff8000e9ea: 4d 89 e7             	mov	r15, r12
ffffffff8000e9ed: 49 f7 df             	neg	r15
ffffffff8000e9f0: 48 c7 c3 ff ff ff ff 	mov	rbx, -1
ffffffff8000e9f7: 66 0f 1f 84 00 00 00 00 00   	nop	word ptr [rax + rax]
ffffffff8000ea00: 49 8d 04 1f          	lea	rax, [r15 + rbx]
ffffffff8000ea04: 48 83 f8 ff          	cmp	rax, -1
ffffffff8000ea08: 74 12                	je	0xffffffff8000ea1c <_ZN4core3fmt9Formatter3pad17h370ce1f58fced38bE+0x31c>
ffffffff8000ea0a: 4c 89 ef             	mov	rdi, r13
ffffffff8000ea0d: 89 ee                	mov	esi, ebp
ffffffff8000ea0f: 41 ff 56 20          	call	qword ptr [r14 + 32]
ffffffff8000ea13: 48 ff c3             	inc	rbx
ffffffff8000ea16: 84 c0                	test	al, al
ffffffff8000ea18: 74 e6                	je	0xffffffff8000ea00 <_ZN4core3fmt9Formatter3pad17h370ce1f58fced38bE+0x300>
ffffffff8000ea1a: eb 03                	jmp	0xffffffff8000ea1f <_ZN4core3fmt9Formatter3pad17h370ce1f58fced38bE+0x31f>
ffffffff8000ea1c: 4c 89 e3             	mov	rbx, r12
ffffffff8000ea1f: 4c 39 e3             	cmp	rbx, r12
ffffffff8000ea22: 41 0f 92 c4          	setb	r12b
ffffffff8000ea26: 44 89 e0             	mov	eax, r12d
ffffffff8000ea29: 48 83 c4 18          	add	rsp, 24
ffffffff8000ea2d: 5b                   	pop	rbx
ffffffff8000ea2e: 41 5c                	pop	r12
ffffffff8000ea30: 41 5d                	pop	r13
ffffffff8000ea32: 41 5e                	pop	r14
ffffffff8000ea34: 41 5f                	pop	r15
ffffffff8000ea36: 5d                   	pop	rbp
ffffffff8000ea37: c3                   	ret
ffffffff8000ea38: cc                   	int3
ffffffff8000ea39: cc                   	int3
ffffffff8000ea3a: cc                   	int3
ffffffff8000ea3b: cc                   	int3
ffffffff8000ea3c: cc                   	int3
ffffffff8000ea3d: cc                   	int3
ffffffff8000ea3e: cc                   	int3
ffffffff8000ea3f: cc                   	int3

ffffffff8000ea40 <_ZN57_$LT$core..fmt..Formatter$u20$as$u20$core..fmt..Write$GT$9write_str17h600403c910f48261E>:
ffffffff8000ea40: 48 8b 07             	mov	rax, qword ptr [rdi]
ffffffff8000ea43: 48 8b 4f 08          	mov	rcx, qword ptr [rdi + 8]
ffffffff8000ea47: 48 8b 49 18          	mov	rcx, qword ptr [rcx + 24]
ffffffff8000ea4b: 48 89 c7             	mov	rdi, rax
ffffffff8000ea4e: ff e1                	jmp	rcx

ffffffff8000ea50 <_ZN57_$LT$core..fmt..Formatter$u20$as$u20$core..fmt..Write$GT$9write_fmt17h3494c292391c7b34E>:
ffffffff8000ea50: 48 83 ec 38          	sub	rsp, 56
ffffffff8000ea54: 48 8b 07             	mov	rax, qword ptr [rdi]
ffffffff8000ea57: 48 8b 4f 08          	mov	rcx, qword ptr [rdi + 8]
ffffffff8000ea5b: 48 8b 56 28          	mov	rdx, qword ptr [rsi + 40]
ffffffff8000ea5f: 48 89 54 24 30       	mov	qword ptr [rsp + 48], rdx
ffffffff8000ea64: 48 8b 56 20          	mov	rdx, qword ptr [rsi + 32]
ffffffff8000ea68: 48 89 54 24 28       	mov	qword ptr [rsp + 40], rdx
ffffffff8000ea6d: 48 8b 56 18          	mov	rdx, qword ptr [rsi + 24]
ffffffff8000ea71: 48 89 54 24 20       	mov	qword ptr [rsp + 32], rdx
ffffffff8000ea76: 48 8b 56 10          	mov	rdx, qword ptr [rsi + 16]
ffffffff8000ea7a: 48 89 54 24 18       	mov	qword ptr [rsp + 24], rdx
ffffffff8000ea7f: 48 8b 16             	mov	rdx, qword ptr [rsi]
ffffffff8000ea82: 48 8b 76 08          	mov	rsi, qword ptr [rsi + 8]
ffffffff8000ea86: 48 89 74 24 10       	mov	qword ptr [rsp + 16], rsi
ffffffff8000ea8b: 48 89 54 24 08       	mov	qword ptr [rsp + 8], rdx
ffffffff8000ea90: 48 8d 54 24 08       	lea	rdx, [rsp + 8]
ffffffff8000ea95: 48 89 c7             	mov	rdi, rax
ffffffff8000ea98: 48 89 ce             	mov	rsi, rcx
ffffffff8000ea9b: ff 15 6f 36 00 00    	call	qword ptr [rip + 13935] # 0xffffffff80012110 <xr6aouzjkjmurg0+0xffffffff80012110>
ffffffff8000eaa1: 48 83 c4 38          	add	rsp, 56
ffffffff8000eaa5: c3                   	ret
ffffffff8000eaa6: cc                   	int3
ffffffff8000eaa7: cc                   	int3
ffffffff8000eaa8: cc                   	int3
ffffffff8000eaa9: cc                   	int3
ffffffff8000eaaa: cc                   	int3
ffffffff8000eaab: cc                   	int3
ffffffff8000eaac: cc                   	int3
ffffffff8000eaad: cc                   	int3
ffffffff8000eaae: cc                   	int3
ffffffff8000eaaf: cc                   	int3

ffffffff8000eab0 <_ZN4core3fmt9Formatter15debug_lower_hex17h7c6bcb2c7c137bf3E>:
ffffffff8000eab0: 0f b6 47 30          	movzx	eax, byte ptr [rdi + 48]
ffffffff8000eab4: 24 10                	and	al, 16
ffffffff8000eab6: c0 e8 04             	shr	al, 4
ffffffff8000eab9: c3                   	ret
ffffffff8000eaba: cc                   	int3
ffffffff8000eabb: cc                   	int3
ffffffff8000eabc: cc                   	int3
ffffffff8000eabd: cc                   	int3
ffffffff8000eabe: cc                   	int3
ffffffff8000eabf: cc                   	int3

ffffffff8000eac0 <_ZN4core3fmt9Formatter15debug_upper_hex17h7acd5ec1857175e0E>:
ffffffff8000eac0: 0f b6 47 30          	movzx	eax, byte ptr [rdi + 48]
ffffffff8000eac4: 24 20                	and	al, 32
ffffffff8000eac6: c0 e8 05             	shr	al, 5
ffffffff8000eac9: c3                   	ret
ffffffff8000eaca: cc                   	int3
ffffffff8000eacb: cc                   	int3
ffffffff8000eacc: cc                   	int3
ffffffff8000eacd: cc                   	int3
ffffffff8000eace: cc                   	int3
ffffffff8000eacf: cc                   	int3

ffffffff8000ead0 <_ZN4core3fmt9Formatter11debug_tuple17h7b78ee8065600d91E>:
ffffffff8000ead0: 41 57                	push	r15
ffffffff8000ead2: 41 56                	push	r14
ffffffff8000ead4: 53                   	push	rbx
ffffffff8000ead5: 49 89 ce             	mov	r14, rcx
ffffffff8000ead8: 49 89 f7             	mov	r15, rsi
ffffffff8000eadb: 48 89 fb             	mov	rbx, rdi
ffffffff8000eade: 48 8b 3e             	mov	rdi, qword ptr [rsi]
ffffffff8000eae1: 48 8b 46 08          	mov	rax, qword ptr [rsi + 8]
ffffffff8000eae5: 48 89 d6             	mov	rsi, rdx
ffffffff8000eae8: 48 89 ca             	mov	rdx, rcx
ffffffff8000eaeb: ff 50 18             	call	qword ptr [rax + 24]
ffffffff8000eaee: 4d 85 f6             	test	r14, r14
ffffffff8000eaf1: 4c 89 7b 08          	mov	qword ptr [rbx + 8], r15
ffffffff8000eaf5: 88 43 10             	mov	byte ptr [rbx + 16], al
ffffffff8000eaf8: 48 c7 03 00 00 00 00 	mov	qword ptr [rbx], 0
ffffffff8000eaff: 0f 94 43 11          	sete	byte ptr [rbx + 17]
ffffffff8000eb03: 48 89 d8             	mov	rax, rbx
ffffffff8000eb06: 5b                   	pop	rbx
ffffffff8000eb07: 41 5e                	pop	r14
ffffffff8000eb09: 41 5f                	pop	r15
ffffffff8000eb0b: c3                   	ret
ffffffff8000eb0c: cc                   	int3
ffffffff8000eb0d: cc                   	int3
ffffffff8000eb0e: cc                   	int3
ffffffff8000eb0f: cc                   	int3

ffffffff8000eb10 <_ZN4core5slice6memchr14memchr_aligned17h672c3bea78977da0E>:
ffffffff8000eb10: 41 56                	push	r14
ffffffff8000eb12: 53                   	push	rbx
ffffffff8000eb13: 50                   	push	rax
ffffffff8000eb14: 41 89 f8             	mov	r8d, edi
ffffffff8000eb17: 48 8d 7e 07          	lea	rdi, [rsi + 7]
ffffffff8000eb1b: 48 83 e7 f8          	and	rdi, -8
ffffffff8000eb1f: 48 29 f7             	sub	rdi, rsi
ffffffff8000eb22: 74 39                	je	0xffffffff8000eb5d <_ZN4core5slice6memchr14memchr_aligned17h672c3bea78977da0E+0x4d>
ffffffff8000eb24: 48 39 d7             	cmp	rdi, rdx
ffffffff8000eb27: 48 0f 43 fa          	cmovae	rdi, rdx
ffffffff8000eb2b: 48 85 ff             	test	rdi, rdi
ffffffff8000eb2e: 74 2d                	je	0xffffffff8000eb5d <_ZN4core5slice6memchr14memchr_aligned17h672c3bea78977da0E+0x4d>
ffffffff8000eb30: 31 c9                	xor	ecx, ecx
ffffffff8000eb32: 66 66 66 66 66 2e 0f 1f 84 00 00 00 00 00    	nop	word ptr cs:[rax + rax]
ffffffff8000eb40: 44 38 04 0e          	cmp	byte ptr [rsi + rcx], r8b
ffffffff8000eb44: 0f 84 b3 00 00 00    	je	0xffffffff8000ebfd <_ZN4core5slice6memchr14memchr_aligned17h672c3bea78977da0E+0xed>
ffffffff8000eb4a: 48 ff c1             	inc	rcx
ffffffff8000eb4d: 48 39 cf             	cmp	rdi, rcx
ffffffff8000eb50: 75 ee                	jne	0xffffffff8000eb40 <_ZN4core5slice6memchr14memchr_aligned17h672c3bea78977da0E+0x30>
ffffffff8000eb52: 4c 8d 4a f0          	lea	r9, [rdx - 16]
ffffffff8000eb56: 4c 39 cf             	cmp	rdi, r9
ffffffff8000eb59: 76 08                	jbe	0xffffffff8000eb63 <_ZN4core5slice6memchr14memchr_aligned17h672c3bea78977da0E+0x53>
ffffffff8000eb5b: eb 72                	jmp	0xffffffff8000ebcf <_ZN4core5slice6memchr14memchr_aligned17h672c3bea78977da0E+0xbf>
ffffffff8000eb5d: 4c 8d 4a f0          	lea	r9, [rdx - 16]
ffffffff8000eb61: 31 ff                	xor	edi, edi
ffffffff8000eb63: 49 ba ff fe fe fe fe fe fe fe	movabs	r10, -72340172838076673
ffffffff8000eb6d: 49 be 80 80 80 80 80 80 80 80	movabs	r14, -9187201950435737472
ffffffff8000eb77: 45 0f b6 d8          	movzx	r11d, r8b
ffffffff8000eb7b: 48 b9 01 01 01 01 01 01 01 01	movabs	rcx, 72340172838076673
ffffffff8000eb85: 49 0f af cb          	imul	rcx, r11
ffffffff8000eb89: 0f 1f 80 00 00 00 00 	nop	dword ptr [rax]
ffffffff8000eb90: 48 8b 04 3e          	mov	rax, qword ptr [rsi + rdi]
ffffffff8000eb94: 48 31 c8             	xor	rax, rcx
ffffffff8000eb97: 48 89 c3             	mov	rbx, rax
ffffffff8000eb9a: 48 f7 d3             	not	rbx
ffffffff8000eb9d: 4c 01 d0             	add	rax, r10
ffffffff8000eba0: 4c 21 f3             	and	rbx, r14
ffffffff8000eba3: 48 85 c3             	test	rbx, rax
ffffffff8000eba6: 75 22                	jne	0xffffffff8000ebca <_ZN4core5slice6memchr14memchr_aligned17h672c3bea78977da0E+0xba>
ffffffff8000eba8: 48 8b 44 3e 08       	mov	rax, qword ptr [rsi + rdi + 8]
ffffffff8000ebad: 48 31 c8             	xor	rax, rcx
ffffffff8000ebb0: 48 89 c3             	mov	rbx, rax
ffffffff8000ebb3: 48 f7 d3             	not	rbx
ffffffff8000ebb6: 4c 01 d0             	add	rax, r10
ffffffff8000ebb9: 4c 21 f3             	and	rbx, r14
ffffffff8000ebbc: 48 85 c3             	test	rbx, rax
ffffffff8000ebbf: 75 09                	jne	0xffffffff8000ebca <_ZN4core5slice6memchr14memchr_aligned17h672c3bea78977da0E+0xba>
ffffffff8000ebc1: 48 83 c7 10          	add	rdi, 16
ffffffff8000ebc5: 4c 39 cf             	cmp	rdi, r9
ffffffff8000ebc8: 76 c6                	jbe	0xffffffff8000eb90 <_ZN4core5slice6memchr14memchr_aligned17h672c3bea78977da0E+0x80>
ffffffff8000ebca: 48 39 d7             	cmp	rdi, rdx
ffffffff8000ebcd: 77 3e                	ja	0xffffffff8000ec0d <_ZN4core5slice6memchr14memchr_aligned17h672c3bea78977da0E+0xfd>
ffffffff8000ebcf: 31 c0                	xor	eax, eax
ffffffff8000ebd1: 48 39 d7             	cmp	rdi, rdx
ffffffff8000ebd4: 74 18                	je	0xffffffff8000ebee <_ZN4core5slice6memchr14memchr_aligned17h672c3bea78977da0E+0xde>
ffffffff8000ebd6: 66 2e 0f 1f 84 00 00 00 00 00	nop	word ptr cs:[rax + rax]
ffffffff8000ebe0: 44 38 04 3e          	cmp	byte ptr [rsi + rdi], r8b
ffffffff8000ebe4: 74 0d                	je	0xffffffff8000ebf3 <_ZN4core5slice6memchr14memchr_aligned17h672c3bea78977da0E+0xe3>
ffffffff8000ebe6: 48 ff c7             	inc	rdi
ffffffff8000ebe9: 48 39 fa             	cmp	rdx, rdi
ffffffff8000ebec: 75 f2                	jne	0xffffffff8000ebe0 <_ZN4core5slice6memchr14memchr_aligned17h672c3bea78977da0E+0xd0>
ffffffff8000ebee: 48 89 d1             	mov	rcx, rdx
ffffffff8000ebf1: eb 0f                	jmp	0xffffffff8000ec02 <_ZN4core5slice6memchr14memchr_aligned17h672c3bea78977da0E+0xf2>
ffffffff8000ebf3: b8 01 00 00 00       	mov	eax, 1
ffffffff8000ebf8: 48 89 f9             	mov	rcx, rdi
ffffffff8000ebfb: eb 05                	jmp	0xffffffff8000ec02 <_ZN4core5slice6memchr14memchr_aligned17h672c3bea78977da0E+0xf2>
ffffffff8000ebfd: b8 01 00 00 00       	mov	eax, 1
ffffffff8000ec02: 48 89 ca             	mov	rdx, rcx
ffffffff8000ec05: 48 83 c4 08          	add	rsp, 8
ffffffff8000ec09: 5b                   	pop	rbx
ffffffff8000ec0a: 41 5e                	pop	r14
ffffffff8000ec0c: c3                   	ret
ffffffff8000ec0d: 48 8d 05 34 33 00 00 	lea	rax, [rip + 13108]      # 0xffffffff80011f48 <xr6aouzjkjmurg0+0xffffffff80011f48>
ffffffff8000ec14: 48 89 d6             	mov	rsi, rdx
ffffffff8000ec17: 48 89 c2             	mov	rdx, rax
ffffffff8000ec1a: ff 15 50 36 00 00    	call	qword ptr [rip + 13904] # 0xffffffff80012270 <xr6aouzjkjmurg0+0xffffffff80012270>
ffffffff8000ec20: 0f 0b                	ud2
ffffffff8000ec22: cc                   	int3
ffffffff8000ec23: cc                   	int3
ffffffff8000ec24: cc                   	int3
ffffffff8000ec25: cc                   	int3
ffffffff8000ec26: cc                   	int3
ffffffff8000ec27: cc                   	int3
ffffffff8000ec28: cc                   	int3
ffffffff8000ec29: cc                   	int3
ffffffff8000ec2a: cc                   	int3
ffffffff8000ec2b: cc                   	int3
ffffffff8000ec2c: cc                   	int3
ffffffff8000ec2d: cc                   	int3
ffffffff8000ec2e: cc                   	int3
ffffffff8000ec2f: cc                   	int3

ffffffff8000ec30 <_ZN4core5slice5index26slice_start_index_len_fail17hf6bbdc8d69ab4611E>:
ffffffff8000ec30: 50                   	push	rax
ffffffff8000ec31: e8 0a 00 00 00       	call	0xffffffff8000ec40 <_ZN4core5slice5index29slice_start_index_len_fail_rt17hda730c69b9f61f9dE>
ffffffff8000ec36: 0f 0b                	ud2
ffffffff8000ec38: cc                   	int3
ffffffff8000ec39: cc                   	int3
ffffffff8000ec3a: cc                   	int3
ffffffff8000ec3b: cc                   	int3
ffffffff8000ec3c: cc                   	int3
ffffffff8000ec3d: cc                   	int3
ffffffff8000ec3e: cc                   	int3
ffffffff8000ec3f: cc                   	int3

ffffffff8000ec40 <_ZN4core5slice5index29slice_start_index_len_fail_rt17hda730c69b9f61f9dE>:
ffffffff8000ec40: 48 83 ec 68          	sub	rsp, 104
ffffffff8000ec44: 48 89 7c 24 08       	mov	qword ptr [rsp + 8], rdi
ffffffff8000ec49: 48 89 74 24 10       	mov	qword ptr [rsp + 16], rsi
ffffffff8000ec4e: 48 8d 44 24 08       	lea	rax, [rsp + 8]
ffffffff8000ec53: 48 89 44 24 18       	mov	qword ptr [rsp + 24], rax
ffffffff8000ec58: 48 8b 05 59 35 00 00 	mov	rax, qword ptr [rip + 13657] # 0xffffffff800121b8 <xr6aouzjkjmurg0+0xffffffff800121b8>
ffffffff8000ec5f: 48 89 44 24 20       	mov	qword ptr [rsp + 32], rax
ffffffff8000ec64: 48 8d 4c 24 10       	lea	rcx, [rsp + 16]
ffffffff8000ec69: 48 89 4c 24 28       	mov	qword ptr [rsp + 40], rcx
ffffffff8000ec6e: 48 89 44 24 30       	mov	qword ptr [rsp + 48], rax
ffffffff8000ec73: 48 8d 05 e6 32 00 00 	lea	rax, [rip + 13030]      # 0xffffffff80011f60 <xr6aouzjkjmurg0+0xffffffff80011f60>
ffffffff8000ec7a: 48 89 44 24 48       	mov	qword ptr [rsp + 72], rax
ffffffff8000ec7f: 48 c7 44 24 50 02 00 00 00   	mov	qword ptr [rsp + 80], 2
ffffffff8000ec88: 48 c7 44 24 38 00 00 00 00   	mov	qword ptr [rsp + 56], 0
ffffffff8000ec91: 48 8d 44 24 18       	lea	rax, [rsp + 24]
ffffffff8000ec96: 48 89 44 24 58       	mov	qword ptr [rsp + 88], rax
ffffffff8000ec9b: 48 c7 44 24 60 02 00 00 00   	mov	qword ptr [rsp + 96], 2
ffffffff8000eca4: 48 8d 7c 24 38       	lea	rdi, [rsp + 56]
ffffffff8000eca9: 48 89 d6             	mov	rsi, rdx
ffffffff8000ecac: ff 15 6e 34 00 00    	call	qword ptr [rip + 13422] # 0xffffffff80012120 <xr6aouzjkjmurg0+0xffffffff80012120>
ffffffff8000ecb2: 0f 0b                	ud2
ffffffff8000ecb4: cc                   	int3
ffffffff8000ecb5: cc                   	int3
ffffffff8000ecb6: cc                   	int3
ffffffff8000ecb7: cc                   	int3
ffffffff8000ecb8: cc                   	int3
ffffffff8000ecb9: cc                   	int3
ffffffff8000ecba: cc                   	int3
ffffffff8000ecbb: cc                   	int3
ffffffff8000ecbc: cc                   	int3
ffffffff8000ecbd: cc                   	int3
ffffffff8000ecbe: cc                   	int3
ffffffff8000ecbf: cc                   	int3

ffffffff8000ecc0 <_ZN4core5slice5index24slice_end_index_len_fail17h86d6d55e3611df68E>:
ffffffff8000ecc0: 50                   	push	rax
ffffffff8000ecc1: e8 0a 00 00 00       	call	0xffffffff8000ecd0 <_ZN4core5slice5index27slice_end_index_len_fail_rt17h0b88f9e0376dd65bE>
ffffffff8000ecc6: 0f 0b                	ud2
ffffffff8000ecc8: cc                   	int3
ffffffff8000ecc9: cc                   	int3
ffffffff8000ecca: cc                   	int3
ffffffff8000eccb: cc                   	int3
ffffffff8000eccc: cc                   	int3
ffffffff8000eccd: cc                   	int3
ffffffff8000ecce: cc                   	int3
ffffffff8000eccf: cc                   	int3

ffffffff8000ecd0 <_ZN4core5slice5index27slice_end_index_len_fail_rt17h0b88f9e0376dd65bE>:
ffffffff8000ecd0: 48 83 ec 68          	sub	rsp, 104
ffffffff8000ecd4: 48 89 7c 24 08       	mov	qword ptr [rsp + 8], rdi
ffffffff8000ecd9: 48 89 74 24 10       	mov	qword ptr [rsp + 16], rsi
ffffffff8000ecde: 48 8d 44 24 08       	lea	rax, [rsp + 8]
ffffffff8000ece3: 48 89 44 24 18       	mov	qword ptr [rsp + 24], rax
ffffffff8000ece8: 48 8b 05 c9 34 00 00 	mov	rax, qword ptr [rip + 13513] # 0xffffffff800121b8 <xr6aouzjkjmurg0+0xffffffff800121b8>
ffffffff8000ecef: 48 89 44 24 20       	mov	qword ptr [rsp + 32], rax
ffffffff8000ecf4: 48 8d 4c 24 10       	lea	rcx, [rsp + 16]
ffffffff8000ecf9: 48 89 4c 24 28       	mov	qword ptr [rsp + 40], rcx
ffffffff8000ecfe: 48 89 44 24 30       	mov	qword ptr [rsp + 48], rax
ffffffff8000ed03: 48 8d 05 76 32 00 00 	lea	rax, [rip + 12918]      # 0xffffffff80011f80 <xr6aouzjkjmurg0+0xffffffff80011f80>
ffffffff8000ed0a: 48 89 44 24 48       	mov	qword ptr [rsp + 72], rax
ffffffff8000ed0f: 48 c7 44 24 50 02 00 00 00   	mov	qword ptr [rsp + 80], 2
ffffffff8000ed18: 48 c7 44 24 38 00 00 00 00   	mov	qword ptr [rsp + 56], 0
ffffffff8000ed21: 48 8d 44 24 18       	lea	rax, [rsp + 24]
ffffffff8000ed26: 48 89 44 24 58       	mov	qword ptr [rsp + 88], rax
ffffffff8000ed2b: 48 c7 44 24 60 02 00 00 00   	mov	qword ptr [rsp + 96], 2
ffffffff8000ed34: 48 8d 7c 24 38       	lea	rdi, [rsp + 56]
ffffffff8000ed39: 48 89 d6             	mov	rsi, rdx
ffffffff8000ed3c: ff 15 de 33 00 00    	call	qword ptr [rip + 13278] # 0xffffffff80012120 <xr6aouzjkjmurg0+0xffffffff80012120>
ffffffff8000ed42: 0f 0b                	ud2
ffffffff8000ed44: cc                   	int3
ffffffff8000ed45: cc                   	int3
ffffffff8000ed46: cc                   	int3
ffffffff8000ed47: cc                   	int3
ffffffff8000ed48: cc                   	int3
ffffffff8000ed49: cc                   	int3
ffffffff8000ed4a: cc                   	int3
ffffffff8000ed4b: cc                   	int3
ffffffff8000ed4c: cc                   	int3
ffffffff8000ed4d: cc                   	int3
ffffffff8000ed4e: cc                   	int3
ffffffff8000ed4f: cc                   	int3

ffffffff8000ed50 <_ZN4core5slice5index22slice_index_order_fail17h716af657897e647bE>:
ffffffff8000ed50: 50                   	push	rax
ffffffff8000ed51: e8 0a 00 00 00       	call	0xffffffff8000ed60 <_ZN4core5slice5index25slice_index_order_fail_rt17h0d7ce767d070d67eE>
ffffffff8000ed56: 0f 0b                	ud2
ffffffff8000ed58: cc                   	int3
ffffffff8000ed59: cc                   	int3
ffffffff8000ed5a: cc                   	int3
ffffffff8000ed5b: cc                   	int3
ffffffff8000ed5c: cc                   	int3
ffffffff8000ed5d: cc                   	int3
ffffffff8000ed5e: cc                   	int3
ffffffff8000ed5f: cc                   	int3

ffffffff8000ed60 <_ZN4core5slice5index25slice_index_order_fail_rt17h0d7ce767d070d67eE>:
ffffffff8000ed60: 48 83 ec 68          	sub	rsp, 104
ffffffff8000ed64: 48 89 7c 24 08       	mov	qword ptr [rsp + 8], rdi
ffffffff8000ed69: 48 89 74 24 10       	mov	qword ptr [rsp + 16], rsi
ffffffff8000ed6e: 48 8d 44 24 08       	lea	rax, [rsp + 8]
ffffffff8000ed73: 48 89 44 24 18       	mov	qword ptr [rsp + 24], rax
ffffffff8000ed78: 48 8b 05 39 34 00 00 	mov	rax, qword ptr [rip + 13369] # 0xffffffff800121b8 <xr6aouzjkjmurg0+0xffffffff800121b8>
ffffffff8000ed7f: 48 89 44 24 20       	mov	qword ptr [rsp + 32], rax
ffffffff8000ed84: 48 8d 4c 24 10       	lea	rcx, [rsp + 16]
ffffffff8000ed89: 48 89 4c 24 28       	mov	qword ptr [rsp + 40], rcx
ffffffff8000ed8e: 48 89 44 24 30       	mov	qword ptr [rsp + 48], rax
ffffffff8000ed93: 48 8d 05 06 32 00 00 	lea	rax, [rip + 12806]      # 0xffffffff80011fa0 <xr6aouzjkjmurg0+0xffffffff80011fa0>
ffffffff8000ed9a: 48 89 44 24 48       	mov	qword ptr [rsp + 72], rax
ffffffff8000ed9f: 48 c7 44 24 50 02 00 00 00   	mov	qword ptr [rsp + 80], 2
ffffffff8000eda8: 48 c7 44 24 38 00 00 00 00   	mov	qword ptr [rsp + 56], 0
ffffffff8000edb1: 48 8d 44 24 18       	lea	rax, [rsp + 24]
ffffffff8000edb6: 48 89 44 24 58       	mov	qword ptr [rsp + 88], rax
ffffffff8000edbb: 48 c7 44 24 60 02 00 00 00   	mov	qword ptr [rsp + 96], 2
ffffffff8000edc4: 48 8d 7c 24 38       	lea	rdi, [rsp + 56]
ffffffff8000edc9: 48 89 d6             	mov	rsi, rdx
ffffffff8000edcc: ff 15 4e 33 00 00    	call	qword ptr [rip + 13134] # 0xffffffff80012120 <xr6aouzjkjmurg0+0xffffffff80012120>
ffffffff8000edd2: 0f 0b                	ud2
ffffffff8000edd4: cc                   	int3
ffffffff8000edd5: cc                   	int3
ffffffff8000edd6: cc                   	int3
ffffffff8000edd7: cc                   	int3
ffffffff8000edd8: cc                   	int3
ffffffff8000edd9: cc                   	int3
ffffffff8000edda: cc                   	int3
ffffffff8000eddb: cc                   	int3
ffffffff8000eddc: cc                   	int3
ffffffff8000eddd: cc                   	int3
ffffffff8000edde: cc                   	int3
ffffffff8000eddf: cc                   	int3

ffffffff8000ede0 <_ZN4core3str8converts9from_utf817h798926e82450bc3dE>:
ffffffff8000ede0: 55                   	push	rbp
ffffffff8000ede1: 41 56                	push	r14
ffffffff8000ede3: 53                   	push	rbx
ffffffff8000ede4: 48 89 f8             	mov	rax, rdi
ffffffff8000ede7: 45 31 f6             	xor	r14d, r14d
ffffffff8000edea: 48 89 d1             	mov	rcx, rdx
ffffffff8000eded: 48 83 e9 0f          	sub	rcx, 15
ffffffff8000edf1: 4c 0f 43 f1          	cmovae	r14, rcx
ffffffff8000edf5: 48 85 d2             	test	rdx, rdx
ffffffff8000edf8: 0f 84 c2 01 00 00    	je	0xffffffff8000efc0 <_ZN4core3str8converts9from_utf817h798926e82450bc3dE+0x1e0>
ffffffff8000edfe: 4c 8d 46 07          	lea	r8, [rsi + 7]
ffffffff8000ee02: 49 83 e0 f8          	and	r8, -8
ffffffff8000ee06: 49 29 f0             	sub	r8, rsi
ffffffff8000ee09: 49 ba 80 80 80 80 80 80 80 80	movabs	r10, -9187201950435737472
ffffffff8000ee13: 31 c9                	xor	ecx, ecx
ffffffff8000ee15: 4c 8d 1d 95 38 ff ff 	lea	r11, [rip - 51051]      # 0xffffffff800026b1 <str.3+0x251>
ffffffff8000ee1c: eb 0e                	jmp	0xffffffff8000ee2c <_ZN4core3str8converts9from_utf817h798926e82450bc3dE+0x4c>
ffffffff8000ee1e: 66 90                	nop
ffffffff8000ee20: 48 ff c1             	inc	rcx
ffffffff8000ee23: 48 39 d1             	cmp	rcx, rdx
ffffffff8000ee26: 0f 83 94 01 00 00    	jae	0xffffffff8000efc0 <_ZN4core3str8converts9from_utf817h798926e82450bc3dE+0x1e0>
ffffffff8000ee2c: 0f b6 3c 0e          	movzx	edi, byte ptr [rsi + rcx]
ffffffff8000ee30: 40 84 ff             	test	dil, dil
ffffffff8000ee33: 78 5b                	js	0xffffffff8000ee90 <_ZN4core3str8converts9from_utf817h798926e82450bc3dE+0xb0>
ffffffff8000ee35: 49 83 f8 ff          	cmp	r8, -1
ffffffff8000ee39: 74 e5                	je	0xffffffff8000ee20 <_ZN4core3str8converts9from_utf817h798926e82450bc3dE+0x40>
ffffffff8000ee3b: 44 89 c5             	mov	ebp, r8d
ffffffff8000ee3e: 29 cd                	sub	ebp, ecx
ffffffff8000ee40: 83 e5 07             	and	ebp, 7
ffffffff8000ee43: 75 db                	jne	0xffffffff8000ee20 <_ZN4core3str8converts9from_utf817h798926e82450bc3dE+0x40>
ffffffff8000ee45: 66 66 2e 0f 1f 84 00 00 00 00 00     	nop	word ptr cs:[rax + rax]
ffffffff8000ee50: 4c 39 f1             	cmp	rcx, r14
ffffffff8000ee53: 73 16                	jae	0xffffffff8000ee6b <_ZN4core3str8converts9from_utf817h798926e82450bc3dE+0x8b>
ffffffff8000ee55: 4c 85 14 0e          	test	qword ptr [rsi + rcx], r10
ffffffff8000ee59: 75 10                	jne	0xffffffff8000ee6b <_ZN4core3str8converts9from_utf817h798926e82450bc3dE+0x8b>
ffffffff8000ee5b: 4c 85 54 0e 08       	test	qword ptr [rsi + rcx + 8], r10
ffffffff8000ee60: 75 09                	jne	0xffffffff8000ee6b <_ZN4core3str8converts9from_utf817h798926e82450bc3dE+0x8b>
ffffffff8000ee62: 48 83 c1 10          	add	rcx, 16
ffffffff8000ee66: 4c 39 f1             	cmp	rcx, r14
ffffffff8000ee69: 72 ea                	jb	0xffffffff8000ee55 <_ZN4core3str8converts9from_utf817h798926e82450bc3dE+0x75>
ffffffff8000ee6b: 48 39 d1             	cmp	rcx, rdx
ffffffff8000ee6e: 73 b3                	jae	0xffffffff8000ee23 <_ZN4core3str8converts9from_utf817h798926e82450bc3dE+0x43>
ffffffff8000ee70: 80 3c 0e 00          	cmp	byte ptr [rsi + rcx], 0
ffffffff8000ee74: 78 ad                	js	0xffffffff8000ee23 <_ZN4core3str8converts9from_utf817h798926e82450bc3dE+0x43>
ffffffff8000ee76: 48 ff c1             	inc	rcx
ffffffff8000ee79: 48 39 ca             	cmp	rdx, rcx
ffffffff8000ee7c: 75 f2                	jne	0xffffffff8000ee70 <_ZN4core3str8converts9from_utf817h798926e82450bc3dE+0x90>
ffffffff8000ee7e: e9 3d 01 00 00       	jmp	0xffffffff8000efc0 <_ZN4core3str8converts9from_utf817h798926e82450bc3dE+0x1e0>
ffffffff8000ee83: 66 66 66 66 2e 0f 1f 84 00 00 00 00 00       	nop	word ptr cs:[rax + rax]
ffffffff8000ee90: 42 0f b6 2c 1f       	movzx	ebp, byte ptr [rdi + r11]
ffffffff8000ee95: 41 b1 01             	mov	r9b, 1
ffffffff8000ee98: 83 fd 04             	cmp	ebp, 4
ffffffff8000ee9b: 74 2c                	je	0xffffffff8000eec9 <_ZN4core3str8converts9from_utf817h798926e82450bc3dE+0xe9>
ffffffff8000ee9d: 83 fd 03             	cmp	ebp, 3
ffffffff8000eea0: 74 53                	je	0xffffffff8000eef5 <_ZN4core3str8converts9from_utf817h798926e82450bc3dE+0x115>
ffffffff8000eea2: 83 fd 02             	cmp	ebp, 2
ffffffff8000eea5: 0f 85 2f 01 00 00    	jne	0xffffffff8000efda <_ZN4core3str8converts9from_utf817h798926e82450bc3dE+0x1fa>
ffffffff8000eeab: 48 8d 69 01          	lea	rbp, [rcx + 1]
ffffffff8000eeaf: 48 39 d5             	cmp	rbp, rdx
ffffffff8000eeb2: 0f 83 1a 01 00 00    	jae	0xffffffff8000efd2 <_ZN4core3str8converts9from_utf817h798926e82450bc3dE+0x1f2>
ffffffff8000eeb8: 80 3c 2e bf          	cmp	byte ptr [rsi + rbp], -65
ffffffff8000eebc: b3 01                	mov	bl, 1
ffffffff8000eebe: 0f 8e f1 00 00 00    	jle	0xffffffff8000efb5 <_ZN4core3str8converts9from_utf817h798926e82450bc3dE+0x1d5>
ffffffff8000eec4: e9 1b 01 00 00       	jmp	0xffffffff8000efe4 <_ZN4core3str8converts9from_utf817h798926e82450bc3dE+0x204>
ffffffff8000eec9: 48 8d 69 01          	lea	rbp, [rcx + 1]
ffffffff8000eecd: 48 39 d5             	cmp	rbp, rdx
ffffffff8000eed0: 0f 83 01 01 00 00    	jae	0xffffffff8000efd7 <_ZN4core3str8converts9from_utf817h798926e82450bc3dE+0x1f7>
ffffffff8000eed6: 0f b6 2c 2e          	movzx	ebp, byte ptr [rsi + rbp]
ffffffff8000eeda: 81 ff f0 00 00 00    	cmp	edi, 240
ffffffff8000eee0: 74 41                	je	0xffffffff8000ef23 <_ZN4core3str8converts9from_utf817h798926e82450bc3dE+0x143>
ffffffff8000eee2: 81 ff f4 00 00 00    	cmp	edi, 244
ffffffff8000eee8: 75 48                	jne	0xffffffff8000ef32 <_ZN4core3str8converts9from_utf817h798926e82450bc3dE+0x152>
ffffffff8000eeea: 40 80 fd 8f          	cmp	bpl, -113
ffffffff8000eeee: 7e 63                	jle	0xffffffff8000ef53 <_ZN4core3str8converts9from_utf817h798926e82450bc3dE+0x173>
ffffffff8000eef0: e9 e5 00 00 00       	jmp	0xffffffff8000efda <_ZN4core3str8converts9from_utf817h798926e82450bc3dE+0x1fa>
ffffffff8000eef5: 48 8d 69 01          	lea	rbp, [rcx + 1]
ffffffff8000eef9: 48 39 d5             	cmp	rbp, rdx
ffffffff8000eefc: 0f 83 d5 00 00 00    	jae	0xffffffff8000efd7 <_ZN4core3str8converts9from_utf817h798926e82450bc3dE+0x1f7>
ffffffff8000ef02: 0f b6 2c 2e          	movzx	ebp, byte ptr [rsi + rbp]
ffffffff8000ef06: 40 80 ff e0          	cmp	dil, -32
ffffffff8000ef0a: 74 67                	je	0xffffffff8000ef73 <_ZN4core3str8converts9from_utf817h798926e82450bc3dE+0x193>
ffffffff8000ef0c: 81 ff ed 00 00 00    	cmp	edi, 237
ffffffff8000ef12: 75 6b                	jne	0xffffffff8000ef7f <_ZN4core3str8converts9from_utf817h798926e82450bc3dE+0x19f>
ffffffff8000ef14: 40 80 fd a0          	cmp	bpl, -96
ffffffff8000ef18: 0f 8c 88 00 00 00    	jl	0xffffffff8000efa6 <_ZN4core3str8converts9from_utf817h798926e82450bc3dE+0x1c6>
ffffffff8000ef1e: e9 b7 00 00 00       	jmp	0xffffffff8000efda <_ZN4core3str8converts9from_utf817h798926e82450bc3dE+0x1fa>
ffffffff8000ef23: 40 80 c5 70          	add	bpl, 112
ffffffff8000ef27: 40 80 fd 30          	cmp	bpl, 48
ffffffff8000ef2b: 72 26                	jb	0xffffffff8000ef53 <_ZN4core3str8converts9from_utf817h798926e82450bc3dE+0x173>
ffffffff8000ef2d: e9 a8 00 00 00       	jmp	0xffffffff8000efda <_ZN4core3str8converts9from_utf817h798926e82450bc3dE+0x1fa>
ffffffff8000ef32: 40 80 c7 0f          	add	dil, 15
ffffffff8000ef36: 40 80 ff 02          	cmp	dil, 2
ffffffff8000ef3a: 0f 87 9a 00 00 00    	ja	0xffffffff8000efda <_ZN4core3str8converts9from_utf817h798926e82450bc3dE+0x1fa>
ffffffff8000ef40: 40 84 ed             	test	bpl, bpl
ffffffff8000ef43: 0f 89 91 00 00 00    	jns	0xffffffff8000efda <_ZN4core3str8converts9from_utf817h798926e82450bc3dE+0x1fa>
ffffffff8000ef49: 40 80 fd c0          	cmp	bpl, -64
ffffffff8000ef4d: 0f 83 87 00 00 00    	jae	0xffffffff8000efda <_ZN4core3str8converts9from_utf817h798926e82450bc3dE+0x1fa>
ffffffff8000ef53: 48 8d 59 02          	lea	rbx, [rcx + 2]
ffffffff8000ef57: 48 39 d3             	cmp	rbx, rdx
ffffffff8000ef5a: 73 76                	jae	0xffffffff8000efd2 <_ZN4core3str8converts9from_utf817h798926e82450bc3dE+0x1f2>
ffffffff8000ef5c: 80 3c 1e bf          	cmp	byte ptr [rsi + rbx], -65
ffffffff8000ef60: 7f 7c                	jg	0xffffffff8000efde <_ZN4core3str8converts9from_utf817h798926e82450bc3dE+0x1fe>
ffffffff8000ef62: 48 8d 69 03          	lea	rbp, [rcx + 3]
ffffffff8000ef66: 48 39 d5             	cmp	rbp, rdx
ffffffff8000ef69: 73 67                	jae	0xffffffff8000efd2 <_ZN4core3str8converts9from_utf817h798926e82450bc3dE+0x1f2>
ffffffff8000ef6b: 80 3c 2e bf          	cmp	byte ptr [rsi + rbp], -65
ffffffff8000ef6f: 7e 44                	jle	0xffffffff8000efb5 <_ZN4core3str8converts9from_utf817h798926e82450bc3dE+0x1d5>
ffffffff8000ef71: eb 6f                	jmp	0xffffffff8000efe2 <_ZN4core3str8converts9from_utf817h798926e82450bc3dE+0x202>
ffffffff8000ef73: 40 80 e5 e0          	and	bpl, -32
ffffffff8000ef77: 40 80 fd a0          	cmp	bpl, -96
ffffffff8000ef7b: 74 29                	je	0xffffffff8000efa6 <_ZN4core3str8converts9from_utf817h798926e82450bc3dE+0x1c6>
ffffffff8000ef7d: eb 5b                	jmp	0xffffffff8000efda <_ZN4core3str8converts9from_utf817h798926e82450bc3dE+0x1fa>
ffffffff8000ef7f: 89 fb                	mov	ebx, edi
ffffffff8000ef81: 80 c3 1f             	add	bl, 31
ffffffff8000ef84: 80 fb 0c             	cmp	bl, 12
ffffffff8000ef87: 73 08                	jae	0xffffffff8000ef91 <_ZN4core3str8converts9from_utf817h798926e82450bc3dE+0x1b1>
ffffffff8000ef89: 40 80 fd bf          	cmp	bpl, -65
ffffffff8000ef8d: 7e 17                	jle	0xffffffff8000efa6 <_ZN4core3str8converts9from_utf817h798926e82450bc3dE+0x1c6>
ffffffff8000ef8f: eb 49                	jmp	0xffffffff8000efda <_ZN4core3str8converts9from_utf817h798926e82450bc3dE+0x1fa>
ffffffff8000ef91: 40 80 e7 fe          	and	dil, -2
ffffffff8000ef95: 40 80 ff ee          	cmp	dil, -18
ffffffff8000ef99: 75 3f                	jne	0xffffffff8000efda <_ZN4core3str8converts9from_utf817h798926e82450bc3dE+0x1fa>
ffffffff8000ef9b: 40 84 ed             	test	bpl, bpl
ffffffff8000ef9e: 79 3a                	jns	0xffffffff8000efda <_ZN4core3str8converts9from_utf817h798926e82450bc3dE+0x1fa>
ffffffff8000efa0: 40 80 fd c0          	cmp	bpl, -64
ffffffff8000efa4: 73 34                	jae	0xffffffff8000efda <_ZN4core3str8converts9from_utf817h798926e82450bc3dE+0x1fa>
ffffffff8000efa6: 48 8d 69 02          	lea	rbp, [rcx + 2]
ffffffff8000efaa: 48 39 d5             	cmp	rbp, rdx
ffffffff8000efad: 73 23                	jae	0xffffffff8000efd2 <_ZN4core3str8converts9from_utf817h798926e82450bc3dE+0x1f2>
ffffffff8000efaf: 80 3c 2e bf          	cmp	byte ptr [rsi + rbp], -65
ffffffff8000efb3: 7f 29                	jg	0xffffffff8000efde <_ZN4core3str8converts9from_utf817h798926e82450bc3dE+0x1fe>
ffffffff8000efb5: 48 ff c5             	inc	rbp
ffffffff8000efb8: 48 89 e9             	mov	rcx, rbp
ffffffff8000efbb: e9 63 fe ff ff       	jmp	0xffffffff8000ee23 <_ZN4core3str8converts9from_utf817h798926e82450bc3dE+0x43>
ffffffff8000efc0: 48 89 70 08          	mov	qword ptr [rax + 8], rsi
ffffffff8000efc4: 48 89 50 10          	mov	qword ptr [rax + 16], rdx
ffffffff8000efc8: 31 c9                	xor	ecx, ecx
ffffffff8000efca: 48 89 08             	mov	qword ptr [rax], rcx
ffffffff8000efcd: 5b                   	pop	rbx
ffffffff8000efce: 41 5e                	pop	r14
ffffffff8000efd0: 5d                   	pop	rbp
ffffffff8000efd1: c3                   	ret
ffffffff8000efd2: 45 31 c9             	xor	r9d, r9d
ffffffff8000efd5: eb 0d                	jmp	0xffffffff8000efe4 <_ZN4core3str8converts9from_utf817h798926e82450bc3dE+0x204>
ffffffff8000efd7: 45 31 c9             	xor	r9d, r9d
ffffffff8000efda: b3 01                	mov	bl, 1
ffffffff8000efdc: eb 06                	jmp	0xffffffff8000efe4 <_ZN4core3str8converts9from_utf817h798926e82450bc3dE+0x204>
ffffffff8000efde: b3 02                	mov	bl, 2
ffffffff8000efe0: eb 02                	jmp	0xffffffff8000efe4 <_ZN4core3str8converts9from_utf817h798926e82450bc3dE+0x204>
ffffffff8000efe2: b3 03                	mov	bl, 3
ffffffff8000efe4: 48 89 48 08          	mov	qword ptr [rax + 8], rcx
ffffffff8000efe8: 44 88 48 10          	mov	byte ptr [rax + 16], r9b
ffffffff8000efec: 88 58 11             	mov	byte ptr [rax + 17], bl
ffffffff8000efef: b9 01 00 00 00       	mov	ecx, 1
ffffffff8000eff4: eb d4                	jmp	0xffffffff8000efca <_ZN4core3str8converts9from_utf817h798926e82450bc3dE+0x1ea>
ffffffff8000eff6: cc                   	int3
ffffffff8000eff7: cc                   	int3
ffffffff8000eff8: cc                   	int3
ffffffff8000eff9: cc                   	int3
ffffffff8000effa: cc                   	int3
ffffffff8000effb: cc                   	int3
ffffffff8000effc: cc                   	int3
ffffffff8000effd: cc                   	int3
ffffffff8000effe: cc                   	int3
ffffffff8000efff: cc                   	int3

ffffffff8000f000 <_ZN4core3str5count14do_count_chars17hb9df3c472a34c4a6E>:
ffffffff8000f000: 41 57                	push	r15
ffffffff8000f002: 41 56                	push	r14
ffffffff8000f004: 41 55                	push	r13
ffffffff8000f006: 41 54                	push	r12
ffffffff8000f008: 53                   	push	rbx
ffffffff8000f009: 48 8d 4f 07          	lea	rcx, [rdi + 7]
ffffffff8000f00d: 48 83 e1 f8          	and	rcx, -8
ffffffff8000f011: 48 89 ca             	mov	rdx, rcx
ffffffff8000f014: 48 29 fa             	sub	rdx, rdi
ffffffff8000f017: 48 39 f2             	cmp	rdx, rsi
ffffffff8000f01a: 77 29                	ja	0xffffffff8000f045 <_ZN4core3str5count14do_count_chars17hb9df3c472a34c4a6E+0x45>
ffffffff8000f01c: 48 83 fa 08          	cmp	rdx, 8
ffffffff8000f020: 77 23                	ja	0xffffffff8000f045 <_ZN4core3str5count14do_count_chars17hb9df3c472a34c4a6E+0x45>
ffffffff8000f022: 49 89 f2             	mov	r10, rsi
ffffffff8000f025: 49 29 d2             	sub	r10, rdx
ffffffff8000f028: 49 83 fa 08          	cmp	r10, 8
ffffffff8000f02c: 72 17                	jb	0xffffffff8000f045 <_ZN4core3str5count14do_count_chars17hb9df3c472a34c4a6E+0x45>
ffffffff8000f02e: 45 89 d0             	mov	r8d, r10d
ffffffff8000f031: 41 83 e0 07          	and	r8d, 7
ffffffff8000f035: 48 39 f9             	cmp	rcx, rdi
ffffffff8000f038: 0f 85 9c 00 00 00    	jne	0xffffffff8000f0da <_ZN4core3str5count14do_count_chars17hb9df3c472a34c4a6E+0xda>
ffffffff8000f03e: 31 f6                	xor	esi, esi
ffffffff8000f040: e9 2f 01 00 00       	jmp	0xffffffff8000f174 <_ZN4core3str5count14do_count_chars17hb9df3c472a34c4a6E+0x174>
ffffffff8000f045: 48 85 f6             	test	rsi, rsi
ffffffff8000f048: 74 13                	je	0xffffffff8000f05d <_ZN4core3str5count14do_count_chars17hb9df3c472a34c4a6E+0x5d>
ffffffff8000f04a: 48 8d 46 ff          	lea	rax, [rsi - 1]
ffffffff8000f04e: 89 f1                	mov	ecx, esi
ffffffff8000f050: 83 e1 03             	and	ecx, 3
ffffffff8000f053: 48 83 f8 03          	cmp	rax, 3
ffffffff8000f057: 73 0b                	jae	0xffffffff8000f064 <_ZN4core3str5count14do_count_chars17hb9df3c472a34c4a6E+0x64>
ffffffff8000f059: 31 c0                	xor	eax, eax
ffffffff8000f05b: eb 4c                	jmp	0xffffffff8000f0a9 <_ZN4core3str5count14do_count_chars17hb9df3c472a34c4a6E+0xa9>
ffffffff8000f05d: 31 c0                	xor	eax, eax
ffffffff8000f05f: e9 1f 03 00 00       	jmp	0xffffffff8000f383 <_ZN4core3str5count14do_count_chars17hb9df3c472a34c4a6E+0x383>
ffffffff8000f064: 48 83 e6 fc          	and	rsi, -4
ffffffff8000f068: 31 c0                	xor	eax, eax
ffffffff8000f06a: 66 0f 1f 44 00 00    	nop	word ptr [rax + rax]
ffffffff8000f070: 31 d2                	xor	edx, edx
ffffffff8000f072: 80 3f c0             	cmp	byte ptr [rdi], -64
ffffffff8000f075: 0f 9d c2             	setge	dl
ffffffff8000f078: 48 01 c2             	add	rdx, rax
ffffffff8000f07b: 31 c0                	xor	eax, eax
ffffffff8000f07d: 80 7f 01 c0          	cmp	byte ptr [rdi + 1], -64
ffffffff8000f081: 0f 9d c0             	setge	al
ffffffff8000f084: 48 01 d0             	add	rax, rdx
ffffffff8000f087: 31 d2                	xor	edx, edx
ffffffff8000f089: 80 7f 02 c0          	cmp	byte ptr [rdi + 2], -64
ffffffff8000f08d: 0f 9d c2             	setge	dl
ffffffff8000f090: 48 01 c2             	add	rdx, rax
ffffffff8000f093: 31 c0                	xor	eax, eax
ffffffff8000f095: 80 7f 03 c0          	cmp	byte ptr [rdi + 3], -64
ffffffff8000f099: 48 8d 7f 04          	lea	rdi, [rdi + 4]
ffffffff8000f09d: 0f 9d c0             	setge	al
ffffffff8000f0a0: 48 01 d0             	add	rax, rdx
ffffffff8000f0a3: 48 83 c6 fc          	add	rsi, -4
ffffffff8000f0a7: 75 c7                	jne	0xffffffff8000f070 <_ZN4core3str5count14do_count_chars17hb9df3c472a34c4a6E+0x70>
ffffffff8000f0a9: 48 85 c9             	test	rcx, rcx
ffffffff8000f0ac: 0f 84 d1 02 00 00    	je	0xffffffff8000f383 <_ZN4core3str5count14do_count_chars17hb9df3c472a34c4a6E+0x383>
ffffffff8000f0b2: 31 d2                	xor	edx, edx
ffffffff8000f0b4: 66 66 66 2e 0f 1f 84 00 00 00 00 00  	nop	word ptr cs:[rax + rax]
ffffffff8000f0c0: 31 f6                	xor	esi, esi
ffffffff8000f0c2: 80 3c 17 c0          	cmp	byte ptr [rdi + rdx], -64
ffffffff8000f0c6: 40 0f 9d c6          	setge	sil
ffffffff8000f0ca: 48 01 f0             	add	rax, rsi
ffffffff8000f0cd: 48 ff c2             	inc	rdx
ffffffff8000f0d0: 48 39 d1             	cmp	rcx, rdx
ffffffff8000f0d3: 75 eb                	jne	0xffffffff8000f0c0 <_ZN4core3str5count14do_count_chars17hb9df3c472a34c4a6E+0xc0>
ffffffff8000f0d5: e9 a9 02 00 00       	jmp	0xffffffff8000f383 <_ZN4core3str5count14do_count_chars17hb9df3c472a34c4a6E+0x383>
ffffffff8000f0da: 48 89 f8             	mov	rax, rdi
ffffffff8000f0dd: 48 f7 d0             	not	rax
ffffffff8000f0e0: 48 01 c1             	add	rcx, rax
ffffffff8000f0e3: 41 89 d1             	mov	r9d, edx
ffffffff8000f0e6: 41 83 e1 03          	and	r9d, 3
ffffffff8000f0ea: 48 83 f9 03          	cmp	rcx, 3
ffffffff8000f0ee: 73 07                	jae	0xffffffff8000f0f7 <_ZN4core3str5count14do_count_chars17hb9df3c472a34c4a6E+0xf7>
ffffffff8000f0f0: 31 f6                	xor	esi, esi
ffffffff8000f0f2: 48 89 fb             	mov	rbx, rdi
ffffffff8000f0f5: eb 54                	jmp	0xffffffff8000f14b <_ZN4core3str5count14do_count_chars17hb9df3c472a34c4a6E+0x14b>
ffffffff8000f0f7: 48 89 d1             	mov	rcx, rdx
ffffffff8000f0fa: 48 83 e1 fc          	and	rcx, -4
ffffffff8000f0fe: 31 f6                	xor	esi, esi
ffffffff8000f100: 48 89 fb             	mov	rbx, rdi
ffffffff8000f103: 66 66 66 66 2e 0f 1f 84 00 00 00 00 00       	nop	word ptr cs:[rax + rax]
ffffffff8000f110: 31 c0                	xor	eax, eax
ffffffff8000f112: 80 3b c0             	cmp	byte ptr [rbx], -64
ffffffff8000f115: 0f 9d c0             	setge	al
ffffffff8000f118: 48 01 f0             	add	rax, rsi
ffffffff8000f11b: 31 f6                	xor	esi, esi
ffffffff8000f11d: 80 7b 01 c0          	cmp	byte ptr [rbx + 1], -64
ffffffff8000f121: 40 0f 9d c6          	setge	sil
ffffffff8000f125: 48 01 c6             	add	rsi, rax
ffffffff8000f128: 31 c0                	xor	eax, eax
ffffffff8000f12a: 80 7b 02 c0          	cmp	byte ptr [rbx + 2], -64
ffffffff8000f12e: 0f 9d c0             	setge	al
ffffffff8000f131: 48 01 f0             	add	rax, rsi
ffffffff8000f134: 31 f6                	xor	esi, esi
ffffffff8000f136: 80 7b 03 c0          	cmp	byte ptr [rbx + 3], -64
ffffffff8000f13a: 48 8d 5b 04          	lea	rbx, [rbx + 4]
ffffffff8000f13e: 40 0f 9d c6          	setge	sil
ffffffff8000f142: 48 01 c6             	add	rsi, rax
ffffffff8000f145: 48 83 c1 fc          	add	rcx, -4
ffffffff8000f149: 75 c5                	jne	0xffffffff8000f110 <_ZN4core3str5count14do_count_chars17hb9df3c472a34c4a6E+0x110>
ffffffff8000f14b: 4d 85 c9             	test	r9, r9
ffffffff8000f14e: 74 24                	je	0xffffffff8000f174 <_ZN4core3str5count14do_count_chars17hb9df3c472a34c4a6E+0x174>
ffffffff8000f150: 31 c9                	xor	ecx, ecx
ffffffff8000f152: 66 66 66 66 66 2e 0f 1f 84 00 00 00 00 00    	nop	word ptr cs:[rax + rax]
ffffffff8000f160: 31 c0                	xor	eax, eax
ffffffff8000f162: 80 3c 0b c0          	cmp	byte ptr [rbx + rcx], -64
ffffffff8000f166: 0f 9d c0             	setge	al
ffffffff8000f169: 48 01 c6             	add	rsi, rax
ffffffff8000f16c: 48 ff c1             	inc	rcx
ffffffff8000f16f: 49 39 c9             	cmp	r9, rcx
ffffffff8000f172: 75 ec                	jne	0xffffffff8000f160 <_ZN4core3str5count14do_count_chars17hb9df3c472a34c4a6E+0x160>
ffffffff8000f174: 48 01 d7             	add	rdi, rdx
ffffffff8000f177: 4d 85 c0             	test	r8, r8
ffffffff8000f17a: 0f 84 84 00 00 00    	je	0xffffffff8000f204 <_ZN4core3str5count14do_count_chars17hb9df3c472a34c4a6E+0x204>
ffffffff8000f180: 4c 89 d1             	mov	rcx, r10
ffffffff8000f183: 48 83 e1 f8          	and	rcx, -8
ffffffff8000f187: 31 d2                	xor	edx, edx
ffffffff8000f189: 80 3c 0f c0          	cmp	byte ptr [rdi + rcx], -64
ffffffff8000f18d: 0f 9d c2             	setge	dl
ffffffff8000f190: 41 83 f8 01          	cmp	r8d, 1
ffffffff8000f194: 74 70                	je	0xffffffff8000f206 <_ZN4core3str5count14do_count_chars17hb9df3c472a34c4a6E+0x206>
ffffffff8000f196: 31 c0                	xor	eax, eax
ffffffff8000f198: 80 7c 0f 01 c0       	cmp	byte ptr [rdi + rcx + 1], -64
ffffffff8000f19d: 0f 9d c0             	setge	al
ffffffff8000f1a0: 48 01 c2             	add	rdx, rax
ffffffff8000f1a3: 41 83 f8 02          	cmp	r8d, 2
ffffffff8000f1a7: 74 5d                	je	0xffffffff8000f206 <_ZN4core3str5count14do_count_chars17hb9df3c472a34c4a6E+0x206>
ffffffff8000f1a9: 31 c0                	xor	eax, eax
ffffffff8000f1ab: 80 7c 0f 02 c0       	cmp	byte ptr [rdi + rcx + 2], -64
ffffffff8000f1b0: 0f 9d c0             	setge	al
ffffffff8000f1b3: 48 01 c2             	add	rdx, rax
ffffffff8000f1b6: 41 83 f8 03          	cmp	r8d, 3
ffffffff8000f1ba: 74 4a                	je	0xffffffff8000f206 <_ZN4core3str5count14do_count_chars17hb9df3c472a34c4a6E+0x206>
ffffffff8000f1bc: 31 c0                	xor	eax, eax
ffffffff8000f1be: 80 7c 0f 03 c0       	cmp	byte ptr [rdi + rcx + 3], -64
ffffffff8000f1c3: 0f 9d c0             	setge	al
ffffffff8000f1c6: 48 01 c2             	add	rdx, rax
ffffffff8000f1c9: 41 83 f8 04          	cmp	r8d, 4
ffffffff8000f1cd: 74 37                	je	0xffffffff8000f206 <_ZN4core3str5count14do_count_chars17hb9df3c472a34c4a6E+0x206>
ffffffff8000f1cf: 31 c0                	xor	eax, eax
ffffffff8000f1d1: 80 7c 0f 04 c0       	cmp	byte ptr [rdi + rcx + 4], -64
ffffffff8000f1d6: 0f 9d c0             	setge	al
ffffffff8000f1d9: 48 01 c2             	add	rdx, rax
ffffffff8000f1dc: 41 83 f8 05          	cmp	r8d, 5
ffffffff8000f1e0: 74 24                	je	0xffffffff8000f206 <_ZN4core3str5count14do_count_chars17hb9df3c472a34c4a6E+0x206>
ffffffff8000f1e2: 31 c0                	xor	eax, eax
ffffffff8000f1e4: 80 7c 0f 05 c0       	cmp	byte ptr [rdi + rcx + 5], -64
ffffffff8000f1e9: 0f 9d c0             	setge	al
ffffffff8000f1ec: 48 01 c2             	add	rdx, rax
ffffffff8000f1ef: 41 83 f8 06          	cmp	r8d, 6
ffffffff8000f1f3: 74 11                	je	0xffffffff8000f206 <_ZN4core3str5count14do_count_chars17hb9df3c472a34c4a6E+0x206>
ffffffff8000f1f5: 31 c0                	xor	eax, eax
ffffffff8000f1f7: 80 7c 0f 06 c0       	cmp	byte ptr [rdi + rcx + 6], -64
ffffffff8000f1fc: 0f 9d c0             	setge	al
ffffffff8000f1ff: 48 01 c2             	add	rdx, rax
ffffffff8000f202: eb 02                	jmp	0xffffffff8000f206 <_ZN4core3str5count14do_count_chars17hb9df3c472a34c4a6E+0x206>
ffffffff8000f204: 31 d2                	xor	edx, edx
ffffffff8000f206: 48 01 f2             	add	rdx, rsi
ffffffff8000f209: 49 c1 ea 03          	shr	r10, 3
ffffffff8000f20d: 49 bd 01 01 01 01 01 01 01 01	movabs	r13, 72340172838076673
ffffffff8000f217: 49 b9 ff 00 ff 00 ff 00 ff 00	movabs	r9, 71777214294589695
ffffffff8000f221: 49 b8 01 00 01 00 01 00 01 00	movabs	r8, 281479271743489
ffffffff8000f22b: eb 34                	jmp	0xffffffff8000f261 <_ZN4core3str5count14do_count_chars17hb9df3c472a34c4a6E+0x261>
ffffffff8000f22d: 0f 1f 00             	nop	dword ptr [rax]
ffffffff8000f230: 31 d2                	xor	edx, edx
ffffffff8000f232: 4b 8d 3c fe          	lea	rdi, [r14 + 8*r15]
ffffffff8000f236: 4d 89 da             	mov	r10, r11
ffffffff8000f239: 4d 29 fa             	sub	r10, r15
ffffffff8000f23c: 48 89 d1             	mov	rcx, rdx
ffffffff8000f23f: 4c 21 c9             	and	rcx, r9
ffffffff8000f242: 48 c1 ea 08          	shr	rdx, 8
ffffffff8000f246: 4c 21 ca             	and	rdx, r9
ffffffff8000f249: 48 01 ca             	add	rdx, rcx
ffffffff8000f24c: 49 0f af d0          	imul	rdx, r8
ffffffff8000f250: 48 c1 ea 30          	shr	rdx, 48
ffffffff8000f254: 48 01 c2             	add	rdx, rax
ffffffff8000f257: 41 f6 c7 03          	test	r15b, 3
ffffffff8000f25b: 0f 85 bd 00 00 00    	jne	0xffffffff8000f31e <_ZN4core3str5count14do_count_chars17hb9df3c472a34c4a6E+0x31e>
ffffffff8000f261: 48 89 d0             	mov	rax, rdx
ffffffff8000f264: 4d 85 d2             	test	r10, r10
ffffffff8000f267: 0f 84 16 01 00 00    	je	0xffffffff8000f383 <_ZN4core3str5count14do_count_chars17hb9df3c472a34c4a6E+0x383>
ffffffff8000f26d: 4d 89 d3             	mov	r11, r10
ffffffff8000f270: 49 89 fe             	mov	r14, rdi
ffffffff8000f273: 49 81 fa c0 00 00 00 	cmp	r10, 192
ffffffff8000f27a: 41 bf c0 00 00 00    	mov	r15d, 192
ffffffff8000f280: 4d 0f 42 fa          	cmovb	r15, r10
ffffffff8000f284: 44 89 f9             	mov	ecx, r15d
ffffffff8000f287: 81 e1 fc 00 00 00    	and	ecx, 252
ffffffff8000f28d: 4c 8d 24 cf          	lea	r12, [rdi + 8*rcx]
ffffffff8000f291: 74 9d                	je	0xffffffff8000f230 <_ZN4core3str5count14do_count_chars17hb9df3c472a34c4a6E+0x230>
ffffffff8000f293: 31 d2                	xor	edx, edx
ffffffff8000f295: 4c 89 f7             	mov	rdi, r14
ffffffff8000f298: 0f 1f 84 00 00 00 00 00      	nop	dword ptr [rax + rax]
ffffffff8000f2a0: 48 85 ff             	test	rdi, rdi
ffffffff8000f2a3: 74 8d                	je	0xffffffff8000f232 <_ZN4core3str5count14do_count_chars17hb9df3c472a34c4a6E+0x232>
ffffffff8000f2a5: 48 8b 0f             	mov	rcx, qword ptr [rdi]
ffffffff8000f2a8: 48 8b 5f 08          	mov	rbx, qword ptr [rdi + 8]
ffffffff8000f2ac: 48 89 ce             	mov	rsi, rcx
ffffffff8000f2af: 48 f7 d6             	not	rsi
ffffffff8000f2b2: 48 c1 ee 07          	shr	rsi, 7
ffffffff8000f2b6: 48 c1 e9 06          	shr	rcx, 6
ffffffff8000f2ba: 48 09 f1             	or	rcx, rsi
ffffffff8000f2bd: 4c 21 e9             	and	rcx, r13
ffffffff8000f2c0: 48 01 d1             	add	rcx, rdx
ffffffff8000f2c3: 48 89 da             	mov	rdx, rbx
ffffffff8000f2c6: 48 f7 d2             	not	rdx
ffffffff8000f2c9: 48 c1 ea 07          	shr	rdx, 7
ffffffff8000f2cd: 48 c1 eb 06          	shr	rbx, 6
ffffffff8000f2d1: 48 09 d3             	or	rbx, rdx
ffffffff8000f2d4: 4c 21 eb             	and	rbx, r13
ffffffff8000f2d7: 48 01 cb             	add	rbx, rcx
ffffffff8000f2da: 48 8b 4f 10          	mov	rcx, qword ptr [rdi + 16]
ffffffff8000f2de: 48 89 ca             	mov	rdx, rcx
ffffffff8000f2e1: 48 f7 d2             	not	rdx
ffffffff8000f2e4: 48 c1 ea 07          	shr	rdx, 7
ffffffff8000f2e8: 48 c1 e9 06          	shr	rcx, 6
ffffffff8000f2ec: 48 09 d1             	or	rcx, rdx
ffffffff8000f2ef: 4c 21 e9             	and	rcx, r13
ffffffff8000f2f2: 48 01 d9             	add	rcx, rbx
ffffffff8000f2f5: 48 8b 57 18          	mov	rdx, qword ptr [rdi + 24]
ffffffff8000f2f9: 48 89 d6             	mov	rsi, rdx
ffffffff8000f2fc: 48 f7 d6             	not	rsi
ffffffff8000f2ff: 48 c1 ee 07          	shr	rsi, 7
ffffffff8000f303: 48 c1 ea 06          	shr	rdx, 6
ffffffff8000f307: 48 09 f2             	or	rdx, rsi
ffffffff8000f30a: 4c 21 ea             	and	rdx, r13
ffffffff8000f30d: 48 01 ca             	add	rdx, rcx
ffffffff8000f310: 48 83 c7 20          	add	rdi, 32
ffffffff8000f314: 4c 39 e7             	cmp	rdi, r12
ffffffff8000f317: 75 87                	jne	0xffffffff8000f2a0 <_ZN4core3str5count14do_count_chars17hb9df3c472a34c4a6E+0x2a0>
ffffffff8000f319: e9 14 ff ff ff       	jmp	0xffffffff8000f232 <_ZN4core3str5count14do_count_chars17hb9df3c472a34c4a6E+0x232>
ffffffff8000f31e: 4d 85 f6             	test	r14, r14
ffffffff8000f321: 74 43                	je	0xffffffff8000f366 <_ZN4core3str5count14do_count_chars17hb9df3c472a34c4a6E+0x366>
ffffffff8000f323: 49 81 fb c0 00 00 00 	cmp	r11, 192
ffffffff8000f32a: bf c0 00 00 00       	mov	edi, 192
ffffffff8000f32f: 49 0f 42 fb          	cmovb	rdi, r11
ffffffff8000f333: 83 e7 03             	and	edi, 3
ffffffff8000f336: 48 c1 e7 03          	shl	rdi, 3
ffffffff8000f33a: 31 db                	xor	ebx, ebx
ffffffff8000f33c: 31 c0                	xor	eax, eax
ffffffff8000f33e: 66 90                	nop
ffffffff8000f340: 49 8b 0c 1c          	mov	rcx, qword ptr [r12 + rbx]
ffffffff8000f344: 48 89 ce             	mov	rsi, rcx
ffffffff8000f347: 48 f7 d6             	not	rsi
ffffffff8000f34a: 48 c1 ee 07          	shr	rsi, 7
ffffffff8000f34e: 48 c1 e9 06          	shr	rcx, 6
ffffffff8000f352: 48 09 f1             	or	rcx, rsi
ffffffff8000f355: 4c 21 e9             	and	rcx, r13
ffffffff8000f358: 48 01 c8             	add	rax, rcx
ffffffff8000f35b: 48 83 c3 08          	add	rbx, 8
ffffffff8000f35f: 48 39 df             	cmp	rdi, rbx
ffffffff8000f362: 75 dc                	jne	0xffffffff8000f340 <_ZN4core3str5count14do_count_chars17hb9df3c472a34c4a6E+0x340>
ffffffff8000f364: eb 02                	jmp	0xffffffff8000f368 <_ZN4core3str5count14do_count_chars17hb9df3c472a34c4a6E+0x368>
ffffffff8000f366: 31 c0                	xor	eax, eax
ffffffff8000f368: 48 89 c1             	mov	rcx, rax
ffffffff8000f36b: 4c 21 c9             	and	rcx, r9
ffffffff8000f36e: 48 c1 e8 08          	shr	rax, 8
ffffffff8000f372: 4c 21 c8             	and	rax, r9
ffffffff8000f375: 48 01 c8             	add	rax, rcx
ffffffff8000f378: 49 0f af c0          	imul	rax, r8
ffffffff8000f37c: 48 c1 e8 30          	shr	rax, 48
ffffffff8000f380: 48 01 d0             	add	rax, rdx
ffffffff8000f383: 5b                   	pop	rbx
ffffffff8000f384: 41 5c                	pop	r12
ffffffff8000f386: 41 5d                	pop	r13
ffffffff8000f388: 41 5e                	pop	r14
ffffffff8000f38a: 41 5f                	pop	r15
ffffffff8000f38c: c3                   	ret
ffffffff8000f38d: cc                   	int3
ffffffff8000f38e: cc                   	int3
ffffffff8000f38f: cc                   	int3

ffffffff8000f390 <_ZN4core3fmt3num53_$LT$impl$u20$core..fmt..UpperHex$u20$for$u20$u32$GT$3fmt17h33e7742beb05d93bE>:
ffffffff8000f390: 48 81 ec 88 00 00 00 	sub	rsp, 136
ffffffff8000f397: 8b 07                	mov	eax, dword ptr [rdi]
ffffffff8000f399: 4c 8d 84 24 88 00 00 00      	lea	r8, [rsp + 136]
ffffffff8000f3a1: 45 31 c9             	xor	r9d, r9d
ffffffff8000f3a4: 41 ba 30 00 00 00    	mov	r10d, 48
ffffffff8000f3aa: 89 c2                	mov	edx, eax
ffffffff8000f3ac: 0f 1f 40 00          	nop	dword ptr [rax]
ffffffff8000f3b0: c1 ea 04             	shr	edx, 4
ffffffff8000f3b3: 89 c1                	mov	ecx, eax
ffffffff8000f3b5: 80 e1 0f             	and	cl, 15
ffffffff8000f3b8: 80 f9 0a             	cmp	cl, 10
ffffffff8000f3bb: bf 37 00 00 00       	mov	edi, 55
ffffffff8000f3c0: 41 0f 42 fa          	cmovb	edi, r10d
ffffffff8000f3c4: 40 00 cf             	add	dil, cl
ffffffff8000f3c7: 41 88 78 ff          	mov	byte ptr [r8 - 1], dil
ffffffff8000f3cb: 49 ff c8             	dec	r8
ffffffff8000f3ce: 49 ff c1             	inc	r9
ffffffff8000f3d1: 83 f8 0f             	cmp	eax, 15
ffffffff8000f3d4: 89 d0                	mov	eax, edx
ffffffff8000f3d6: 77 d8                	ja	0xffffffff8000f3b0 <_ZN4core3fmt3num53_$LT$impl$u20$core..fmt..UpperHex$u20$for$u20$u32$GT$3fmt17h33e7742beb05d93bE+0x20>
ffffffff8000f3d8: bf 80 00 00 00       	mov	edi, 128
ffffffff8000f3dd: 4c 29 cf             	sub	rdi, r9
ffffffff8000f3e0: 48 81 ff 81 00 00 00 	cmp	rdi, 129
ffffffff8000f3e7: 73 22                	jae	0xffffffff8000f40b <_ZN4core3fmt3num53_$LT$impl$u20$core..fmt..UpperHex$u20$for$u20$u32$GT$3fmt17h33e7742beb05d93bE+0x7b>
ffffffff8000f3e9: 48 8d 15 a0 31 ff ff 	lea	rdx, [rip - 52832]      # 0xffffffff80002590 <str.3+0x130>
ffffffff8000f3f0: b9 02 00 00 00       	mov	ecx, 2
ffffffff8000f3f5: 48 89 f7             	mov	rdi, rsi
ffffffff8000f3f8: be 01 00 00 00       	mov	esi, 1
ffffffff8000f3fd: ff 15 7d 2e 00 00    	call	qword ptr [rip + 11901] # 0xffffffff80012280 <xr6aouzjkjmurg0+0xffffffff80012280>
ffffffff8000f403: 48 81 c4 88 00 00 00 	add	rsp, 136
ffffffff8000f40a: c3                   	ret
ffffffff8000f40b: 48 8d 15 ee 2a 00 00 	lea	rdx, [rip + 10990]      # 0xffffffff80011f00 <xr6aouzjkjmurg0+0xffffffff80011f00>
ffffffff8000f412: be 80 00 00 00       	mov	esi, 128
ffffffff8000f417: ff 15 53 2e 00 00    	call	qword ptr [rip + 11859] # 0xffffffff80012270 <xr6aouzjkjmurg0+0xffffffff80012270>
ffffffff8000f41d: 0f 0b                	ud2
ffffffff8000f41f: cc                   	int3

ffffffff8000f420 <_ZN4core3fmt3num55_$LT$impl$u20$core..fmt..LowerHex$u20$for$u20$usize$GT$3fmt17hfa082ca14c446f1cE>:
ffffffff8000f420: 48 81 ec 88 00 00 00 	sub	rsp, 136
ffffffff8000f427: 48 8b 07             	mov	rax, qword ptr [rdi]
ffffffff8000f42a: 4c 8d 84 24 88 00 00 00      	lea	r8, [rsp + 136]
ffffffff8000f432: 45 31 c9             	xor	r9d, r9d
ffffffff8000f435: 41 ba 30 00 00 00    	mov	r10d, 48
ffffffff8000f43b: 48 89 c2             	mov	rdx, rax
ffffffff8000f43e: 66 90                	nop
ffffffff8000f440: 48 c1 ea 04          	shr	rdx, 4
ffffffff8000f444: 89 c1                	mov	ecx, eax
ffffffff8000f446: 80 e1 0f             	and	cl, 15
ffffffff8000f449: 80 f9 0a             	cmp	cl, 10
ffffffff8000f44c: bf 57 00 00 00       	mov	edi, 87
ffffffff8000f451: 41 0f 42 fa          	cmovb	edi, r10d
ffffffff8000f455: 40 00 cf             	add	dil, cl
ffffffff8000f458: 41 88 78 ff          	mov	byte ptr [r8 - 1], dil
ffffffff8000f45c: 49 ff c8             	dec	r8
ffffffff8000f45f: 49 ff c1             	inc	r9
ffffffff8000f462: 48 83 f8 0f          	cmp	rax, 15
ffffffff8000f466: 48 89 d0             	mov	rax, rdx
ffffffff8000f469: 77 d5                	ja	0xffffffff8000f440 <_ZN4core3fmt3num55_$LT$impl$u20$core..fmt..LowerHex$u20$for$u20$usize$GT$3fmt17hfa082ca14c446f1cE+0x20>
ffffffff8000f46b: bf 80 00 00 00       	mov	edi, 128
ffffffff8000f470: 4c 29 cf             	sub	rdi, r9
ffffffff8000f473: 48 81 ff 81 00 00 00 	cmp	rdi, 129
ffffffff8000f47a: 73 22                	jae	0xffffffff8000f49e <_ZN4core3fmt3num55_$LT$impl$u20$core..fmt..LowerHex$u20$for$u20$usize$GT$3fmt17hfa082ca14c446f1cE+0x7e>
ffffffff8000f47c: 48 8d 15 0d 31 ff ff 	lea	rdx, [rip - 52979]      # 0xffffffff80002590 <str.3+0x130>
ffffffff8000f483: b9 02 00 00 00       	mov	ecx, 2
ffffffff8000f488: 48 89 f7             	mov	rdi, rsi
ffffffff8000f48b: be 01 00 00 00       	mov	esi, 1
ffffffff8000f490: ff 15 ea 2d 00 00    	call	qword ptr [rip + 11754] # 0xffffffff80012280 <xr6aouzjkjmurg0+0xffffffff80012280>
ffffffff8000f496: 48 81 c4 88 00 00 00 	add	rsp, 136
ffffffff8000f49d: c3                   	ret
ffffffff8000f49e: 48 8d 15 5b 2a 00 00 	lea	rdx, [rip + 10843]      # 0xffffffff80011f00 <xr6aouzjkjmurg0+0xffffffff80011f00>
ffffffff8000f4a5: be 80 00 00 00       	mov	esi, 128
ffffffff8000f4aa: ff 15 c0 2d 00 00    	call	qword ptr [rip + 11712] # 0xffffffff80012270 <xr6aouzjkjmurg0+0xffffffff80012270>
ffffffff8000f4b0: 0f 0b                	ud2
ffffffff8000f4b2: cc                   	int3
ffffffff8000f4b3: cc                   	int3
ffffffff8000f4b4: cc                   	int3
ffffffff8000f4b5: cc                   	int3
ffffffff8000f4b6: cc                   	int3
ffffffff8000f4b7: cc                   	int3
ffffffff8000f4b8: cc                   	int3
ffffffff8000f4b9: cc                   	int3
ffffffff8000f4ba: cc                   	int3
ffffffff8000f4bb: cc                   	int3
ffffffff8000f4bc: cc                   	int3
ffffffff8000f4bd: cc                   	int3
ffffffff8000f4be: cc                   	int3
ffffffff8000f4bf: cc                   	int3

ffffffff8000f4c0 <_ZN4core3fmt3num55_$LT$impl$u20$core..fmt..UpperHex$u20$for$u20$usize$GT$3fmt17h762b4dc63e868ab9E>:
ffffffff8000f4c0: 48 81 ec 88 00 00 00 	sub	rsp, 136
ffffffff8000f4c7: 48 8b 07             	mov	rax, qword ptr [rdi]
ffffffff8000f4ca: 4c 8d 84 24 88 00 00 00      	lea	r8, [rsp + 136]
ffffffff8000f4d2: 45 31 c9             	xor	r9d, r9d
ffffffff8000f4d5: 41 ba 30 00 00 00    	mov	r10d, 48
ffffffff8000f4db: 48 89 c2             	mov	rdx, rax
ffffffff8000f4de: 66 90                	nop
ffffffff8000f4e0: 48 c1 ea 04          	shr	rdx, 4
ffffffff8000f4e4: 89 c1                	mov	ecx, eax
ffffffff8000f4e6: 80 e1 0f             	and	cl, 15
ffffffff8000f4e9: 80 f9 0a             	cmp	cl, 10
ffffffff8000f4ec: bf 37 00 00 00       	mov	edi, 55
ffffffff8000f4f1: 41 0f 42 fa          	cmovb	edi, r10d
ffffffff8000f4f5: 40 00 cf             	add	dil, cl
ffffffff8000f4f8: 41 88 78 ff          	mov	byte ptr [r8 - 1], dil
ffffffff8000f4fc: 49 ff c8             	dec	r8
ffffffff8000f4ff: 49 ff c1             	inc	r9
ffffffff8000f502: 48 83 f8 0f          	cmp	rax, 15
ffffffff8000f506: 48 89 d0             	mov	rax, rdx
ffffffff8000f509: 77 d5                	ja	0xffffffff8000f4e0 <_ZN4core3fmt3num55_$LT$impl$u20$core..fmt..UpperHex$u20$for$u20$usize$GT$3fmt17h762b4dc63e868ab9E+0x20>
ffffffff8000f50b: bf 80 00 00 00       	mov	edi, 128
ffffffff8000f510: 4c 29 cf             	sub	rdi, r9
ffffffff8000f513: 48 81 ff 81 00 00 00 	cmp	rdi, 129
ffffffff8000f51a: 73 22                	jae	0xffffffff8000f53e <_ZN4core3fmt3num55_$LT$impl$u20$core..fmt..UpperHex$u20$for$u20$usize$GT$3fmt17h762b4dc63e868ab9E+0x7e>
ffffffff8000f51c: 48 8d 15 6d 30 ff ff 	lea	rdx, [rip - 53139]      # 0xffffffff80002590 <str.3+0x130>
ffffffff8000f523: b9 02 00 00 00       	mov	ecx, 2
ffffffff8000f528: 48 89 f7             	mov	rdi, rsi
ffffffff8000f52b: be 01 00 00 00       	mov	esi, 1
ffffffff8000f530: ff 15 4a 2d 00 00    	call	qword ptr [rip + 11594] # 0xffffffff80012280 <xr6aouzjkjmurg0+0xffffffff80012280>
ffffffff8000f536: 48 81 c4 88 00 00 00 	add	rsp, 136
ffffffff8000f53d: c3                   	ret
ffffffff8000f53e: 48 8d 15 bb 29 00 00 	lea	rdx, [rip + 10683]      # 0xffffffff80011f00 <xr6aouzjkjmurg0+0xffffffff80011f00>
ffffffff8000f545: be 80 00 00 00       	mov	esi, 128
ffffffff8000f54a: ff 15 20 2d 00 00    	call	qword ptr [rip + 11552] # 0xffffffff80012270 <xr6aouzjkjmurg0+0xffffffff80012270>
ffffffff8000f550: 0f 0b                	ud2
ffffffff8000f552: cc                   	int3
ffffffff8000f553: cc                   	int3
ffffffff8000f554: cc                   	int3
ffffffff8000f555: cc                   	int3
ffffffff8000f556: cc                   	int3
ffffffff8000f557: cc                   	int3
ffffffff8000f558: cc                   	int3
ffffffff8000f559: cc                   	int3
ffffffff8000f55a: cc                   	int3
ffffffff8000f55b: cc                   	int3
ffffffff8000f55c: cc                   	int3
ffffffff8000f55d: cc                   	int3
ffffffff8000f55e: cc                   	int3
ffffffff8000f55f: cc                   	int3

ffffffff8000f560 <_ZN4core3fmt3num49_$LT$impl$u20$core..fmt..Debug$u20$for$u20$u8$GT$3fmt17h448e836077068409E>:
ffffffff8000f560: 48 81 ec 88 00 00 00 	sub	rsp, 136
ffffffff8000f567: 8b 46 30             	mov	eax, dword ptr [rsi + 48]
ffffffff8000f56a: a8 10                	test	al, 16
ffffffff8000f56c: 75 47                	jne	0xffffffff8000f5b5 <_ZN4core3fmt3num49_$LT$impl$u20$core..fmt..Debug$u20$for$u20$u8$GT$3fmt17h448e836077068409E+0x55>
ffffffff8000f56e: a8 20                	test	al, 32
ffffffff8000f570: 0f 85 84 00 00 00    	jne	0xffffffff8000f5fa <_ZN4core3fmt3num49_$LT$impl$u20$core..fmt..Debug$u20$for$u20$u8$GT$3fmt17h448e836077068409E+0x9a>
ffffffff8000f576: 40 0f b6 cf          	movzx	ecx, dil
ffffffff8000f57a: 80 f9 63             	cmp	cl, 99
ffffffff8000f57d: 0f 86 e8 00 00 00    	jbe	0xffffffff8000f66b <_ZN4core3fmt3num49_$LT$impl$u20$core..fmt..Debug$u20$for$u20$u8$GT$3fmt17h448e836077068409E+0x10b>
ffffffff8000f583: 8d 04 89             	lea	eax, [rcx + 4*rcx]
ffffffff8000f586: 8d 04 c1             	lea	eax, [rcx + 8*rax]
ffffffff8000f589: 0f b7 c8             	movzx	ecx, ax
ffffffff8000f58c: c1 e9 0c             	shr	ecx, 12
ffffffff8000f58f: 6b c1 64             	imul	eax, ecx, 100
ffffffff8000f592: 40 28 c7             	sub	dil, al
ffffffff8000f595: 40 0f b6 c7          	movzx	eax, dil
ffffffff8000f599: 48 8d 15 f2 2f ff ff 	lea	rdx, [rip - 53262]      # 0xffffffff80002592 <str.3+0x132>
ffffffff8000f5a0: 0f b7 04 42          	movzx	eax, word ptr [rdx + 2*rax]
ffffffff8000f5a4: 66 89 44 24 2d       	mov	word ptr [rsp + 45], ax
ffffffff8000f5a9: b8 24 00 00 00       	mov	eax, 36
ffffffff8000f5ae: 89 cf                	mov	edi, ecx
ffffffff8000f5b0: e9 c1 00 00 00       	jmp	0xffffffff8000f676 <_ZN4core3fmt3num49_$LT$impl$u20$core..fmt..Debug$u20$for$u20$u8$GT$3fmt17h448e836077068409E+0x116>
ffffffff8000f5b5: 4c 8d 84 24 88 00 00 00      	lea	r8, [rsp + 136]
ffffffff8000f5bd: 45 31 c9             	xor	r9d, r9d
ffffffff8000f5c0: 41 ba 30 00 00 00    	mov	r10d, 48
ffffffff8000f5c6: 89 f9                	mov	ecx, edi
ffffffff8000f5c8: 0f 1f 84 00 00 00 00 00      	nop	dword ptr [rax + rax]
ffffffff8000f5d0: 89 fa                	mov	edx, edi
ffffffff8000f5d2: 80 e2 0f             	and	dl, 15
ffffffff8000f5d5: c0 e9 04             	shr	cl, 4
ffffffff8000f5d8: 80 fa 0a             	cmp	dl, 10
ffffffff8000f5db: b8 57 00 00 00       	mov	eax, 87
ffffffff8000f5e0: 41 0f 42 c2          	cmovb	eax, r10d
ffffffff8000f5e4: 00 d0                	add	al, dl
ffffffff8000f5e6: 41 88 40 ff          	mov	byte ptr [r8 - 1], al
ffffffff8000f5ea: 49 ff c8             	dec	r8
ffffffff8000f5ed: 49 ff c1             	inc	r9
ffffffff8000f5f0: 40 80 ff 0f          	cmp	dil, 15
ffffffff8000f5f4: 89 cf                	mov	edi, ecx
ffffffff8000f5f6: 77 d8                	ja	0xffffffff8000f5d0 <_ZN4core3fmt3num49_$LT$impl$u20$core..fmt..Debug$u20$for$u20$u8$GT$3fmt17h448e836077068409E+0x70>
ffffffff8000f5f8: eb 3e                	jmp	0xffffffff8000f638 <_ZN4core3fmt3num49_$LT$impl$u20$core..fmt..Debug$u20$for$u20$u8$GT$3fmt17h448e836077068409E+0xd8>
ffffffff8000f5fa: 4c 8d 84 24 88 00 00 00      	lea	r8, [rsp + 136]
ffffffff8000f602: 45 31 c9             	xor	r9d, r9d
ffffffff8000f605: 41 ba 30 00 00 00    	mov	r10d, 48
ffffffff8000f60b: 89 f9                	mov	ecx, edi
ffffffff8000f60d: 0f 1f 00             	nop	dword ptr [rax]
ffffffff8000f610: 89 fa                	mov	edx, edi
ffffffff8000f612: 80 e2 0f             	and	dl, 15
ffffffff8000f615: c0 e9 04             	shr	cl, 4
ffffffff8000f618: 80 fa 0a             	cmp	dl, 10
ffffffff8000f61b: b8 37 00 00 00       	mov	eax, 55
ffffffff8000f620: 41 0f 42 c2          	cmovb	eax, r10d
ffffffff8000f624: 00 d0                	add	al, dl
ffffffff8000f626: 41 88 40 ff          	mov	byte ptr [r8 - 1], al
ffffffff8000f62a: 49 ff c8             	dec	r8
ffffffff8000f62d: 49 ff c1             	inc	r9
ffffffff8000f630: 40 80 ff 0f          	cmp	dil, 15
ffffffff8000f634: 89 cf                	mov	edi, ecx
ffffffff8000f636: 77 d8                	ja	0xffffffff8000f610 <_ZN4core3fmt3num49_$LT$impl$u20$core..fmt..Debug$u20$for$u20$u8$GT$3fmt17h448e836077068409E+0xb0>
ffffffff8000f638: bf 80 00 00 00       	mov	edi, 128
ffffffff8000f63d: 4c 29 cf             	sub	rdi, r9
ffffffff8000f640: 48 81 ff 81 00 00 00 	cmp	rdi, 129
ffffffff8000f647: 73 7d                	jae	0xffffffff8000f6c6 <_ZN4core3fmt3num49_$LT$impl$u20$core..fmt..Debug$u20$for$u20$u8$GT$3fmt17h448e836077068409E+0x166>
ffffffff8000f649: 48 8d 15 40 2f ff ff 	lea	rdx, [rip - 53440]      # 0xffffffff80002590 <str.3+0x130>
ffffffff8000f650: b9 02 00 00 00       	mov	ecx, 2
ffffffff8000f655: 48 89 f7             	mov	rdi, rsi
ffffffff8000f658: be 01 00 00 00       	mov	esi, 1
ffffffff8000f65d: ff 15 1d 2c 00 00    	call	qword ptr [rip + 11293] # 0xffffffff80012280 <xr6aouzjkjmurg0+0xffffffff80012280>
ffffffff8000f663: 48 81 c4 88 00 00 00 	add	rsp, 136
ffffffff8000f66a: c3                   	ret
ffffffff8000f66b: b8 26 00 00 00       	mov	eax, 38
ffffffff8000f670: 40 80 ff 0a          	cmp	dil, 10
ffffffff8000f674: 73 0b                	jae	0xffffffff8000f681 <_ZN4core3fmt3num49_$LT$impl$u20$core..fmt..Debug$u20$for$u20$u8$GT$3fmt17h448e836077068409E+0x121>
ffffffff8000f676: 40 80 c7 30          	add	dil, 48
ffffffff8000f67a: 40 88 7c 04 08       	mov	byte ptr [rsp + rax + 8], dil
ffffffff8000f67f: eb 15                	jmp	0xffffffff8000f696 <_ZN4core3fmt3num49_$LT$impl$u20$core..fmt..Debug$u20$for$u20$u8$GT$3fmt17h448e836077068409E+0x136>
ffffffff8000f681: 48 8d 05 0a 2f ff ff 	lea	rax, [rip - 53494]      # 0xffffffff80002592 <str.3+0x132>
ffffffff8000f688: 0f b7 04 48          	movzx	eax, word ptr [rax + 2*rcx]
ffffffff8000f68c: 66 89 44 24 2d       	mov	word ptr [rsp + 45], ax
ffffffff8000f691: b8 25 00 00 00       	mov	eax, 37
ffffffff8000f696: 4c 8d 04 04          	lea	r8, [rsp + rax]
ffffffff8000f69a: 49 83 c0 08          	add	r8, 8
ffffffff8000f69e: 41 b9 27 00 00 00    	mov	r9d, 39
ffffffff8000f6a4: 49 29 c1             	sub	r9, rax
ffffffff8000f6a7: 48 8d 15 0a 2e ff ff 	lea	rdx, [rip - 53750]      # 0xffffffff800024b8 <str.3+0x58>
ffffffff8000f6ae: 48 89 f7             	mov	rdi, rsi
ffffffff8000f6b1: be 01 00 00 00       	mov	esi, 1
ffffffff8000f6b6: 31 c9                	xor	ecx, ecx
ffffffff8000f6b8: ff 15 c2 2b 00 00    	call	qword ptr [rip + 11202] # 0xffffffff80012280 <xr6aouzjkjmurg0+0xffffffff80012280>
ffffffff8000f6be: 48 81 c4 88 00 00 00 	add	rsp, 136
ffffffff8000f6c5: c3                   	ret
ffffffff8000f6c6: 48 8d 15 33 28 00 00 	lea	rdx, [rip + 10291]      # 0xffffffff80011f00 <xr6aouzjkjmurg0+0xffffffff80011f00>
ffffffff8000f6cd: be 80 00 00 00       	mov	esi, 128
ffffffff8000f6d2: ff 15 98 2b 00 00    	call	qword ptr [rip + 11160] # 0xffffffff80012270 <xr6aouzjkjmurg0+0xffffffff80012270>
ffffffff8000f6d8: 0f 0b                	ud2
ffffffff8000f6da: cc                   	int3
ffffffff8000f6db: cc                   	int3
ffffffff8000f6dc: cc                   	int3
ffffffff8000f6dd: cc                   	int3
ffffffff8000f6de: cc                   	int3
ffffffff8000f6df: cc                   	int3

ffffffff8000f6e0 <_ZN4core3fmt3num52_$LT$impl$u20$core..fmt..Debug$u20$for$u20$usize$GT$3fmt17h97346f3367e1ea5fE>:
ffffffff8000f6e0: 48 81 ec 88 00 00 00 	sub	rsp, 136
ffffffff8000f6e7: 8b 46 30             	mov	eax, dword ptr [rsi + 48]
ffffffff8000f6ea: a8 10                	test	al, 16
ffffffff8000f6ec: 0f 85 e0 00 00 00    	jne	0xffffffff8000f7d2 <_ZN4core3fmt3num52_$LT$impl$u20$core..fmt..Debug$u20$for$u20$usize$GT$3fmt17h97346f3367e1ea5fE+0xf2>
ffffffff8000f6f2: a8 20                	test	al, 32
ffffffff8000f6f4: 0f 85 23 01 00 00    	jne	0xffffffff8000f81d <_ZN4core3fmt3num52_$LT$impl$u20$core..fmt..Debug$u20$for$u20$usize$GT$3fmt17h97346f3367e1ea5fE+0x13d>
ffffffff8000f6fa: 4c 8b 17             	mov	r10, qword ptr [rdi]
ffffffff8000f6fd: b9 27 00 00 00       	mov	ecx, 39
ffffffff8000f702: 49 81 fa 10 27 00 00 	cmp	r10, 10000
ffffffff8000f709: 0f 82 8f 01 00 00    	jb	0xffffffff8000f89e <_ZN4core3fmt3num52_$LT$impl$u20$core..fmt..Debug$u20$for$u20$usize$GT$3fmt17h97346f3367e1ea5fE+0x1be>
ffffffff8000f70f: 41 bb 27 00 00 00    	mov	r11d, 39
ffffffff8000f715: 49 b8 4b 59 86 38 d6 c5 6d 34	movabs	r8, 3777893186295716171
ffffffff8000f71f: 4c 8d 0d 6c 2e ff ff 	lea	r9, [rip - 53652]       # 0xffffffff80002592 <str.3+0x132>
ffffffff8000f726: 66 2e 0f 1f 84 00 00 00 00 00	nop	word ptr cs:[rax + rax]
ffffffff8000f730: 4c 89 d0             	mov	rax, r10
ffffffff8000f733: 49 f7 e0             	mul	r8
ffffffff8000f736: 48 c1 ea 0b          	shr	rdx, 11
ffffffff8000f73a: 69 c2 10 27 00 00    	imul	eax, edx, 10000
ffffffff8000f740: 44 89 d1             	mov	ecx, r10d
ffffffff8000f743: 29 c1                	sub	ecx, eax
ffffffff8000f745: 0f b7 c1             	movzx	eax, cx
ffffffff8000f748: c1 e8 02             	shr	eax, 2
ffffffff8000f74b: 69 c0 7b 14 00 00    	imul	eax, eax, 5243
ffffffff8000f751: c1 e8 11             	shr	eax, 17
ffffffff8000f754: 6b f8 64             	imul	edi, eax, 100
ffffffff8000f757: 29 f9                	sub	ecx, edi
ffffffff8000f759: 0f b7 f9             	movzx	edi, cx
ffffffff8000f75c: 49 8d 4b fc          	lea	rcx, [r11 - 4]
ffffffff8000f760: 41 0f b7 04 41       	movzx	eax, word ptr [r9 + 2*rax]
ffffffff8000f765: 66 42 89 44 1c 04    	mov	word ptr [rsp + r11 + 4], ax
ffffffff8000f76b: 41 0f b7 04 79       	movzx	eax, word ptr [r9 + 2*rdi]
ffffffff8000f770: 66 42 89 44 1c 06    	mov	word ptr [rsp + r11 + 6], ax
ffffffff8000f776: 49 89 cb             	mov	r11, rcx
ffffffff8000f779: 49 81 fa ff e0 f5 05 	cmp	r10, 99999999
ffffffff8000f780: 49 89 d2             	mov	r10, rdx
ffffffff8000f783: 77 ab                	ja	0xffffffff8000f730 <_ZN4core3fmt3num52_$LT$impl$u20$core..fmt..Debug$u20$for$u20$usize$GT$3fmt17h97346f3367e1ea5fE+0x50>
ffffffff8000f785: 48 83 fa 63          	cmp	rdx, 99
ffffffff8000f789: 76 2e                	jbe	0xffffffff8000f7b9 <_ZN4core3fmt3num52_$LT$impl$u20$core..fmt..Debug$u20$for$u20$usize$GT$3fmt17h97346f3367e1ea5fE+0xd9>
ffffffff8000f78b: 0f b7 c2             	movzx	eax, dx
ffffffff8000f78e: c1 e8 02             	shr	eax, 2
ffffffff8000f791: 69 c0 7b 14 00 00    	imul	eax, eax, 5243
ffffffff8000f797: c1 e8 11             	shr	eax, 17
ffffffff8000f79a: 6b f8 64             	imul	edi, eax, 100
ffffffff8000f79d: 29 fa                	sub	edx, edi
ffffffff8000f79f: 0f b7 d2             	movzx	edx, dx
ffffffff8000f7a2: 48 8d 3d e9 2d ff ff 	lea	rdi, [rip - 53783]      # 0xffffffff80002592 <str.3+0x132>
ffffffff8000f7a9: 0f b7 14 57          	movzx	edx, word ptr [rdi + 2*rdx]
ffffffff8000f7ad: 66 89 54 0c 06       	mov	word ptr [rsp + rcx + 6], dx
ffffffff8000f7b2: 48 83 c1 fe          	add	rcx, -2
ffffffff8000f7b6: 48 89 c2             	mov	rdx, rax
ffffffff8000f7b9: 48 83 fa 0a          	cmp	rdx, 10
ffffffff8000f7bd: 0f 83 ed 00 00 00    	jae	0xffffffff8000f8b0 <_ZN4core3fmt3num52_$LT$impl$u20$core..fmt..Debug$u20$for$u20$usize$GT$3fmt17h97346f3367e1ea5fE+0x1d0>
ffffffff8000f7c3: 80 c2 30             	add	dl, 48
ffffffff8000f7c6: 88 54 0c 07          	mov	byte ptr [rsp + rcx + 7], dl
ffffffff8000f7ca: 48 ff c9             	dec	rcx
ffffffff8000f7cd: e9 f2 00 00 00       	jmp	0xffffffff8000f8c4 <_ZN4core3fmt3num52_$LT$impl$u20$core..fmt..Debug$u20$for$u20$usize$GT$3fmt17h97346f3367e1ea5fE+0x1e4>
ffffffff8000f7d2: 48 8b 07             	mov	rax, qword ptr [rdi]
ffffffff8000f7d5: 4c 8d 84 24 88 00 00 00      	lea	r8, [rsp + 136]
ffffffff8000f7dd: 45 31 c9             	xor	r9d, r9d
ffffffff8000f7e0: 41 ba 30 00 00 00    	mov	r10d, 48
ffffffff8000f7e6: 48 89 c2             	mov	rdx, rax
ffffffff8000f7e9: 0f 1f 80 00 00 00 00 	nop	dword ptr [rax]
ffffffff8000f7f0: 48 c1 ea 04          	shr	rdx, 4
ffffffff8000f7f4: 89 c1                	mov	ecx, eax
ffffffff8000f7f6: 80 e1 0f             	and	cl, 15
ffffffff8000f7f9: 80 f9 0a             	cmp	cl, 10
ffffffff8000f7fc: bf 57 00 00 00       	mov	edi, 87
ffffffff8000f801: 41 0f 42 fa          	cmovb	edi, r10d
ffffffff8000f805: 40 00 cf             	add	dil, cl
ffffffff8000f808: 41 88 78 ff          	mov	byte ptr [r8 - 1], dil
ffffffff8000f80c: 49 ff c8             	dec	r8
ffffffff8000f80f: 49 ff c1             	inc	r9
ffffffff8000f812: 48 83 f8 0f          	cmp	rax, 15
ffffffff8000f816: 48 89 d0             	mov	rax, rdx
ffffffff8000f819: 77 d5                	ja	0xffffffff8000f7f0 <_ZN4core3fmt3num52_$LT$impl$u20$core..fmt..Debug$u20$for$u20$usize$GT$3fmt17h97346f3367e1ea5fE+0x110>
ffffffff8000f81b: eb 4e                	jmp	0xffffffff8000f86b <_ZN4core3fmt3num52_$LT$impl$u20$core..fmt..Debug$u20$for$u20$usize$GT$3fmt17h97346f3367e1ea5fE+0x18b>
ffffffff8000f81d: 48 8b 07             	mov	rax, qword ptr [rdi]
ffffffff8000f820: 4c 8d 84 24 88 00 00 00      	lea	r8, [rsp + 136]
ffffffff8000f828: 45 31 c9             	xor	r9d, r9d
ffffffff8000f82b: 41 ba 30 00 00 00    	mov	r10d, 48
ffffffff8000f831: 48 89 c2             	mov	rdx, rax
ffffffff8000f834: 66 66 66 2e 0f 1f 84 00 00 00 00 00  	nop	word ptr cs:[rax + rax]
ffffffff8000f840: 48 c1 ea 04          	shr	rdx, 4
ffffffff8000f844: 89 c1                	mov	ecx, eax
ffffffff8000f846: 80 e1 0f             	and	cl, 15
ffffffff8000f849: 80 f9 0a             	cmp	cl, 10
ffffffff8000f84c: bf 37 00 00 00       	mov	edi, 55
ffffffff8000f851: 41 0f 42 fa          	cmovb	edi, r10d
ffffffff8000f855: 40 00 cf             	add	dil, cl
ffffffff8000f858: 41 88 78 ff          	mov	byte ptr [r8 - 1], dil
ffffffff8000f85c: 49 ff c8             	dec	r8
ffffffff8000f85f: 49 ff c1             	inc	r9
ffffffff8000f862: 48 83 f8 0f          	cmp	rax, 15
ffffffff8000f866: 48 89 d0             	mov	rax, rdx
ffffffff8000f869: 77 d5                	ja	0xffffffff8000f840 <_ZN4core3fmt3num52_$LT$impl$u20$core..fmt..Debug$u20$for$u20$usize$GT$3fmt17h97346f3367e1ea5fE+0x160>
ffffffff8000f86b: bf 80 00 00 00       	mov	edi, 128
ffffffff8000f870: 4c 29 cf             	sub	rdi, r9
ffffffff8000f873: 48 81 ff 81 00 00 00 	cmp	rdi, 129
ffffffff8000f87a: 73 78                	jae	0xffffffff8000f8f4 <_ZN4core3fmt3num52_$LT$impl$u20$core..fmt..Debug$u20$for$u20$usize$GT$3fmt17h97346f3367e1ea5fE+0x214>
ffffffff8000f87c: 48 8d 15 0d 2d ff ff 	lea	rdx, [rip - 54003]      # 0xffffffff80002590 <str.3+0x130>
ffffffff8000f883: b9 02 00 00 00       	mov	ecx, 2
ffffffff8000f888: 48 89 f7             	mov	rdi, rsi
ffffffff8000f88b: be 01 00 00 00       	mov	esi, 1
ffffffff8000f890: ff 15 ea 29 00 00    	call	qword ptr [rip + 10730] # 0xffffffff80012280 <xr6aouzjkjmurg0+0xffffffff80012280>
ffffffff8000f896: 48 81 c4 88 00 00 00 	add	rsp, 136
ffffffff8000f89d: c3                   	ret
ffffffff8000f89e: 4c 89 d2             	mov	rdx, r10
ffffffff8000f8a1: 48 83 fa 63          	cmp	rdx, 99
ffffffff8000f8a5: 0f 87 e0 fe ff ff    	ja	0xffffffff8000f78b <_ZN4core3fmt3num52_$LT$impl$u20$core..fmt..Debug$u20$for$u20$usize$GT$3fmt17h97346f3367e1ea5fE+0xab>
ffffffff8000f8ab: e9 09 ff ff ff       	jmp	0xffffffff8000f7b9 <_ZN4core3fmt3num52_$LT$impl$u20$core..fmt..Debug$u20$for$u20$usize$GT$3fmt17h97346f3367e1ea5fE+0xd9>
ffffffff8000f8b0: 48 8d 05 db 2c ff ff 	lea	rax, [rip - 54053]      # 0xffffffff80002592 <str.3+0x132>
ffffffff8000f8b7: 0f b7 04 50          	movzx	eax, word ptr [rax + 2*rdx]
ffffffff8000f8bb: 66 89 44 0c 06       	mov	word ptr [rsp + rcx + 6], ax
ffffffff8000f8c0: 48 83 c1 fe          	add	rcx, -2
ffffffff8000f8c4: 4c 8d 04 0c          	lea	r8, [rsp + rcx]
ffffffff8000f8c8: 49 83 c0 08          	add	r8, 8
ffffffff8000f8cc: 41 b9 27 00 00 00    	mov	r9d, 39
ffffffff8000f8d2: 49 29 c9             	sub	r9, rcx
ffffffff8000f8d5: 48 8d 15 dc 2b ff ff 	lea	rdx, [rip - 54308]      # 0xffffffff800024b8 <str.3+0x58>
ffffffff8000f8dc: 48 89 f7             	mov	rdi, rsi
ffffffff8000f8df: be 01 00 00 00       	mov	esi, 1
ffffffff8000f8e4: 31 c9                	xor	ecx, ecx
ffffffff8000f8e6: ff 15 94 29 00 00    	call	qword ptr [rip + 10644] # 0xffffffff80012280 <xr6aouzjkjmurg0+0xffffffff80012280>
ffffffff8000f8ec: 48 81 c4 88 00 00 00 	add	rsp, 136
ffffffff8000f8f3: c3                   	ret
ffffffff8000f8f4: 48 8d 15 05 26 00 00 	lea	rdx, [rip + 9733]       # 0xffffffff80011f00 <xr6aouzjkjmurg0+0xffffffff80011f00>
ffffffff8000f8fb: be 80 00 00 00       	mov	esi, 128
ffffffff8000f900: ff 15 6a 29 00 00    	call	qword ptr [rip + 10602] # 0xffffffff80012270 <xr6aouzjkjmurg0+0xffffffff80012270>
ffffffff8000f906: 0f 0b                	ud2
ffffffff8000f908: cc                   	int3
ffffffff8000f909: cc                   	int3
ffffffff8000f90a: cc                   	int3
ffffffff8000f90b: cc                   	int3
ffffffff8000f90c: cc                   	int3
ffffffff8000f90d: cc                   	int3
ffffffff8000f90e: cc                   	int3
ffffffff8000f90f: cc                   	int3

ffffffff8000f910 <_ZN4core3fmt3num3imp52_$LT$impl$u20$core..fmt..Display$u20$for$u20$i32$GT$3fmt17hfba08be9b34d93fbE>:
ffffffff8000f910: 53                   	push	rbx
ffffffff8000f911: 48 83 ec 30          	sub	rsp, 48
ffffffff8000f915: 49 89 f2             	mov	r10, rsi
ffffffff8000f918: 48 63 37             	movsxd	rsi, dword ptr [rdi]
ffffffff8000f91b: 48 89 f0             	mov	rax, rsi
ffffffff8000f91e: 48 f7 d8             	neg	rax
ffffffff8000f921: 48 85 f6             	test	rsi, rsi
ffffffff8000f924: 41 89 f3             	mov	r11d, esi
ffffffff8000f927: 4c 0f 48 d8          	cmovs	r11, rax
ffffffff8000f92b: b8 27 00 00 00       	mov	eax, 39
ffffffff8000f930: 49 81 fb 10 27 00 00 	cmp	r11, 10000
ffffffff8000f937: 0f 82 bc 00 00 00    	jb	0xffffffff8000f9f9 <_ZN4core3fmt3num3imp52_$LT$impl$u20$core..fmt..Display$u20$for$u20$i32$GT$3fmt17hfba08be9b34d93fbE+0xe9>
ffffffff8000f93d: b9 27 00 00 00       	mov	ecx, 39
ffffffff8000f942: 49 b8 4b 59 86 38 d6 c5 6d 34	movabs	r8, 3777893186295716171
ffffffff8000f94c: 4c 8d 0d 3f 2c ff ff 	lea	r9, [rip - 54209]       # 0xffffffff80002592 <str.3+0x132>
ffffffff8000f953: 66 66 66 66 2e 0f 1f 84 00 00 00 00 00       	nop	word ptr cs:[rax + rax]
ffffffff8000f960: 4c 89 d8             	mov	rax, r11
ffffffff8000f963: 49 f7 e0             	mul	r8
ffffffff8000f966: 48 c1 ea 0b          	shr	rdx, 11
ffffffff8000f96a: 69 c2 10 27 00 00    	imul	eax, edx, 10000
ffffffff8000f970: 44 89 df             	mov	edi, r11d
ffffffff8000f973: 29 c7                	sub	edi, eax
ffffffff8000f975: 0f b7 c7             	movzx	eax, di
ffffffff8000f978: c1 e8 02             	shr	eax, 2
ffffffff8000f97b: 69 d8 7b 14 00 00    	imul	ebx, eax, 5243
ffffffff8000f981: c1 eb 11             	shr	ebx, 17
ffffffff8000f984: 6b c3 64             	imul	eax, ebx, 100
ffffffff8000f987: 29 c7                	sub	edi, eax
ffffffff8000f989: 0f b7 ff             	movzx	edi, di
ffffffff8000f98c: 48 8d 41 fc          	lea	rax, [rcx - 4]
ffffffff8000f990: 41 0f b7 1c 59       	movzx	ebx, word ptr [r9 + 2*rbx]
ffffffff8000f995: 66 89 5c 0c 05       	mov	word ptr [rsp + rcx + 5], bx
ffffffff8000f99a: 41 0f b7 3c 79       	movzx	edi, word ptr [r9 + 2*rdi]
ffffffff8000f99f: 66 89 7c 0c 07       	mov	word ptr [rsp + rcx + 7], di
ffffffff8000f9a4: 48 89 c1             	mov	rcx, rax
ffffffff8000f9a7: 49 81 fb ff e0 f5 05 	cmp	r11, 99999999
ffffffff8000f9ae: 49 89 d3             	mov	r11, rdx
ffffffff8000f9b1: 77 ad                	ja	0xffffffff8000f960 <_ZN4core3fmt3num3imp52_$LT$impl$u20$core..fmt..Display$u20$for$u20$i32$GT$3fmt17hfba08be9b34d93fbE+0x50>
ffffffff8000f9b3: 48 83 fa 63          	cmp	rdx, 99
ffffffff8000f9b7: 76 2e                	jbe	0xffffffff8000f9e7 <_ZN4core3fmt3num3imp52_$LT$impl$u20$core..fmt..Display$u20$for$u20$i32$GT$3fmt17hfba08be9b34d93fbE+0xd7>
ffffffff8000f9b9: 0f b7 ca             	movzx	ecx, dx
ffffffff8000f9bc: c1 e9 02             	shr	ecx, 2
ffffffff8000f9bf: 69 c9 7b 14 00 00    	imul	ecx, ecx, 5243
ffffffff8000f9c5: c1 e9 11             	shr	ecx, 17
ffffffff8000f9c8: 6b f9 64             	imul	edi, ecx, 100
ffffffff8000f9cb: 29 fa                	sub	edx, edi
ffffffff8000f9cd: 0f b7 d2             	movzx	edx, dx
ffffffff8000f9d0: 48 8d 3d bb 2b ff ff 	lea	rdi, [rip - 54341]      # 0xffffffff80002592 <str.3+0x132>
ffffffff8000f9d7: 0f b7 14 57          	movzx	edx, word ptr [rdi + 2*rdx]
ffffffff8000f9db: 66 89 54 04 07       	mov	word ptr [rsp + rax + 7], dx
ffffffff8000f9e0: 48 83 c0 fe          	add	rax, -2
ffffffff8000f9e4: 48 89 ca             	mov	rdx, rcx
ffffffff8000f9e7: 48 83 fa 0a          	cmp	rdx, 10
ffffffff8000f9eb: 73 17                	jae	0xffffffff8000fa04 <_ZN4core3fmt3num3imp52_$LT$impl$u20$core..fmt..Display$u20$for$u20$i32$GT$3fmt17hfba08be9b34d93fbE+0xf4>
ffffffff8000f9ed: 80 c2 30             	add	dl, 48
ffffffff8000f9f0: 88 54 04 08          	mov	byte ptr [rsp + rax + 8], dl
ffffffff8000f9f4: 48 ff c8             	dec	rax
ffffffff8000f9f7: eb 1f                	jmp	0xffffffff8000fa18 <_ZN4core3fmt3num3imp52_$LT$impl$u20$core..fmt..Display$u20$for$u20$i32$GT$3fmt17hfba08be9b34d93fbE+0x108>
ffffffff8000f9f9: 4c 89 da             	mov	rdx, r11
ffffffff8000f9fc: 48 83 fa 63          	cmp	rdx, 99
ffffffff8000fa00: 77 b7                	ja	0xffffffff8000f9b9 <_ZN4core3fmt3num3imp52_$LT$impl$u20$core..fmt..Display$u20$for$u20$i32$GT$3fmt17hfba08be9b34d93fbE+0xa9>
ffffffff8000fa02: eb e3                	jmp	0xffffffff8000f9e7 <_ZN4core3fmt3num3imp52_$LT$impl$u20$core..fmt..Display$u20$for$u20$i32$GT$3fmt17hfba08be9b34d93fbE+0xd7>
ffffffff8000fa04: 48 8d 0d 87 2b ff ff 	lea	rcx, [rip - 54393]      # 0xffffffff80002592 <str.3+0x132>
ffffffff8000fa0b: 0f b7 0c 51          	movzx	ecx, word ptr [rcx + 2*rdx]
ffffffff8000fa0f: 66 89 4c 04 07       	mov	word ptr [rsp + rax + 7], cx
ffffffff8000fa14: 48 83 c0 fe          	add	rax, -2
ffffffff8000fa18: 4c 8d 04 04          	lea	r8, [rsp + rax]
ffffffff8000fa1c: 49 83 c0 09          	add	r8, 9
ffffffff8000fa20: 41 b9 27 00 00 00    	mov	r9d, 39
ffffffff8000fa26: 49 29 c1             	sub	r9, rax
ffffffff8000fa29: f7 d6                	not	esi
ffffffff8000fa2b: c1 ee 1f             	shr	esi, 31
ffffffff8000fa2e: 48 8d 15 83 2a ff ff 	lea	rdx, [rip - 54653]      # 0xffffffff800024b8 <str.3+0x58>
ffffffff8000fa35: 4c 89 d7             	mov	rdi, r10
ffffffff8000fa38: 31 c9                	xor	ecx, ecx
ffffffff8000fa3a: ff 15 40 28 00 00    	call	qword ptr [rip + 10304] # 0xffffffff80012280 <xr6aouzjkjmurg0+0xffffffff80012280>
ffffffff8000fa40: 48 83 c4 30          	add	rsp, 48
ffffffff8000fa44: 5b                   	pop	rbx
ffffffff8000fa45: c3                   	ret
ffffffff8000fa46: cc                   	int3
ffffffff8000fa47: cc                   	int3
ffffffff8000fa48: cc                   	int3
ffffffff8000fa49: cc                   	int3
ffffffff8000fa4a: cc                   	int3
ffffffff8000fa4b: cc                   	int3
ffffffff8000fa4c: cc                   	int3
ffffffff8000fa4d: cc                   	int3
ffffffff8000fa4e: cc                   	int3
ffffffff8000fa4f: cc                   	int3

ffffffff8000fa50 <_ZN4core3fmt3num3imp52_$LT$impl$u20$core..fmt..Display$u20$for$u20$u32$GT$3fmt17h68fdf58b24f0176eE>:
ffffffff8000fa50: 48 83 ec 28          	sub	rsp, 40
ffffffff8000fa54: 49 89 f2             	mov	r10, rsi
ffffffff8000fa57: 44 8b 1f             	mov	r11d, dword ptr [rdi]
ffffffff8000fa5a: b9 27 00 00 00       	mov	ecx, 39
ffffffff8000fa5f: 49 81 fb 10 27 00 00 	cmp	r11, 10000
ffffffff8000fa66: 0f 82 bc 00 00 00    	jb	0xffffffff8000fb28 <_ZN4core3fmt3num3imp52_$LT$impl$u20$core..fmt..Display$u20$for$u20$u32$GT$3fmt17h68fdf58b24f0176eE+0xd8>
ffffffff8000fa6c: bf 27 00 00 00       	mov	edi, 39
ffffffff8000fa71: 49 b8 4b 59 86 38 d6 c5 6d 34	movabs	r8, 3777893186295716171
ffffffff8000fa7b: 4c 8d 0d 10 2b ff ff 	lea	r9, [rip - 54512]       # 0xffffffff80002592 <str.3+0x132>
ffffffff8000fa82: 66 66 66 66 66 2e 0f 1f 84 00 00 00 00 00    	nop	word ptr cs:[rax + rax]
ffffffff8000fa90: 4c 89 d8             	mov	rax, r11
ffffffff8000fa93: 49 f7 e0             	mul	r8
ffffffff8000fa96: 48 c1 ea 0b          	shr	rdx, 11
ffffffff8000fa9a: 69 c2 10 27 00 00    	imul	eax, edx, 10000
ffffffff8000faa0: 44 89 d9             	mov	ecx, r11d
ffffffff8000faa3: 29 c1                	sub	ecx, eax
ffffffff8000faa5: 0f b7 c1             	movzx	eax, cx
ffffffff8000faa8: c1 e8 02             	shr	eax, 2
ffffffff8000faab: 69 c0 7b 14 00 00    	imul	eax, eax, 5243
ffffffff8000fab1: c1 e8 11             	shr	eax, 17
ffffffff8000fab4: 6b f0 64             	imul	esi, eax, 100
ffffffff8000fab7: 29 f1                	sub	ecx, esi
ffffffff8000fab9: 0f b7 f1             	movzx	esi, cx
ffffffff8000fabc: 48 8d 4f fc          	lea	rcx, [rdi - 4]
ffffffff8000fac0: 41 0f b7 04 41       	movzx	eax, word ptr [r9 + 2*rax]
ffffffff8000fac5: 66 89 44 3c fd       	mov	word ptr [rsp + rdi - 3], ax
ffffffff8000faca: 41 0f b7 04 71       	movzx	eax, word ptr [r9 + 2*rsi]
ffffffff8000facf: 66 89 44 3c ff       	mov	word ptr [rsp + rdi - 1], ax
ffffffff8000fad4: 48 89 cf             	mov	rdi, rcx
ffffffff8000fad7: 49 81 fb ff e0 f5 05 	cmp	r11, 99999999
ffffffff8000fade: 49 89 d3             	mov	r11, rdx
ffffffff8000fae1: 77 ad                	ja	0xffffffff8000fa90 <_ZN4core3fmt3num3imp52_$LT$impl$u20$core..fmt..Display$u20$for$u20$u32$GT$3fmt17h68fdf58b24f0176eE+0x40>
ffffffff8000fae3: 48 83 fa 63          	cmp	rdx, 99
ffffffff8000fae7: 76 2e                	jbe	0xffffffff8000fb17 <_ZN4core3fmt3num3imp52_$LT$impl$u20$core..fmt..Display$u20$for$u20$u32$GT$3fmt17h68fdf58b24f0176eE+0xc7>
ffffffff8000fae9: 0f b7 c2             	movzx	eax, dx
ffffffff8000faec: c1 e8 02             	shr	eax, 2
ffffffff8000faef: 69 c0 7b 14 00 00    	imul	eax, eax, 5243
ffffffff8000faf5: c1 e8 11             	shr	eax, 17
ffffffff8000faf8: 6b f0 64             	imul	esi, eax, 100
ffffffff8000fafb: 29 f2                	sub	edx, esi
ffffffff8000fafd: 0f b7 d2             	movzx	edx, dx
ffffffff8000fb00: 48 8d 35 8b 2a ff ff 	lea	rsi, [rip - 54645]      # 0xffffffff80002592 <str.3+0x132>
ffffffff8000fb07: 0f b7 14 56          	movzx	edx, word ptr [rsi + 2*rdx]
ffffffff8000fb0b: 66 89 54 0c ff       	mov	word ptr [rsp + rcx - 1], dx
ffffffff8000fb10: 48 83 c1 fe          	add	rcx, -2
ffffffff8000fb14: 48 89 c2             	mov	rdx, rax
ffffffff8000fb17: 48 83 fa 0a          	cmp	rdx, 10
ffffffff8000fb1b: 73 16                	jae	0xffffffff8000fb33 <_ZN4core3fmt3num3imp52_$LT$impl$u20$core..fmt..Display$u20$for$u20$u32$GT$3fmt17h68fdf58b24f0176eE+0xe3>
ffffffff8000fb1d: 80 c2 30             	add	dl, 48
ffffffff8000fb20: 88 14 0c             	mov	byte ptr [rsp + rcx], dl
ffffffff8000fb23: 48 ff c9             	dec	rcx
ffffffff8000fb26: eb 1f                	jmp	0xffffffff8000fb47 <_ZN4core3fmt3num3imp52_$LT$impl$u20$core..fmt..Display$u20$for$u20$u32$GT$3fmt17h68fdf58b24f0176eE+0xf7>
ffffffff8000fb28: 4c 89 da             	mov	rdx, r11
ffffffff8000fb2b: 48 83 fa 63          	cmp	rdx, 99
ffffffff8000fb2f: 77 b8                	ja	0xffffffff8000fae9 <_ZN4core3fmt3num3imp52_$LT$impl$u20$core..fmt..Display$u20$for$u20$u32$GT$3fmt17h68fdf58b24f0176eE+0x99>
ffffffff8000fb31: eb e4                	jmp	0xffffffff8000fb17 <_ZN4core3fmt3num3imp52_$LT$impl$u20$core..fmt..Display$u20$for$u20$u32$GT$3fmt17h68fdf58b24f0176eE+0xc7>
ffffffff8000fb33: 48 8d 05 58 2a ff ff 	lea	rax, [rip - 54696]      # 0xffffffff80002592 <str.3+0x132>
ffffffff8000fb3a: 0f b7 04 50          	movzx	eax, word ptr [rax + 2*rdx]
ffffffff8000fb3e: 66 89 44 0c ff       	mov	word ptr [rsp + rcx - 1], ax
ffffffff8000fb43: 48 83 c1 fe          	add	rcx, -2
ffffffff8000fb47: 4c 8d 04 0c          	lea	r8, [rsp + rcx]
ffffffff8000fb4b: 49 ff c0             	inc	r8
ffffffff8000fb4e: 41 b9 27 00 00 00    	mov	r9d, 39
ffffffff8000fb54: 49 29 c9             	sub	r9, rcx
ffffffff8000fb57: 48 8d 15 5a 29 ff ff 	lea	rdx, [rip - 54950]      # 0xffffffff800024b8 <str.3+0x58>
ffffffff8000fb5e: 4c 89 d7             	mov	rdi, r10
ffffffff8000fb61: be 01 00 00 00       	mov	esi, 1
ffffffff8000fb66: 31 c9                	xor	ecx, ecx
ffffffff8000fb68: ff 15 12 27 00 00    	call	qword ptr [rip + 10002] # 0xffffffff80012280 <xr6aouzjkjmurg0+0xffffffff80012280>
ffffffff8000fb6e: 48 83 c4 28          	add	rsp, 40
ffffffff8000fb72: c3                   	ret
ffffffff8000fb73: cc                   	int3
ffffffff8000fb74: cc                   	int3
ffffffff8000fb75: cc                   	int3
ffffffff8000fb76: cc                   	int3
ffffffff8000fb77: cc                   	int3
ffffffff8000fb78: cc                   	int3
ffffffff8000fb79: cc                   	int3
ffffffff8000fb7a: cc                   	int3
ffffffff8000fb7b: cc                   	int3
ffffffff8000fb7c: cc                   	int3
ffffffff8000fb7d: cc                   	int3
ffffffff8000fb7e: cc                   	int3
ffffffff8000fb7f: cc                   	int3

ffffffff8000fb80 <_ZN4core3fmt3num3imp54_$LT$impl$u20$core..fmt..Display$u20$for$u20$usize$GT$3fmt17hea4fbf32fcea7b3aE>:
ffffffff8000fb80: 48 83 ec 28          	sub	rsp, 40
ffffffff8000fb84: 49 89 f2             	mov	r10, rsi
ffffffff8000fb87: 4c 8b 1f             	mov	r11, qword ptr [rdi]
ffffffff8000fb8a: b9 27 00 00 00       	mov	ecx, 39
ffffffff8000fb8f: 49 81 fb 10 27 00 00 	cmp	r11, 10000
ffffffff8000fb96: 0f 82 bc 00 00 00    	jb	0xffffffff8000fc58 <_ZN4core3fmt3num3imp54_$LT$impl$u20$core..fmt..Display$u20$for$u20$usize$GT$3fmt17hea4fbf32fcea7b3aE+0xd8>
ffffffff8000fb9c: bf 27 00 00 00       	mov	edi, 39
ffffffff8000fba1: 49 b8 4b 59 86 38 d6 c5 6d 34	movabs	r8, 3777893186295716171
ffffffff8000fbab: 4c 8d 0d e0 29 ff ff 	lea	r9, [rip - 54816]       # 0xffffffff80002592 <str.3+0x132>
ffffffff8000fbb2: 66 66 66 66 66 2e 0f 1f 84 00 00 00 00 00    	nop	word ptr cs:[rax + rax]
ffffffff8000fbc0: 4c 89 d8             	mov	rax, r11
ffffffff8000fbc3: 49 f7 e0             	mul	r8
ffffffff8000fbc6: 48 c1 ea 0b          	shr	rdx, 11
ffffffff8000fbca: 69 c2 10 27 00 00    	imul	eax, edx, 10000
ffffffff8000fbd0: 44 89 d9             	mov	ecx, r11d
ffffffff8000fbd3: 29 c1                	sub	ecx, eax
ffffffff8000fbd5: 0f b7 c1             	movzx	eax, cx
ffffffff8000fbd8: c1 e8 02             	shr	eax, 2
ffffffff8000fbdb: 69 c0 7b 14 00 00    	imul	eax, eax, 5243
ffffffff8000fbe1: c1 e8 11             	shr	eax, 17
ffffffff8000fbe4: 6b f0 64             	imul	esi, eax, 100
ffffffff8000fbe7: 29 f1                	sub	ecx, esi
ffffffff8000fbe9: 0f b7 f1             	movzx	esi, cx
ffffffff8000fbec: 48 8d 4f fc          	lea	rcx, [rdi - 4]
ffffffff8000fbf0: 41 0f b7 04 41       	movzx	eax, word ptr [r9 + 2*rax]
ffffffff8000fbf5: 66 89 44 3c fd       	mov	word ptr [rsp + rdi - 3], ax
ffffffff8000fbfa: 41 0f b7 04 71       	movzx	eax, word ptr [r9 + 2*rsi]
ffffffff8000fbff: 66 89 44 3c ff       	mov	word ptr [rsp + rdi - 1], ax
ffffffff8000fc04: 48 89 cf             	mov	rdi, rcx
ffffffff8000fc07: 49 81 fb ff e0 f5 05 	cmp	r11, 99999999
ffffffff8000fc0e: 49 89 d3             	mov	r11, rdx
ffffffff8000fc11: 77 ad                	ja	0xffffffff8000fbc0 <_ZN4core3fmt3num3imp54_$LT$impl$u20$core..fmt..Display$u20$for$u20$usize$GT$3fmt17hea4fbf32fcea7b3aE+0x40>
ffffffff8000fc13: 48 83 fa 63          	cmp	rdx, 99
ffffffff8000fc17: 76 2e                	jbe	0xffffffff8000fc47 <_ZN4core3fmt3num3imp54_$LT$impl$u20$core..fmt..Display$u20$for$u20$usize$GT$3fmt17hea4fbf32fcea7b3aE+0xc7>
ffffffff8000fc19: 0f b7 c2             	movzx	eax, dx
ffffffff8000fc1c: c1 e8 02             	shr	eax, 2
ffffffff8000fc1f: 69 c0 7b 14 00 00    	imul	eax, eax, 5243
ffffffff8000fc25: c1 e8 11             	shr	eax, 17
ffffffff8000fc28: 6b f0 64             	imul	esi, eax, 100
ffffffff8000fc2b: 29 f2                	sub	edx, esi
ffffffff8000fc2d: 0f b7 d2             	movzx	edx, dx
ffffffff8000fc30: 48 8d 35 5b 29 ff ff 	lea	rsi, [rip - 54949]      # 0xffffffff80002592 <str.3+0x132>
ffffffff8000fc37: 0f b7 14 56          	movzx	edx, word ptr [rsi + 2*rdx]
ffffffff8000fc3b: 66 89 54 0c ff       	mov	word ptr [rsp + rcx - 1], dx
ffffffff8000fc40: 48 83 c1 fe          	add	rcx, -2
ffffffff8000fc44: 48 89 c2             	mov	rdx, rax
ffffffff8000fc47: 48 83 fa 0a          	cmp	rdx, 10
ffffffff8000fc4b: 73 16                	jae	0xffffffff8000fc63 <_ZN4core3fmt3num3imp54_$LT$impl$u20$core..fmt..Display$u20$for$u20$usize$GT$3fmt17hea4fbf32fcea7b3aE+0xe3>
ffffffff8000fc4d: 80 c2 30             	add	dl, 48
ffffffff8000fc50: 88 14 0c             	mov	byte ptr [rsp + rcx], dl
ffffffff8000fc53: 48 ff c9             	dec	rcx
ffffffff8000fc56: eb 1f                	jmp	0xffffffff8000fc77 <_ZN4core3fmt3num3imp54_$LT$impl$u20$core..fmt..Display$u20$for$u20$usize$GT$3fmt17hea4fbf32fcea7b3aE+0xf7>
ffffffff8000fc58: 4c 89 da             	mov	rdx, r11
ffffffff8000fc5b: 48 83 fa 63          	cmp	rdx, 99
ffffffff8000fc5f: 77 b8                	ja	0xffffffff8000fc19 <_ZN4core3fmt3num3imp54_$LT$impl$u20$core..fmt..Display$u20$for$u20$usize$GT$3fmt17hea4fbf32fcea7b3aE+0x99>
ffffffff8000fc61: eb e4                	jmp	0xffffffff8000fc47 <_ZN4core3fmt3num3imp54_$LT$impl$u20$core..fmt..Display$u20$for$u20$usize$GT$3fmt17hea4fbf32fcea7b3aE+0xc7>
ffffffff8000fc63: 48 8d 05 28 29 ff ff 	lea	rax, [rip - 55000]      # 0xffffffff80002592 <str.3+0x132>
ffffffff8000fc6a: 0f b7 04 50          	movzx	eax, word ptr [rax + 2*rdx]
ffffffff8000fc6e: 66 89 44 0c ff       	mov	word ptr [rsp + rcx - 1], ax
ffffffff8000fc73: 48 83 c1 fe          	add	rcx, -2
ffffffff8000fc77: 4c 8d 04 0c          	lea	r8, [rsp + rcx]
ffffffff8000fc7b: 49 ff c0             	inc	r8
ffffffff8000fc7e: 41 b9 27 00 00 00    	mov	r9d, 39
ffffffff8000fc84: 49 29 c9             	sub	r9, rcx
ffffffff8000fc87: 48 8d 15 2a 28 ff ff 	lea	rdx, [rip - 55254]      # 0xffffffff800024b8 <str.3+0x58>
ffffffff8000fc8e: 4c 89 d7             	mov	rdi, r10
ffffffff8000fc91: be 01 00 00 00       	mov	esi, 1
ffffffff8000fc96: 31 c9                	xor	ecx, ecx
ffffffff8000fc98: ff 15 e2 25 00 00    	call	qword ptr [rip + 9698]  # 0xffffffff80012280 <xr6aouzjkjmurg0+0xffffffff80012280>
ffffffff8000fc9e: 48 83 c4 28          	add	rsp, 40
ffffffff8000fca2: c3                   	ret
ffffffff8000fca3: cc                   	int3
ffffffff8000fca4: cc                   	int3
ffffffff8000fca5: cc                   	int3
ffffffff8000fca6: cc                   	int3
ffffffff8000fca7: cc                   	int3
ffffffff8000fca8: cc                   	int3
ffffffff8000fca9: cc                   	int3
ffffffff8000fcaa: cc                   	int3
ffffffff8000fcab: cc                   	int3
ffffffff8000fcac: cc                   	int3
ffffffff8000fcad: cc                   	int3
ffffffff8000fcae: cc                   	int3
ffffffff8000fcaf: cc                   	int3

ffffffff8000fcb0 <_ZN53_$LT$core..fmt..Error$u20$as$u20$core..fmt..Debug$GT$3fmt17ha5ffa0e6f0108164E>:
ffffffff8000fcb0: 48 8b 3e             	mov	rdi, qword ptr [rsi]
ffffffff8000fcb3: 48 8b 46 08          	mov	rax, qword ptr [rsi + 8]
ffffffff8000fcb7: 48 8b 40 18          	mov	rax, qword ptr [rax + 24]
ffffffff8000fcbb: 48 8d 35 ef 2a ff ff 	lea	rsi, [rip - 54545]      # 0xffffffff800027b1 <str.3+0x351>
ffffffff8000fcc2: ba 05 00 00 00       	mov	edx, 5
ffffffff8000fcc7: ff e0                	jmp	rax
ffffffff8000fcc9: cc                   	int3
ffffffff8000fcca: cc                   	int3
ffffffff8000fccb: cc                   	int3
ffffffff8000fccc: cc                   	int3
ffffffff8000fccd: cc                   	int3
ffffffff8000fcce: cc                   	int3
ffffffff8000fccf: cc                   	int3

ffffffff8000fcd0 <_ZN42_$LT$$RF$T$u20$as$u20$core..fmt..Debug$GT$3fmt17h30dd73188fd10d0dE>:
ffffffff8000fcd0: 41 56                	push	r14
ffffffff8000fcd2: 53                   	push	rbx
ffffffff8000fcd3: 48 83 ec 28          	sub	rsp, 40
ffffffff8000fcd7: 48 89 f3             	mov	rbx, rsi
ffffffff8000fcda: 48 8b 07             	mov	rax, qword ptr [rdi]
ffffffff8000fcdd: 80 38 00             	cmp	byte ptr [rax], 0
ffffffff8000fce0: 0f 84 b6 00 00 00    	je	0xffffffff8000fd9c <_ZN42_$LT$$RF$T$u20$as$u20$core..fmt..Debug$GT$3fmt17h30dd73188fd10d0dE+0xcc>
ffffffff8000fce6: 48 ff c0             	inc	rax
ffffffff8000fce9: 48 89 44 24 20       	mov	qword ptr [rsp + 32], rax
ffffffff8000fcee: 48 8b 3b             	mov	rdi, qword ptr [rbx]
ffffffff8000fcf1: 48 8b 43 08          	mov	rax, qword ptr [rbx + 8]
ffffffff8000fcf5: 48 8d 35 c4 1d ff ff 	lea	rsi, [rip - 57916]      # 0xffffffff80001ac0 <str.0+0x30>
ffffffff8000fcfc: ba 04 00 00 00       	mov	edx, 4
ffffffff8000fd01: ff 50 18             	call	qword ptr [rax + 24]
ffffffff8000fd04: 48 89 5c 24 10       	mov	qword ptr [rsp + 16], rbx
ffffffff8000fd09: 88 44 24 18          	mov	byte ptr [rsp + 24], al
ffffffff8000fd0d: 48 c7 44 24 08 00 00 00 00   	mov	qword ptr [rsp + 8], 0
ffffffff8000fd16: c6 44 24 19 00       	mov	byte ptr [rsp + 25], 0
ffffffff8000fd1b: 48 8d 15 be 21 00 00 	lea	rdx, [rip + 8638]       # 0xffffffff80011ee0 <xr6aouzjkjmurg0+0xffffffff80011ee0>
ffffffff8000fd22: 48 8d 7c 24 08       	lea	rdi, [rsp + 8]
ffffffff8000fd27: 48 8d 74 24 20       	lea	rsi, [rsp + 32]
ffffffff8000fd2c: ff 15 be 24 00 00    	call	qword ptr [rip + 9406]  # 0xffffffff800121f0 <xr6aouzjkjmurg0+0xffffffff800121f0>
ffffffff8000fd32: 48 8b 44 24 08       	mov	rax, qword ptr [rsp + 8]
ffffffff8000fd37: 0f b6 5c 24 18       	movzx	ebx, byte ptr [rsp + 24]
ffffffff8000fd3c: 48 85 c0             	test	rax, rax
ffffffff8000fd3f: 74 51                	je	0xffffffff8000fd92 <_ZN42_$LT$$RF$T$u20$as$u20$core..fmt..Debug$GT$3fmt17h30dd73188fd10d0dE+0xc2>
ffffffff8000fd41: 84 db                	test	bl, bl
ffffffff8000fd43: b3 01                	mov	bl, 1
ffffffff8000fd45: 75 4b                	jne	0xffffffff8000fd92 <_ZN42_$LT$$RF$T$u20$as$u20$core..fmt..Debug$GT$3fmt17h30dd73188fd10d0dE+0xc2>
ffffffff8000fd47: 4c 8b 74 24 10       	mov	r14, qword ptr [rsp + 16]
ffffffff8000fd4c: 48 83 f8 01          	cmp	rax, 1
ffffffff8000fd50: 75 28                	jne	0xffffffff8000fd7a <_ZN42_$LT$$RF$T$u20$as$u20$core..fmt..Debug$GT$3fmt17h30dd73188fd10d0dE+0xaa>
ffffffff8000fd52: 80 7c 24 19 00       	cmp	byte ptr [rsp + 25], 0
ffffffff8000fd57: 74 21                	je	0xffffffff8000fd7a <_ZN42_$LT$$RF$T$u20$as$u20$core..fmt..Debug$GT$3fmt17h30dd73188fd10d0dE+0xaa>
ffffffff8000fd59: 41 f6 46 30 04       	test	byte ptr [r14 + 48], 4
ffffffff8000fd5e: 75 1a                	jne	0xffffffff8000fd7a <_ZN42_$LT$$RF$T$u20$as$u20$core..fmt..Debug$GT$3fmt17h30dd73188fd10d0dE+0xaa>
ffffffff8000fd60: 49 8b 3e             	mov	rdi, qword ptr [r14]
ffffffff8000fd63: 49 8b 46 08          	mov	rax, qword ptr [r14 + 8]
ffffffff8000fd67: 48 8d 35 06 28 ff ff 	lea	rsi, [rip - 55290]      # 0xffffffff80002574 <str.3+0x114>
ffffffff8000fd6e: ba 01 00 00 00       	mov	edx, 1
ffffffff8000fd73: ff 50 18             	call	qword ptr [rax + 24]
ffffffff8000fd76: 84 c0                	test	al, al
ffffffff8000fd78: 75 18                	jne	0xffffffff8000fd92 <_ZN42_$LT$$RF$T$u20$as$u20$core..fmt..Debug$GT$3fmt17h30dd73188fd10d0dE+0xc2>
ffffffff8000fd7a: 49 8b 3e             	mov	rdi, qword ptr [r14]
ffffffff8000fd7d: 49 8b 46 08          	mov	rax, qword ptr [r14 + 8]
ffffffff8000fd81: 48 8d 35 30 27 ff ff 	lea	rsi, [rip - 55504]      # 0xffffffff800024b8 <str.3+0x58>
ffffffff8000fd88: ba 01 00 00 00       	mov	edx, 1
ffffffff8000fd8d: ff 50 18             	call	qword ptr [rax + 24]
ffffffff8000fd90: 89 c3                	mov	ebx, eax
ffffffff8000fd92: 89 d8                	mov	eax, ebx
ffffffff8000fd94: 48 83 c4 28          	add	rsp, 40
ffffffff8000fd98: 5b                   	pop	rbx
ffffffff8000fd99: 41 5e                	pop	r14
ffffffff8000fd9b: c3                   	ret
ffffffff8000fd9c: 48 8b 3b             	mov	rdi, qword ptr [rbx]
ffffffff8000fd9f: 48 8b 43 08          	mov	rax, qword ptr [rbx + 8]
ffffffff8000fda3: 48 8b 40 18          	mov	rax, qword ptr [rax + 24]
ffffffff8000fda7: 48 8d 35 1a 1d ff ff 	lea	rsi, [rip - 58086]      # 0xffffffff80001ac8 <str.0+0x38>
ffffffff8000fdae: ba 04 00 00 00       	mov	edx, 4
ffffffff8000fdb3: 48 83 c4 28          	add	rsp, 40
ffffffff8000fdb7: 5b                   	pop	rbx
ffffffff8000fdb8: 41 5e                	pop	r14
ffffffff8000fdba: ff e0                	jmp	rax
ffffffff8000fdbc: cc                   	int3
ffffffff8000fdbd: cc                   	int3
ffffffff8000fdbe: cc                   	int3
ffffffff8000fdbf: cc                   	int3

ffffffff8000fdc0 <_ZN42_$LT$$RF$T$u20$as$u20$core..fmt..Debug$GT$3fmt17h5e71d2729ab9f31dE>:
ffffffff8000fdc0: 48 8b 3f             	mov	rdi, qword ptr [rdi]
ffffffff8000fdc3: e9 18 f9 ff ff       	jmp	0xffffffff8000f6e0 <_ZN4core3fmt3num52_$LT$impl$u20$core..fmt..Debug$u20$for$u20$usize$GT$3fmt17h97346f3367e1ea5fE>
ffffffff8000fdc8: cc                   	int3
ffffffff8000fdc9: cc                   	int3
ffffffff8000fdca: cc                   	int3
ffffffff8000fdcb: cc                   	int3
ffffffff8000fdcc: cc                   	int3
ffffffff8000fdcd: cc                   	int3
ffffffff8000fdce: cc                   	int3
ffffffff8000fdcf: cc                   	int3

ffffffff8000fdd0 <_ZN42_$LT$$RF$T$u20$as$u20$core..fmt..Debug$GT$3fmt17haa34a3a54d8a09ceE>:
ffffffff8000fdd0: 48 8b 07             	mov	rax, qword ptr [rdi]
ffffffff8000fdd3: 48 8b 4f 08          	mov	rcx, qword ptr [rdi + 8]
ffffffff8000fdd7: 48 8b 49 18          	mov	rcx, qword ptr [rcx + 24]
ffffffff8000fddb: 48 89 c7             	mov	rdi, rax
ffffffff8000fdde: ff e1                	jmp	rcx

ffffffff8000fde0 <_ZN42_$LT$$RF$T$u20$as$u20$core..fmt..Debug$GT$3fmt17hd17a7fa360995acdE>:
ffffffff8000fde0: 48 8b 07             	mov	rax, qword ptr [rdi]
ffffffff8000fde3: 0f b6 38             	movzx	edi, byte ptr [rax]
ffffffff8000fde6: e9 75 f7 ff ff       	jmp	0xffffffff8000f560 <_ZN4core3fmt3num49_$LT$impl$u20$core..fmt..Debug$u20$for$u20$u8$GT$3fmt17h448e836077068409E>
ffffffff8000fdeb: cc                   	int3
ffffffff8000fdec: cc                   	int3
ffffffff8000fded: cc                   	int3
ffffffff8000fdee: cc                   	int3
ffffffff8000fdef: cc                   	int3

ffffffff8000fdf0 <_ZN44_$LT$$RF$T$u20$as$u20$core..fmt..Display$GT$3fmt17h051b9175a1a53e84E>:
ffffffff8000fdf0: 48 89 f0             	mov	rax, rsi
ffffffff8000fdf3: 48 8b 0f             	mov	rcx, qword ptr [rdi]
ffffffff8000fdf6: 48 8b 31             	mov	rsi, qword ptr [rcx]
ffffffff8000fdf9: 48 8b 51 08          	mov	rdx, qword ptr [rcx + 8]
ffffffff8000fdfd: 48 89 c7             	mov	rdi, rax
ffffffff8000fe00: ff 25 1a 24 00 00    	jmp	qword ptr [rip + 9242]  # 0xffffffff80012220 <xr6aouzjkjmurg0+0xffffffff80012220>
ffffffff8000fe06: cc                   	int3
ffffffff8000fe07: cc                   	int3
ffffffff8000fe08: cc                   	int3
ffffffff8000fe09: cc                   	int3
ffffffff8000fe0a: cc                   	int3
ffffffff8000fe0b: cc                   	int3
ffffffff8000fe0c: cc                   	int3
ffffffff8000fe0d: cc                   	int3
ffffffff8000fe0e: cc                   	int3
ffffffff8000fe0f: cc                   	int3

ffffffff8000fe10 <_ZN44_$LT$$RF$T$u20$as$u20$core..fmt..Display$GT$3fmt17h216cc472892abda1E>:
ffffffff8000fe10: 48 83 ec 38          	sub	rsp, 56
ffffffff8000fe14: 48 8b 07             	mov	rax, qword ptr [rdi]
ffffffff8000fe17: 48 8b 3e             	mov	rdi, qword ptr [rsi]
ffffffff8000fe1a: 48 8b 76 08          	mov	rsi, qword ptr [rsi + 8]
ffffffff8000fe1e: 48 8b 48 28          	mov	rcx, qword ptr [rax + 40]
ffffffff8000fe22: 48 89 4c 24 30       	mov	qword ptr [rsp + 48], rcx
ffffffff8000fe27: 48 8b 48 20          	mov	rcx, qword ptr [rax + 32]
ffffffff8000fe2b: 48 89 4c 24 28       	mov	qword ptr [rsp + 40], rcx
ffffffff8000fe30: 48 8b 48 18          	mov	rcx, qword ptr [rax + 24]
ffffffff8000fe34: 48 89 4c 24 20       	mov	qword ptr [rsp + 32], rcx
ffffffff8000fe39: 48 8b 48 10          	mov	rcx, qword ptr [rax + 16]
ffffffff8000fe3d: 48 89 4c 24 18       	mov	qword ptr [rsp + 24], rcx
ffffffff8000fe42: 48 8b 08             	mov	rcx, qword ptr [rax]
ffffffff8000fe45: 48 8b 40 08          	mov	rax, qword ptr [rax + 8]
ffffffff8000fe49: 48 89 44 24 10       	mov	qword ptr [rsp + 16], rax
ffffffff8000fe4e: 48 89 4c 24 08       	mov	qword ptr [rsp + 8], rcx
ffffffff8000fe53: 48 8d 54 24 08       	lea	rdx, [rsp + 8]
ffffffff8000fe58: ff 15 b2 22 00 00    	call	qword ptr [rip + 8882]  # 0xffffffff80012110 <xr6aouzjkjmurg0+0xffffffff80012110>
ffffffff8000fe5e: 48 83 c4 38          	add	rsp, 56
ffffffff8000fe62: c3                   	ret
ffffffff8000fe63: cc                   	int3
ffffffff8000fe64: cc                   	int3
ffffffff8000fe65: cc                   	int3
ffffffff8000fe66: cc                   	int3
ffffffff8000fe67: cc                   	int3
ffffffff8000fe68: cc                   	int3
ffffffff8000fe69: cc                   	int3
ffffffff8000fe6a: cc                   	int3
ffffffff8000fe6b: cc                   	int3
ffffffff8000fe6c: cc                   	int3
ffffffff8000fe6d: cc                   	int3
ffffffff8000fe6e: cc                   	int3
ffffffff8000fe6f: cc                   	int3

ffffffff8000fe70 <_ZN44_$LT$$RF$T$u20$as$u20$core..fmt..Display$GT$3fmt17h8db085f9c3579155E>:
ffffffff8000fe70: 48 89 f0             	mov	rax, rsi
ffffffff8000fe73: 48 8b 37             	mov	rsi, qword ptr [rdi]
ffffffff8000fe76: 48 8b 57 08          	mov	rdx, qword ptr [rdi + 8]
ffffffff8000fe7a: 48 89 c7             	mov	rdi, rax
ffffffff8000fe7d: ff 25 9d 23 00 00    	jmp	qword ptr [rip + 9117]  # 0xffffffff80012220 <xr6aouzjkjmurg0+0xffffffff80012220>
ffffffff8000fe83: cc                   	int3
ffffffff8000fe84: cc                   	int3
ffffffff8000fe85: cc                   	int3
ffffffff8000fe86: cc                   	int3
ffffffff8000fe87: cc                   	int3
ffffffff8000fe88: cc                   	int3
ffffffff8000fe89: cc                   	int3
ffffffff8000fe8a: cc                   	int3
ffffffff8000fe8b: cc                   	int3
ffffffff8000fe8c: cc                   	int3
ffffffff8000fe8d: cc                   	int3
ffffffff8000fe8e: cc                   	int3
ffffffff8000fe8f: cc                   	int3

ffffffff8000fe90 <_ZN64_$LT$core..str..error..Utf8Error$u20$as$u20$core..fmt..Debug$GT$3fmt17h5f71cd50efef8c4fE>:
ffffffff8000fe90: 41 56                	push	r14
ffffffff8000fe92: 53                   	push	rbx
ffffffff8000fe93: 48 83 ec 28          	sub	rsp, 40
ffffffff8000fe97: 48 89 f3             	mov	rbx, rsi
ffffffff8000fe9a: 48 89 7c 24 18       	mov	qword ptr [rsp + 24], rdi
ffffffff8000fe9f: 48 83 c7 08          	add	rdi, 8
ffffffff8000fea3: 48 89 7c 24 20       	mov	qword ptr [rsp + 32], rdi
ffffffff8000fea8: 48 8b 3e             	mov	rdi, qword ptr [rsi]
ffffffff8000feab: 48 8b 46 08          	mov	rax, qword ptr [rsi + 8]
ffffffff8000feaf: 48 8d 35 00 29 ff ff 	lea	rsi, [rip - 55040]      # 0xffffffff800027b6 <str.3+0x356>
ffffffff8000feb6: ba 09 00 00 00       	mov	edx, 9
ffffffff8000febb: ff 50 18             	call	qword ptr [rax + 24]
ffffffff8000febe: 48 89 5c 24 08       	mov	qword ptr [rsp + 8], rbx
ffffffff8000fec3: 88 44 24 10          	mov	byte ptr [rsp + 16], al
ffffffff8000fec7: c6 44 24 11 00       	mov	byte ptr [rsp + 17], 0
ffffffff8000fecc: 48 8d 35 ec 28 ff ff 	lea	rsi, [rip - 55060]      # 0xffffffff800027bf <str.3+0x35f>
ffffffff8000fed3: 4c 8d 05 16 1f 00 00 	lea	r8, [rip + 7958]        # 0xffffffff80011df0 <xr6aouzjkjmurg0+0xffffffff80011df0>
ffffffff8000feda: 4c 8b 35 ff 22 00 00 	mov	r14, qword ptr [rip + 8959] # 0xffffffff800121e0 <xr6aouzjkjmurg0+0xffffffff800121e0>
ffffffff8000fee1: 48 8d 5c 24 08       	lea	rbx, [rsp + 8]
ffffffff8000fee6: 48 8d 4c 24 18       	lea	rcx, [rsp + 24]
ffffffff8000feeb: ba 0b 00 00 00       	mov	edx, 11
ffffffff8000fef0: 48 89 df             	mov	rdi, rbx
ffffffff8000fef3: 41 ff d6             	call	r14
ffffffff8000fef6: 48 8d 35 cd 28 ff ff 	lea	rsi, [rip - 55091]      # 0xffffffff800027ca <str.3+0x36a>
ffffffff8000fefd: 4c 8d 05 bc 20 00 00 	lea	r8, [rip + 8380]        # 0xffffffff80011fc0 <xr6aouzjkjmurg0+0xffffffff80011fc0>
ffffffff8000ff04: 48 8d 4c 24 20       	lea	rcx, [rsp + 32]
ffffffff8000ff09: ba 09 00 00 00       	mov	edx, 9
ffffffff8000ff0e: 48 89 df             	mov	rdi, rbx
ffffffff8000ff11: 41 ff d6             	call	r14
ffffffff8000ff14: 80 7c 24 11 00       	cmp	byte ptr [rsp + 17], 0
ffffffff8000ff19: 0f b6 44 24 10       	movzx	eax, byte ptr [rsp + 16]
ffffffff8000ff1e: 74 06                	je	0xffffffff8000ff26 <_ZN64_$LT$core..str..error..Utf8Error$u20$as$u20$core..fmt..Debug$GT$3fmt17h5f71cd50efef8c4fE+0x96>
ffffffff8000ff20: 84 c0                	test	al, al
ffffffff8000ff22: b0 01                	mov	al, 1
ffffffff8000ff24: 74 08                	je	0xffffffff8000ff2e <_ZN64_$LT$core..str..error..Utf8Error$u20$as$u20$core..fmt..Debug$GT$3fmt17h5f71cd50efef8c4fE+0x9e>
ffffffff8000ff26: 48 83 c4 28          	add	rsp, 40
ffffffff8000ff2a: 5b                   	pop	rbx
ffffffff8000ff2b: 41 5e                	pop	r14
ffffffff8000ff2d: c3                   	ret
ffffffff8000ff2e: 48 8b 44 24 08       	mov	rax, qword ptr [rsp + 8]
ffffffff8000ff33: f6 40 30 04          	test	byte ptr [rax + 48], 4
ffffffff8000ff37: 75 15                	jne	0xffffffff8000ff4e <_ZN64_$LT$core..str..error..Utf8Error$u20$as$u20$core..fmt..Debug$GT$3fmt17h5f71cd50efef8c4fE+0xbe>
ffffffff8000ff39: 48 8b 38             	mov	rdi, qword ptr [rax]
ffffffff8000ff3c: 48 8b 40 08          	mov	rax, qword ptr [rax + 8]
ffffffff8000ff40: 48 8d 35 28 26 ff ff 	lea	rsi, [rip - 55768]      # 0xffffffff8000256f <str.3+0x10f>
ffffffff8000ff47: ba 02 00 00 00       	mov	edx, 2
ffffffff8000ff4c: eb 13                	jmp	0xffffffff8000ff61 <_ZN64_$LT$core..str..error..Utf8Error$u20$as$u20$core..fmt..Debug$GT$3fmt17h5f71cd50efef8c4fE+0xd1>
ffffffff8000ff4e: 48 8b 38             	mov	rdi, qword ptr [rax]
ffffffff8000ff51: 48 8b 40 08          	mov	rax, qword ptr [rax + 8]
ffffffff8000ff55: 48 8d 35 12 26 ff ff 	lea	rsi, [rip - 55790]      # 0xffffffff8000256e <str.3+0x10e>
ffffffff8000ff5c: ba 01 00 00 00       	mov	edx, 1
ffffffff8000ff61: ff 50 18             	call	qword ptr [rax + 24]
ffffffff8000ff64: 48 83 c4 28          	add	rsp, 40
ffffffff8000ff68: 5b                   	pop	rbx
ffffffff8000ff69: 41 5e                	pop	r14
ffffffff8000ff6b: c3                   	ret

ffffffff8000ff6c <__rust_probestack>:
ffffffff8000ff6c: 55                   	push	rbp
ffffffff8000ff6d: 48 89 e5             	mov	rbp, rsp
ffffffff8000ff70: 49 89 c3             	mov	r11, rax
ffffffff8000ff73: 49 81 fb 00 10 00 00 	cmp	r11, 4096
ffffffff8000ff7a: 76 1c                	jbe	0xffffffff8000ff98 <__rust_probestack+0x2c>
ffffffff8000ff7c: 48 81 ec 00 10 00 00 	sub	rsp, 4096
ffffffff8000ff83: 48 85 64 24 08       	test	qword ptr [rsp + 8], rsp
ffffffff8000ff88: 49 81 eb 00 10 00 00 	sub	r11, 4096
ffffffff8000ff8f: 49 81 fb 00 10 00 00 	cmp	r11, 4096
ffffffff8000ff96: 77 e4                	ja	0xffffffff8000ff7c <__rust_probestack+0x10>
ffffffff8000ff98: 4c 29 dc             	sub	rsp, r11
ffffffff8000ff9b: 48 85 64 24 08       	test	qword ptr [rsp + 8], rsp
ffffffff8000ffa0: 48 01 c4             	add	rsp, rax
ffffffff8000ffa3: c9                   	leave
ffffffff8000ffa4: c3                   	ret
ffffffff8000ffa5: cc                   	int3
ffffffff8000ffa6: cc                   	int3
ffffffff8000ffa7: cc                   	int3
ffffffff8000ffa8: cc                   	int3
ffffffff8000ffa9: cc                   	int3
ffffffff8000ffaa: cc                   	int3
ffffffff8000ffab: cc                   	int3
ffffffff8000ffac: cc                   	int3
ffffffff8000ffad: cc                   	int3
ffffffff8000ffae: cc                   	int3
ffffffff8000ffaf: cc                   	int3

ffffffff8000ffb0 <strlen>:
ffffffff8000ffb0: ff 25 da 22 00 00    	jmp	qword ptr [rip + 8922]  # 0xffffffff80012290 <xr6aouzjkjmurg0+0xffffffff80012290>
ffffffff8000ffb6: cc                   	int3
ffffffff8000ffb7: cc                   	int3
ffffffff8000ffb8: cc                   	int3
ffffffff8000ffb9: cc                   	int3
ffffffff8000ffba: cc                   	int3
ffffffff8000ffbb: cc                   	int3
ffffffff8000ffbc: cc                   	int3
ffffffff8000ffbd: cc                   	int3
ffffffff8000ffbe: cc                   	int3
ffffffff8000ffbf: cc                   	int3

ffffffff8000ffc0 <memcpy>:
ffffffff8000ffc0: ff 25 d2 22 00 00    	jmp	qword ptr [rip + 8914]  # 0xffffffff80012298 <xr6aouzjkjmurg0+0xffffffff80012298>
ffffffff8000ffc6: cc                   	int3
ffffffff8000ffc7: cc                   	int3
ffffffff8000ffc8: cc                   	int3
ffffffff8000ffc9: cc                   	int3
ffffffff8000ffca: cc                   	int3
ffffffff8000ffcb: cc                   	int3
ffffffff8000ffcc: cc                   	int3
ffffffff8000ffcd: cc                   	int3
ffffffff8000ffce: cc                   	int3
ffffffff8000ffcf: cc                   	int3

ffffffff8000ffd0 <memset>:
ffffffff8000ffd0: ff 25 ca 22 00 00    	jmp	qword ptr [rip + 8906]  # 0xffffffff800122a0 <xr6aouzjkjmurg0+0xffffffff800122a0>
ffffffff8000ffd6: cc                   	int3
ffffffff8000ffd7: cc                   	int3
ffffffff8000ffd8: cc                   	int3
ffffffff8000ffd9: cc                   	int3
ffffffff8000ffda: cc                   	int3
ffffffff8000ffdb: cc                   	int3
ffffffff8000ffdc: cc                   	int3
ffffffff8000ffdd: cc                   	int3
ffffffff8000ffde: cc                   	int3
ffffffff8000ffdf: cc                   	int3

ffffffff8000ffe0 <_ZN17compiler_builtins3mem6memcpy17h365e146eec5bd0c8E>:
ffffffff8000ffe0: 49 89 f8             	mov	r8, rdi
ffffffff8000ffe3: 44 89 c0             	mov	eax, r8d
ffffffff8000ffe6: f7 d8                	neg	eax
ffffffff8000ffe8: 83 e0 07             	and	eax, 7
ffffffff8000ffeb: 48 39 d0             	cmp	rax, rdx
ffffffff8000ffee: 48 0f 43 c2          	cmovae	rax, rdx
ffffffff8000fff2: 48 89 c1             	mov	rcx, rax
ffffffff8000fff5: f3 a4                	rep		movsb	byte ptr es:[rdi], byte ptr [rsi]
ffffffff8000fff7: 48 29 c2             	sub	rdx, rax
ffffffff8000fffa: 48 89 d1             	mov	rcx, rdx
ffffffff8000fffd: 48 c1 e9 03          	shr	rcx, 3
ffffffff80010001: f3 48 a5             	rep		movsq	qword ptr es:[rdi], qword ptr [rsi]
ffffffff80010004: 83 e2 07             	and	edx, 7
ffffffff80010007: 48 89 d1             	mov	rcx, rdx
ffffffff8001000a: f3 a4                	rep		movsb	byte ptr es:[rdi], byte ptr [rsi]
ffffffff8001000c: 4c 89 c0             	mov	rax, r8
ffffffff8001000f: c3                   	ret

ffffffff80010010 <_ZN17compiler_builtins3mem6memset17h9b2edd3e641ba571E>:
ffffffff80010010: 49 89 f8             	mov	r8, rdi
ffffffff80010013: 40 0f b6 ce          	movzx	ecx, sil
ffffffff80010017: 48 b8 01 01 01 01 01 01 01 01	movabs	rax, 72340172838076673
ffffffff80010021: 48 0f af c1          	imul	rax, rcx
ffffffff80010025: 44 89 c1             	mov	ecx, r8d
ffffffff80010028: f7 d9                	neg	ecx
ffffffff8001002a: 83 e1 07             	and	ecx, 7
ffffffff8001002d: 48 39 d1             	cmp	rcx, rdx
ffffffff80010030: 48 0f 43 ca          	cmovae	rcx, rdx
ffffffff80010034: 48 29 ca             	sub	rdx, rcx
ffffffff80010037: 48 89 d6             	mov	rsi, rdx
ffffffff8001003a: 48 c1 ee 03          	shr	rsi, 3
ffffffff8001003e: 83 e2 07             	and	edx, 7
ffffffff80010041: f3 aa                	rep		stosb	byte ptr es:[rdi], al
ffffffff80010043: 48 89 f1             	mov	rcx, rsi
ffffffff80010046: f3 48 ab             	rep		stosq	qword ptr es:[rdi], rax
ffffffff80010049: 48 89 d1             	mov	rcx, rdx
ffffffff8001004c: f3 aa                	rep		stosb	byte ptr es:[rdi], al
ffffffff8001004e: 4c 89 c0             	mov	rax, r8
ffffffff80010051: c3                   	ret
ffffffff80010052: cc                   	int3
ffffffff80010053: cc                   	int3
ffffffff80010054: cc                   	int3
ffffffff80010055: cc                   	int3
ffffffff80010056: cc                   	int3
ffffffff80010057: cc                   	int3
ffffffff80010058: cc                   	int3
ffffffff80010059: cc                   	int3
ffffffff8001005a: cc                   	int3
ffffffff8001005b: cc                   	int3
ffffffff8001005c: cc                   	int3
ffffffff8001005d: cc                   	int3
ffffffff8001005e: cc                   	int3
ffffffff8001005f: cc                   	int3

ffffffff80010060 <_ZN17compiler_builtins3mem6memcmp17hc6928bc8755f8b45E>:
ffffffff80010060: 41 57                	push	r15
ffffffff80010062: 41 56                	push	r14
ffffffff80010064: 53                   	push	rbx
ffffffff80010065: 48 83 fa 10          	cmp	rdx, 16
ffffffff80010069: 73 3d                	jae	0xffffffff800100a8 <_ZN17compiler_builtins3mem6memcmp17hc6928bc8755f8b45E+0x48>
ffffffff8001006b: 49 89 f8             	mov	r8, rdi
ffffffff8001006e: 89 d0                	mov	eax, edx
ffffffff80010070: 83 e0 0f             	and	eax, 15
ffffffff80010073: 83 f8 08             	cmp	eax, 8
ffffffff80010076: 0f 83 85 00 00 00    	jae	0xffffffff80010101 <_ZN17compiler_builtins3mem6memcmp17hc6928bc8755f8b45E+0xa1>
ffffffff8001007c: 89 d0                	mov	eax, edx
ffffffff8001007e: 83 e0 07             	and	eax, 7
ffffffff80010081: 83 f8 04             	cmp	eax, 4
ffffffff80010084: 0f 83 a0 00 00 00    	jae	0xffffffff8001012a <_ZN17compiler_builtins3mem6memcmp17hc6928bc8755f8b45E+0xca>
ffffffff8001008a: 89 d0                	mov	eax, edx
ffffffff8001008c: 83 e0 03             	and	eax, 3
ffffffff8001008f: 83 f8 02             	cmp	eax, 2
ffffffff80010092: 0f 83 b9 00 00 00    	jae	0xffffffff80010151 <_ZN17compiler_builtins3mem6memcmp17hc6928bc8755f8b45E+0xf1>
ffffffff80010098: 31 c0                	xor	eax, eax
ffffffff8001009a: f6 c2 01             	test	dl, 1
ffffffff8001009d: 0f 85 d5 00 00 00    	jne	0xffffffff80010178 <_ZN17compiler_builtins3mem6memcmp17hc6928bc8755f8b45E+0x118>
ffffffff800100a3: e9 b2 01 00 00       	jmp	0xffffffff8001025a <_ZN17compiler_builtins3mem6memcmp17hc6928bc8755f8b45E+0x1fa>
ffffffff800100a8: 49 89 d2             	mov	r10, rdx
ffffffff800100ab: 49 c1 ea 04          	shr	r10, 4
ffffffff800100af: 49 89 d0             	mov	r8, rdx
ffffffff800100b2: 49 83 e0 f0          	and	r8, -16
ffffffff800100b6: 49 01 f8             	add	r8, rdi
ffffffff800100b9: 49 c1 e2 04          	shl	r10, 4
ffffffff800100bd: 31 c0                	xor	eax, eax
ffffffff800100bf: 90                   	nop
ffffffff800100c0: 4c 8b 0c 07          	mov	r9, qword ptr [rdi + rax]
ffffffff800100c4: 4c 8b 74 07 08       	mov	r14, qword ptr [rdi + rax + 8]
ffffffff800100c9: 4c 8b 1c 06          	mov	r11, qword ptr [rsi + rax]
ffffffff800100cd: 4c 8b 7c 06 08       	mov	r15, qword ptr [rsi + rax + 8]
ffffffff800100d2: 4c 89 f1             	mov	rcx, r14
ffffffff800100d5: 4c 31 f9             	xor	rcx, r15
ffffffff800100d8: 4c 89 cb             	mov	rbx, r9
ffffffff800100db: 4c 31 db             	xor	rbx, r11
ffffffff800100de: 48 09 cb             	or	rbx, rcx
ffffffff800100e1: 0f 85 aa 00 00 00    	jne	0xffffffff80010191 <_ZN17compiler_builtins3mem6memcmp17hc6928bc8755f8b45E+0x131>
ffffffff800100e7: 48 83 c0 10          	add	rax, 16
ffffffff800100eb: 49 39 c2             	cmp	r10, rax
ffffffff800100ee: 75 d0                	jne	0xffffffff800100c0 <_ZN17compiler_builtins3mem6memcmp17hc6928bc8755f8b45E+0x60>
ffffffff800100f0: 48 01 c6             	add	rsi, rax
ffffffff800100f3: 89 d0                	mov	eax, edx
ffffffff800100f5: 83 e0 0f             	and	eax, 15
ffffffff800100f8: 83 f8 08             	cmp	eax, 8
ffffffff800100fb: 0f 82 7b ff ff ff    	jb	0xffffffff8001007c <_ZN17compiler_builtins3mem6memcmp17hc6928bc8755f8b45E+0x1c>
ffffffff80010101: 49 8b 08             	mov	rcx, qword ptr [r8]
ffffffff80010104: 48 8b 3e             	mov	rdi, qword ptr [rsi]
ffffffff80010107: 48 39 f9             	cmp	rcx, rdi
ffffffff8001010a: 0f 85 e7 00 00 00    	jne	0xffffffff800101f7 <_ZN17compiler_builtins3mem6memcmp17hc6928bc8755f8b45E+0x197>
ffffffff80010110: 89 d0                	mov	eax, edx
ffffffff80010112: 83 e0 08             	and	eax, 8
ffffffff80010115: 49 01 c0             	add	r8, rax
ffffffff80010118: 48 83 c6 08          	add	rsi, 8
ffffffff8001011c: 89 d0                	mov	eax, edx
ffffffff8001011e: 83 e0 07             	and	eax, 7
ffffffff80010121: 83 f8 04             	cmp	eax, 4
ffffffff80010124: 0f 82 60 ff ff ff    	jb	0xffffffff8001008a <_ZN17compiler_builtins3mem6memcmp17hc6928bc8755f8b45E+0x2a>
ffffffff8001012a: 41 8b 38             	mov	edi, dword ptr [r8]
ffffffff8001012d: 8b 0e                	mov	ecx, dword ptr [rsi]
ffffffff8001012f: 39 cf                	cmp	edi, ecx
ffffffff80010131: 0f 85 ff 00 00 00    	jne	0xffffffff80010236 <_ZN17compiler_builtins3mem6memcmp17hc6928bc8755f8b45E+0x1d6>
ffffffff80010137: 89 d0                	mov	eax, edx
ffffffff80010139: 83 e0 04             	and	eax, 4
ffffffff8001013c: 49 01 c0             	add	r8, rax
ffffffff8001013f: 48 83 c6 04          	add	rsi, 4
ffffffff80010143: 89 d0                	mov	eax, edx
ffffffff80010145: 83 e0 03             	and	eax, 3
ffffffff80010148: 83 f8 02             	cmp	eax, 2
ffffffff8001014b: 0f 82 47 ff ff ff    	jb	0xffffffff80010098 <_ZN17compiler_builtins3mem6memcmp17hc6928bc8755f8b45E+0x38>
ffffffff80010151: 41 0f b7 38          	movzx	edi, word ptr [r8]
ffffffff80010155: 0f b7 0e             	movzx	ecx, word ptr [rsi]
ffffffff80010158: 66 39 cf             	cmp	di, cx
ffffffff8001015b: 0f 85 e7 00 00 00    	jne	0xffffffff80010248 <_ZN17compiler_builtins3mem6memcmp17hc6928bc8755f8b45E+0x1e8>
ffffffff80010161: 89 d0                	mov	eax, edx
ffffffff80010163: 83 e0 02             	and	eax, 2
ffffffff80010166: 49 01 c0             	add	r8, rax
ffffffff80010169: 48 83 c6 02          	add	rsi, 2
ffffffff8001016d: 31 c0                	xor	eax, eax
ffffffff8001016f: f6 c2 01             	test	dl, 1
ffffffff80010172: 0f 84 e2 00 00 00    	je	0xffffffff8001025a <_ZN17compiler_builtins3mem6memcmp17hc6928bc8755f8b45E+0x1fa>
ffffffff80010178: 41 0f b6 08          	movzx	ecx, byte ptr [r8]
ffffffff8001017c: 0f b6 16             	movzx	edx, byte ptr [rsi]
ffffffff8001017f: 38 d1                	cmp	cl, dl
ffffffff80010181: 0f 84 d3 00 00 00    	je	0xffffffff8001025a <_ZN17compiler_builtins3mem6memcmp17hc6928bc8755f8b45E+0x1fa>
ffffffff80010187: 29 d1                	sub	ecx, edx
ffffffff80010189: 89 c8                	mov	eax, ecx
ffffffff8001018b: 5b                   	pop	rbx
ffffffff8001018c: 41 5e                	pop	r14
ffffffff8001018e: 41 5f                	pop	r15
ffffffff80010190: c3                   	ret
ffffffff80010191: 4d 39 d9             	cmp	r9, r11
ffffffff80010194: 75 11                	jne	0xffffffff800101a7 <_ZN17compiler_builtins3mem6memcmp17hc6928bc8755f8b45E+0x147>
ffffffff80010196: 31 c0                	xor	eax, eax
ffffffff80010198: 4d 39 fe             	cmp	r14, r15
ffffffff8001019b: 0f 84 b9 00 00 00    	je	0xffffffff8001025a <_ZN17compiler_builtins3mem6memcmp17hc6928bc8755f8b45E+0x1fa>
ffffffff800101a1: 4d 89 f1             	mov	r9, r14
ffffffff800101a4: 4d 89 fb             	mov	r11, r15
ffffffff800101a7: 45 39 d9             	cmp	r9d, r11d
ffffffff800101aa: 75 13                	jne	0xffffffff800101bf <_ZN17compiler_builtins3mem6memcmp17hc6928bc8755f8b45E+0x15f>
ffffffff800101ac: 49 c1 eb 20          	shr	r11, 32
ffffffff800101b0: 49 c1 e9 20          	shr	r9, 32
ffffffff800101b4: 31 c0                	xor	eax, eax
ffffffff800101b6: 45 39 d9             	cmp	r9d, r11d
ffffffff800101b9: 0f 84 9b 00 00 00    	je	0xffffffff8001025a <_ZN17compiler_builtins3mem6memcmp17hc6928bc8755f8b45E+0x1fa>
ffffffff800101bf: 66 45 39 d9          	cmp	r9w, r11w
ffffffff800101c3: 75 14                	jne	0xffffffff800101d9 <_ZN17compiler_builtins3mem6memcmp17hc6928bc8755f8b45E+0x179>
ffffffff800101c5: 41 c1 eb 10          	shr	r11d, 16
ffffffff800101c9: 41 c1 e9 10          	shr	r9d, 16
ffffffff800101cd: 31 c0                	xor	eax, eax
ffffffff800101cf: 66 45 39 d9          	cmp	r9w, r11w
ffffffff800101d3: 0f 84 81 00 00 00    	je	0xffffffff8001025a <_ZN17compiler_builtins3mem6memcmp17hc6928bc8755f8b45E+0x1fa>
ffffffff800101d9: 45 38 d9             	cmp	r9b, r11b
ffffffff800101dc: 75 0f                	jne	0xffffffff800101ed <_ZN17compiler_builtins3mem6memcmp17hc6928bc8755f8b45E+0x18d>
ffffffff800101de: 41 c1 eb 08          	shr	r11d, 8
ffffffff800101e2: 41 c1 e9 08          	shr	r9d, 8
ffffffff800101e6: 31 c0                	xor	eax, eax
ffffffff800101e8: 45 38 d9             	cmp	r9b, r11b
ffffffff800101eb: 74 6d                	je	0xffffffff8001025a <_ZN17compiler_builtins3mem6memcmp17hc6928bc8755f8b45E+0x1fa>
ffffffff800101ed: 41 0f b6 c1          	movzx	eax, r9b
ffffffff800101f1: 41 0f b6 cb          	movzx	ecx, r11b
ffffffff800101f5: eb 70                	jmp	0xffffffff80010267 <_ZN17compiler_builtins3mem6memcmp17hc6928bc8755f8b45E+0x207>
ffffffff800101f7: 39 f9                	cmp	ecx, edi
ffffffff800101f9: 75 0e                	jne	0xffffffff80010209 <_ZN17compiler_builtins3mem6memcmp17hc6928bc8755f8b45E+0x1a9>
ffffffff800101fb: 48 c1 ef 20          	shr	rdi, 32
ffffffff800101ff: 48 c1 e9 20          	shr	rcx, 32
ffffffff80010203: 31 c0                	xor	eax, eax
ffffffff80010205: 39 f9                	cmp	ecx, edi
ffffffff80010207: 74 51                	je	0xffffffff8001025a <_ZN17compiler_builtins3mem6memcmp17hc6928bc8755f8b45E+0x1fa>
ffffffff80010209: 66 39 f9             	cmp	cx, di
ffffffff8001020c: 75 0d                	jne	0xffffffff8001021b <_ZN17compiler_builtins3mem6memcmp17hc6928bc8755f8b45E+0x1bb>
ffffffff8001020e: c1 ef 10             	shr	edi, 16
ffffffff80010211: c1 e9 10             	shr	ecx, 16
ffffffff80010214: 31 c0                	xor	eax, eax
ffffffff80010216: 66 39 f9             	cmp	cx, di
ffffffff80010219: 74 3f                	je	0xffffffff8001025a <_ZN17compiler_builtins3mem6memcmp17hc6928bc8755f8b45E+0x1fa>
ffffffff8001021b: 40 38 f9             	cmp	cl, dil
ffffffff8001021e: 75 0d                	jne	0xffffffff8001022d <_ZN17compiler_builtins3mem6memcmp17hc6928bc8755f8b45E+0x1cd>
ffffffff80010220: c1 ef 08             	shr	edi, 8
ffffffff80010223: c1 e9 08             	shr	ecx, 8
ffffffff80010226: 31 c0                	xor	eax, eax
ffffffff80010228: 40 38 f9             	cmp	cl, dil
ffffffff8001022b: 74 2d                	je	0xffffffff8001025a <_ZN17compiler_builtins3mem6memcmp17hc6928bc8755f8b45E+0x1fa>
ffffffff8001022d: 0f b6 c1             	movzx	eax, cl
ffffffff80010230: 40 0f b6 cf          	movzx	ecx, dil
ffffffff80010234: eb 31                	jmp	0xffffffff80010267 <_ZN17compiler_builtins3mem6memcmp17hc6928bc8755f8b45E+0x207>
ffffffff80010236: 66 39 cf             	cmp	di, cx
ffffffff80010239: 75 0d                	jne	0xffffffff80010248 <_ZN17compiler_builtins3mem6memcmp17hc6928bc8755f8b45E+0x1e8>
ffffffff8001023b: c1 e9 10             	shr	ecx, 16
ffffffff8001023e: c1 ef 10             	shr	edi, 16
ffffffff80010241: 31 c0                	xor	eax, eax
ffffffff80010243: 66 39 cf             	cmp	di, cx
ffffffff80010246: 74 12                	je	0xffffffff8001025a <_ZN17compiler_builtins3mem6memcmp17hc6928bc8755f8b45E+0x1fa>
ffffffff80010248: 40 38 cf             	cmp	dil, cl
ffffffff8001024b: 75 13                	jne	0xffffffff80010260 <_ZN17compiler_builtins3mem6memcmp17hc6928bc8755f8b45E+0x200>
ffffffff8001024d: c1 e9 08             	shr	ecx, 8
ffffffff80010250: c1 ef 08             	shr	edi, 8
ffffffff80010253: 31 c0                	xor	eax, eax
ffffffff80010255: 40 38 cf             	cmp	dil, cl
ffffffff80010258: 75 06                	jne	0xffffffff80010260 <_ZN17compiler_builtins3mem6memcmp17hc6928bc8755f8b45E+0x200>
ffffffff8001025a: 5b                   	pop	rbx
ffffffff8001025b: 41 5e                	pop	r14
ffffffff8001025d: 41 5f                	pop	r15
ffffffff8001025f: c3                   	ret
ffffffff80010260: 40 0f b6 c7          	movzx	eax, dil
ffffffff80010264: 0f b6 c9             	movzx	ecx, cl
ffffffff80010267: 29 c8                	sub	eax, ecx
ffffffff80010269: 5b                   	pop	rbx
ffffffff8001026a: 41 5e                	pop	r14
ffffffff8001026c: 41 5f                	pop	r15
ffffffff8001026e: c3                   	ret
ffffffff8001026f: cc                   	int3

ffffffff80010270 <_ZN17compiler_builtins3mem6strlen17ha69109e694bfb8acE>:
ffffffff80010270: 80 3f 00             	cmp	byte ptr [rdi], 0
ffffffff80010273: 74 1a                	je	0xffffffff8001028f <_ZN17compiler_builtins3mem6strlen17ha69109e694bfb8acE+0x1f>
ffffffff80010275: 31 c9                	xor	ecx, ecx
ffffffff80010277: 66 0f 1f 84 00 00 00 00 00   	nop	word ptr [rax + rax]
ffffffff80010280: 48 8d 41 01          	lea	rax, [rcx + 1]
ffffffff80010284: 80 7c 0f 01 00       	cmp	byte ptr [rdi + rcx + 1], 0
ffffffff80010289: 48 89 c1             	mov	rcx, rax
ffffffff8001028c: 75 f2                	jne	0xffffffff80010280 <_ZN17compiler_builtins3mem6strlen17ha69109e694bfb8acE+0x10>
ffffffff8001028e: c3                   	ret
ffffffff8001028f: 31 c0                	xor	eax, eax
ffffffff80010291: c3                   	ret
ffffffff80010292: cc                   	int3
ffffffff80010293: cc                   	int3
ffffffff80010294: cc                   	int3
ffffffff80010295: cc                   	int3
ffffffff80010296: cc                   	int3
ffffffff80010297: cc                   	int3
ffffffff80010298: cc                   	int3
ffffffff80010299: cc                   	int3
ffffffff8001029a: cc                   	int3
ffffffff8001029b: cc                   	int3
ffffffff8001029c: cc                   	int3
ffffffff8001029d: cc                   	int3
ffffffff8001029e: cc                   	int3
ffffffff8001029f: cc                   	int3

ffffffff800102a0 <memcmp>:
ffffffff800102a0: ff 25 02 20 00 00    	jmp	qword ptr [rip + 8194]  # 0xffffffff800122a8 <xr6aouzjkjmurg0+0xffffffff800122a8>
